
CH592F_SSD1306.elf:     file format elf32-littleriscv
CH592F_SSD1306.elf
architecture: riscv:rv32, flags 0x00000112:
EXEC_P, HAS_SYMS, D_PAGED
start address 0x00000000

Program Header:
    LOAD off    0x00001000 vaddr 0x00000000 paddr 0x00000000 align 2**12
         filesz 0x00000004 memsz 0x00000004 flags r-x
    LOAD off    0x00002000 vaddr 0x20000000 paddr 0x00000004 align 2**12
         filesz 0x00000788 memsz 0x00000788 flags r-x
    LOAD off    0x00002790 vaddr 0x00000790 paddr 0x00000790 align 2**12
         filesz 0x00006668 memsz 0x00006668 flags r-x
    LOAD off    0x00009788 vaddr 0x20000788 paddr 0x00006df8 align 2**12
         filesz 0x00000000 memsz 0x00000078 flags rw-
    LOAD off    0x00009800 vaddr 0x20000800 paddr 0x00006df8 align 2**12
         filesz 0x00000068 memsz 0x0000011c flags rw-
    LOAD off    0x0000a600 vaddr 0x20006600 paddr 0x20006600 align 2**12
         filesz 0x00000000 memsz 0x00000200 flags rw-

Sections:
Idx Name            Size      VMA       LMA       File off  Algn  Flags
  0 .init           00000004  00000000  00000000  00001000  2**1  CONTENTS, ALLOC, LOAD, READONLY, CODE
  1 .highcodelalign 00000000  00000004  00000004  00009868  2**0  CONTENTS
  2 .highcode       00000788  20000000  00000004  00002000  2**1  CONTENTS, ALLOC, LOAD, READONLY, CODE
  3 .text           00006668  00000790  00000790  00002790  2**3  CONTENTS, ALLOC, LOAD, READONLY, CODE
  4 .fini           00000000  00006df8  00006df8  00009868  2**0  CONTENTS, ALLOC, LOAD, CODE
  5 .dalign         00000078  20000788  00006df8  00009788  2**0  ALLOC
  6 .dlalign        00000000  00006df8  00006df8  00009868  2**0  CONTENTS
  7 .data           00000068  20000800  00006df8  00009800  2**2  CONTENTS, ALLOC, LOAD, DATA
  8 .bss            000000b4  20000868  00006e60  00009868  2**2  ALLOC
  9 .stack          00000200  20006600  20006600  0000a600  2**0  ALLOC
 10 .debug_info     0000d496  00000000  00000000  00009868  2**0  CONTENTS, READONLY, DEBUGGING
 11 .debug_abbrev   00001bdf  00000000  00000000  00016cfe  2**0  CONTENTS, READONLY, DEBUGGING
 12 .debug_loc      00002a05  00000000  00000000  000188dd  2**0  CONTENTS, READONLY, DEBUGGING
 13 .debug_aranges  00000368  00000000  00000000  0001b2e8  2**3  CONTENTS, READONLY, DEBUGGING
 14 .debug_ranges   00000ce0  00000000  00000000  0001b650  2**3  CONTENTS, READONLY, DEBUGGING
 15 .debug_line     0000af04  00000000  00000000  0001c330  2**0  CONTENTS, READONLY, DEBUGGING
 16 .debug_str      00001686  00000000  00000000  00027234  2**0  CONTENTS, READONLY, DEBUGGING
 17 .comment        00000033  00000000  00000000  000288ba  2**0  CONTENTS, READONLY
 18 .debug_frame    0000118c  00000000  00000000  000288f0  2**2  CONTENTS, READONLY, DEBUGGING
 19 .stab           00000024  00000000  00000000  00029a7c  2**2  CONTENTS, READONLY, DEBUGGING
 20 .stabstr        0000004e  00000000  00000000  00029aa0  2**0  CONTENTS, READONLY, DEBUGGING
SYMBOL TABLE:
00000000 l    d  .init	00000000 .init
00000004 l    d  .highcodelalign	00000000 .highcodelalign
20000000 l    d  .highcode	00000000 .highcode
00000790 l    d  .text	00000000 .text
00006df8 l    d  .fini	00000000 .fini
20000788 l    d  .dalign	00000000 .dalign
00006df8 l    d  .dlalign	00000000 .dlalign
20000800 l    d  .data	00000000 .data
20000868 l    d  .bss	00000000 .bss
20006600 l    d  .stack	00000000 .stack
00000000 l    d  .debug_info	00000000 .debug_info
00000000 l    d  .debug_abbrev	00000000 .debug_abbrev
00000000 l    d  .debug_loc	00000000 .debug_loc
00000000 l    d  .debug_aranges	00000000 .debug_aranges
00000000 l    d  .debug_ranges	00000000 .debug_ranges
00000000 l    d  .debug_line	00000000 .debug_line
00000000 l    d  .debug_str	00000000 .debug_str
00000000 l    d  .comment	00000000 .comment
00000000 l    d  .debug_frame	00000000 .debug_frame
00000000 l    d  .stab	00000000 .stab
00000000 l    d  .stabstr	00000000 .stabstr
00000000 l    df *ABS*	00000000 ./Startup/startup_CH592.o
20000000 l       .highcode	00000000 _vector_base
00000000 l    df *ABS*	00000000 CH59x_sys.c
20000092 l     F .highcode	0000000e mDelayuS.constprop.0
00000000 l    df *ABS*	00000000 ISP583.c
20000372 l       .highcode	00000000 .loop18
20000380 l       .highcode	00000000 .loop29
2000038e l       .highcode	00000000 .loop40
2000061a l       .highcode	00000000 .loop402
00000000 l    df *ABS*	00000000 renderer.c
20000878 l     O .bss	00000040 projected
200008b8 l     O .bss	00000060 vertices
20000868 l     O .bss	00000004 buffer
00000000 l    df *ABS*	00000000 Main.c
00000000 l    df *ABS*	00000000 board.c
00000000 l    df *ABS*	00000000 CH59x_gpio.c
00000000 l    df *ABS*	00000000 CH59x_i2c.c
00000000 l    df *ABS*	00000000 CH59x_pwr.c
00000000 l    df *ABS*	00000000 CH59x_uart0.c
00000000 l    df *ABS*	00000000 s_cos.c
00000000 l    df *ABS*	00000000 s_sin.c
00000000 l    df *ABS*	00000000 e_rem_pio2.c
000069b8 l     O .text	00000080 npio2_hw
00006a38 l     O .text	00000108 two_over_pi
00000000 l    df *ABS*	00000000 k_cos.c
00000000 l    df *ABS*	00000000 k_rem_pio2.c
00006b80 l     O .text	00000040 PIo2
00006bd8 l     O .text	00000010 init_jk
00000000 l    df *ABS*	00000000 k_sin.c
00000000 l    df *ABS*	00000000 s_fabs.c
00000000 l    df *ABS*	00000000 s_floor.c
00000000 l    df *ABS*	00000000 s_scalbn.c
00000000 l    df *ABS*	00000000 s_copysign.c
00000000 l    df *ABS*	00000000 adddf3.c
00000000 l    df *ABS*	00000000 divdf3.c
00000000 l    df *ABS*	00000000 eqdf2.c
00000000 l    df *ABS*	00000000 gedf2.c
00000000 l    df *ABS*	00000000 muldf3.c
00000000 l    df *ABS*	00000000 subdf3.c
00000000 l    df *ABS*	00000000 fixdfsi.c
00000000 l    df *ABS*	00000000 floatsidf.c
00000000 l    df *ABS*	00000000 addsf3.c
00000000 l    df *ABS*	00000000 gesf2.c
00000000 l    df *ABS*	00000000 lesf2.c
00000000 l    df *ABS*	00000000 mulsf3.c
00000000 l    df *ABS*	00000000 subsf3.c
00000000 l    df *ABS*	00000000 fixsfsi.c
00000000 l    df *ABS*	00000000 floatsisf.c
00000000 l    df *ABS*	00000000 extendsfdf2.c
00000000 l    df *ABS*	00000000 truncdfsf2.c
00000000 l    df *ABS*	00000000 libgcc2.c
00000000 l    df *ABS*	00000000 malloc.c
00000000 l    df *ABS*	00000000 nano-mallocr.c
00000000 l    df *ABS*	00000000 rand.c
00000000 l    df *ABS*	00000000 sbrkr.c
00000000 l    df *ABS*	00000000 time.c
00000000 l    df *ABS*	00000000 gettimeofdayr.c
00000000 l    df *ABS*	00000000 mlock.c
00000000 l    df *ABS*	00000000 gettod.c
00000000 l    df *ABS*	00000000 sbrk.c
20000874 l     O .bss	00000004 heap_end.1518
00000000 l    df *ABS*	00000000 libgcc2.c
00000000 l    df *ABS*	00000000 impure.c
20000800 l     O .data	00000060 impure_data
00000000 l    df *ABS*	00000000 reent.c
000039d6 g     F .text	00000006 fabs
2000038e g     F .highcode	0000000e FLASH_ROM_OUT
00004964 g     F .text	0000006a .hidden __eqdf2
000067bc g     F .text	0000002a _gettimeofday_r
20001060 g       .data	00000000 __global_pointer$
2000032a g     F .highcode	00000010 mDelayuS
00006850 g     O .text	00000060 edges
200002aa  w    F .highcode	00000080 HardFault_Handler
20000090  w      .highcode	00000000 GPIOB_IRQHandler
000067e8 g     F .text	00000002 __malloc_unlock
20000090  w      .highcode	00000000 GPIOA_IRQHandler
20000090  w      .highcode	00000000 SysTick_Handler
20000090  w      .highcode	00000000 NMI_Handler
000061e4 g     F .text	00000062 .hidden __fixsfsi
20000090  w      .highcode	00000000 UART1_IRQHandler
000049ce g     F .text	000000ae .hidden __gtdf2
0000250a g     F .text	00000130 PWR_DCDCCfg
20000918 g     O .bss	00000004 errno
000039dc g     F .text	00000150 floor
20000868 g       .bss	00000000 _sbss
00000200 g       *ABS*	00000000 __stack_size
20000380 g     F .highcode	0000000e FLASH_ROM_IN
00005e5c g     F .text	00000388 .hidden __subsf3
000012fa g     F .text	0000017c OLED_UpdateScreen
20000090  w      .highcode	00000000 UART0_IRQHandler
000027e4 g     F .text	00000464 __ieee754_rem_pio2
000008e2 g     F .text	00000a18 OLED_Init
000056da g     F .text	00000072 .hidden __floatsidf
000017f6 g     F .text	0000055e OLED_Test
00006598 g     F .text	0000000e malloc
00000004 g       .init	00000000 _einit
00002c48 g     F .text	000002b8 __kernel_cos
00005b3c g     F .text	0000008c .hidden __lesf2
20000090  w      .highcode	00000000 BB_IRQHandler
2000041c g     F .highcode	0000036a FLASH_EEPROM_CMD
20000090  w      .highcode	00000000 Break_Point_Handler
00002218 g     F .text	000000c8 GPIOB_ModeCfg
0000675e g     F .text	00000028 _sbrk_r
20000090  w      .highcode	00000000 TMR0_IRQHandler
20000360 g     F .highcode	00000012 FLASH_ROM_BEG
00003844 g     F .text	00000192 __kernel_sin
0000630c g     F .text	000000ac .hidden __extendsfdf2
00003c80 g     F .text	00000730 .hidden __adddf3
2000033a g     F .highcode	00000026 mDelaymS
20000090  w      .highcode	00000000 Ecall_M_Mode_Handler
2000039c g     F .highcode	00000048 FLASH_ROM_ADDR
000024c6 g     F .text	0000000a I2C_SendData
000067f6 g     F .text	00000020 _sbrk
000022e0 g     F .text	0000019a I2C_Init
00002f00 g     F .text	00000944 __kernel_rem_pio2
20000090  w      .highcode	00000000 RTC_IRQHandler
2000091c g       .bss	00000000 _ebss
00005672 g     F .text	00000068 .hidden __fixdfsi
200003e4 g     F .highcode	00000038 FLASH_ROM_WAIT
00005ab6 g     F .text	00000086 .hidden __gtsf2
0000247a g     F .text	00000026 I2C_GenerateSTART
2000091c g       .bss	00000000 end
20000090  w      .highcode	00000000 UART2_IRQHandler
20000090  w      .highcode	00000000 PWMX_IRQHandler
00006522 g     F .text	00000076 .hidden __clzsi2
000026cc g     F .text	0000008a cos
00002116 g     F .text	00000022 DebugInit
00000000 g       .init	00000000 _start
00002756 g     F .text	0000008e sin
000066d2 g     F .text	0000008c rand
00006246 g     F .text	000000c6 .hidden __floatsisf
20000090  w      .highcode	00000000 ADC_IRQHandler
20000000 g       .highcode	00000000 _highcode_vma_start
000068b0 g     O .text	00000060 original_vertices
20000090  w      .highcode	00000000 TMR2_IRQHandler
00001476 g     F .text	000000be OLED_DrawLine
0000267e g     F .text	0000004e UART0_DefInit
20000800 g       .data	00000000 _data_vma
200000a0 g     F .highcode	000001b2 SetSysClock
20000090  w      .highcode	00000000 USB_IRQHandler
000043b0 g     F .text	000005b4 .hidden __divdf3
00004a7c g     F .text	000004b8 .hidden __muldf3
000024d0 g     F .text	00000018 I2C_Send7bitAddress
000067e6 g     F .text	00000002 __malloc_lock
20000090  w      .highcode	00000000 I2C_IRQHandler
0000083a g     F .text	000000a8 memset
00001d54 g     F .text	000003c2 main
00006674 g     F .text	0000005e srand
00005b3c g     F .text	0000008c .hidden __ltsf2
000063b8 g     F .text	0000016a .hidden __truncdfsf2
000065a6 g     F .text	000000ce _malloc_r
00006786 g     F .text	00000036 time
00001534 g     F .text	000002c2 OLED_Draw3DCube
00005bc8 g     F .text	00000294 .hidden __mulsf3
00000004 g       .highcodelalign	00000000 _highcode_lma
00003c6a g     F .text	00000016 copysign
00004964 g     F .text	0000006a .hidden __nedf2
00006cf8 g     O .text	00000100 .hidden __clz_tab
20000090  w      .highcode	00000000 LLE_IRQHandler
00000000 g       .init	00000000 _sinit
00005ab6 g     F .text	00000086 .hidden __gesf2
20000860 g     O .data	00000004 _impure_ptr
00003b2c g     F .text	0000013e scalbn
20000090  w      .highcode	00000000 WDOG_BAT_IRQHandler
20000090  w      .highcode	00000000 Ecall_U_Mode_Handler
20000090  w      .highcode	00000000 TMR3_IRQHandler
00002138 g     F .text	00000018 led_init
20006800 g       .stack	00000000 _eusrstack
20000090  w      .highcode	00000000 SW_Handler
00002150 g     F .text	000000c8 GPIOA_ModeCfg
0000263a g     F .text	00000044 GetSysClock
20000868 g       .data	00000000 _edata
20000090  w      .highcode	00000000 SPI0_IRQHandler
20000788 g       .highcode	00000000 _highcode_vma_end
00006df8 g       .dlalign	00000000 _data_lma
000067ea g     F .text	0000000c _gettimeofday
00000790  w      .text	00000000 handle_reset
000049ce g     F .text	000000ae .hidden __gedf2
20000090  w      .highcode	00000000 UART3_IRQHandler
20000870 g     O .bss	00000004 __malloc_sbrk_start
000024e8 g     F .text	00000022 I2C_CheckEvent
000024a0 g     F .text	00000026 I2C_GenerateSTOP
20000372 g     F .highcode	0000000e FLASH_ROM_END
2000086c g     O .bss	00000004 __malloc_free_list
00004f34 g     F .text	0000073e .hidden __subdf3
20000090  w      .highcode	00000000 TMR1_IRQHandler
0000574c g     F .text	0000036a .hidden __addsf3
20000252 g     F .highcode	00000058 SYS_ResetExecute



Disassembly of section .init:

00000000 <_sinit>:
_start():
C:\MRS_DATA\workspace\CH592F_SSD1306\obj/../Startup/startup_CH592.S:17

	.section	.init,"ax",@progbits
	.global	_start
	.align	1
_start:
	j	handle_reset
   0:	7900006f          	j	790 <handle_reset>

Disassembly of section .highcode:

20000000 <_highcode_vma_start>:
	...
_vector_base():
20000008:	0090                	addi	a2,sp,64
2000000a:	2000                	fld	fs0,0(s0)
2000000c:	02aa                	slli	t0,t0,0xa
2000000e:	2000                	fld	fs0,0(s0)
20000010:	bda9                	j	1ffffe6a <_data_lma+0x1fff9072>
20000012:	f5f9                	bnez	a1,1fffffe0 <_data_lma+0x1fff91e8>
20000014:	0090                	addi	a2,sp,64
20000016:	2000                	fld	fs0,0(s0)
	...
20000020:	0090                	addi	a2,sp,64
20000022:	2000                	fld	fs0,0(s0)
20000024:	0090                	addi	a2,sp,64
20000026:	2000                	fld	fs0,0(s0)
	...
20000030:	0090                	addi	a2,sp,64
20000032:	2000                	fld	fs0,0(s0)
20000034:	0000                	unimp
20000036:	0000                	unimp
20000038:	0090                	addi	a2,sp,64
2000003a:	2000                	fld	fs0,0(s0)
2000003c:	0000                	unimp
2000003e:	0000                	unimp
20000040:	0090                	addi	a2,sp,64
20000042:	2000                	fld	fs0,0(s0)
20000044:	0090                	addi	a2,sp,64
20000046:	2000                	fld	fs0,0(s0)
20000048:	0090                	addi	a2,sp,64
2000004a:	2000                	fld	fs0,0(s0)
2000004c:	0090                	addi	a2,sp,64
2000004e:	2000                	fld	fs0,0(s0)
20000050:	0090                	addi	a2,sp,64
20000052:	2000                	fld	fs0,0(s0)
20000054:	0090                	addi	a2,sp,64
20000056:	2000                	fld	fs0,0(s0)
20000058:	0090                	addi	a2,sp,64
2000005a:	2000                	fld	fs0,0(s0)
2000005c:	0000                	unimp
2000005e:	0000                	unimp
20000060:	0090                	addi	a2,sp,64
20000062:	2000                	fld	fs0,0(s0)
20000064:	0090                	addi	a2,sp,64
20000066:	2000                	fld	fs0,0(s0)
20000068:	0090                	addi	a2,sp,64
2000006a:	2000                	fld	fs0,0(s0)
2000006c:	0090                	addi	a2,sp,64
2000006e:	2000                	fld	fs0,0(s0)
20000070:	0090                	addi	a2,sp,64
20000072:	2000                	fld	fs0,0(s0)
20000074:	0090                	addi	a2,sp,64
20000076:	2000                	fld	fs0,0(s0)
20000078:	0090                	addi	a2,sp,64
2000007a:	2000                	fld	fs0,0(s0)
2000007c:	0090                	addi	a2,sp,64
2000007e:	2000                	fld	fs0,0(s0)
20000080:	0090                	addi	a2,sp,64
20000082:	2000                	fld	fs0,0(s0)
20000084:	0090                	addi	a2,sp,64
20000086:	2000                	fld	fs0,0(s0)
20000088:	0090                	addi	a2,sp,64
2000008a:	2000                	fld	fs0,0(s0)
2000008c:	0090                	addi	a2,sp,64
2000008e:	2000                	fld	fs0,0(s0)

20000090 <ADC_IRQHandler>:
GPIOB_IRQHandler():
C:\MRS_DATA\workspace\CH592F_SSD1306\obj/../Startup/startup_CH592.S:119
TMR3_IRQHandler:
UART2_IRQHandler:
UART3_IRQHandler:
WDOG_BAT_IRQHandler: 
1:  
	j 1b
20000090:	a001                	j	20000090 <ADC_IRQHandler>

20000092 <mDelayuS.constprop.0>:
mDelayuS():
C:\MRS_DATA\workspace\CH592F_SSD1306\obj/../StdPeriphDriver/CH59x_sys.c:289
 * @param   t       - 时间参数
 *
 * @return  none
 */
__HIGH_CODE
void mDelayuS(uint16_t t)
20000092:	6791                	lui	a5,0x4
20000094:	a9878793          	addi	a5,a5,-1384 # 3a98 <floor+0xbc>
C:\MRS_DATA\workspace\CH592F_SSD1306\obj/../StdPeriphDriver/CH59x_sys.c:319
#else
    i = t << 1;
#endif
    do
    {
        __nop();
20000098:	0001                	nop
2000009a:	17fd                	addi	a5,a5,-1
C:\MRS_DATA\workspace\CH592F_SSD1306\obj/../StdPeriphDriver/CH59x_sys.c:320
    } while(--i);
2000009c:	fff5                	bnez	a5,20000098 <mDelayuS.constprop.0+0x6>
C:\MRS_DATA\workspace\CH592F_SSD1306\obj/../StdPeriphDriver/CH59x_sys.c:321
}
2000009e:	8082                	ret

200000a0 <SetSysClock>:
SetSysClock():
C:\MRS_DATA\workspace\CH592F_SSD1306\obj/../StdPeriphDriver/CH59x_sys.c:26
{
200000a0:	1101                	addi	sp,sp,-32
__risc_v_disable_irq():
C:\MRS_DATA\workspace\CH592F_SSD1306\RVMSIS/core_riscv.h:130
 */
__attribute__((always_inline)) RV_STATIC_INLINE uint32_t __risc_v_disable_irq(void)
{
  uint32_t result;

  __asm volatile ("csrrc %0, 0x800, %1" : \
200000a2:	08800713          	li	a4,136
200000a6:	800737f3          	csrrc	a5,0x800,a4
C:\MRS_DATA\workspace\CH592F_SSD1306\RVMSIS/core_riscv.h:132
          "=r"(result): "r"(0x88) : "memory");
  return result & 0x88;
200000aa:	0887f793          	andi	a5,a5,136
SetSysClock():
C:\MRS_DATA\workspace\CH592F_SSD1306\obj/../StdPeriphDriver/CH59x_sys.c:27
    sys_safe_access_enable();
200000ae:	c23e                	sw	a5,4(sp)
200000b0:	0001                	nop
200000b2:	0001                	nop
200000b4:	400017b7          	lui	a5,0x40001
200000b8:	05700593          	li	a1,87
200000bc:	04b78023          	sb	a1,64(a5) # 40001040 <_eusrstack+0x1fffa840>
200000c0:	fa800613          	li	a2,-88
200000c4:	04c78023          	sb	a2,64(a5)
200000c8:	0001                	nop
200000ca:	0001                	nop
C:\MRS_DATA\workspace\CH592F_SSD1306\obj/../StdPeriphDriver/CH59x_sys.c:28
    R8_PLL_CONFIG &= ~(1 << 5); //
200000cc:	04b7c683          	lbu	a3,75(a5)
200000d0:	0df6f693          	andi	a3,a3,223
200000d4:	04d785a3          	sb	a3,75(a5)
C:\MRS_DATA\workspace\CH592F_SSD1306\obj/../StdPeriphDriver/CH59x_sys.c:29
    sys_safe_access_disable();
200000d8:	04078023          	sb	zero,64(a5)
200000dc:	4692                	lw	a3,4(sp)
__risc_v_enable_irq():
C:\MRS_DATA\workspace\CH592F_SSD1306\RVMSIS/core_riscv.h:114
  __asm volatile ("csrrs %0, 0x800, %1" : \
200000de:	8006a6f3          	csrrs	a3,0x800,a3
SetSysClock():
C:\MRS_DATA\workspace\CH592F_SSD1306\obj/../StdPeriphDriver/CH59x_sys.c:29
200000e2:	0001                	nop
200000e4:	0001                	nop
C:\MRS_DATA\workspace\CH592F_SSD1306\obj/../StdPeriphDriver/CH59x_sys.c:30
    if(sc & 0x20)  // HSE div
200000e6:	02057693          	andi	a3,a0,32
200000ea:	ced5                	beqz	a3,200001a6 <SetSysClock+0x106>
__risc_v_disable_irq():
C:\MRS_DATA\workspace\CH592F_SSD1306\RVMSIS/core_riscv.h:130
  __asm volatile ("csrrc %0, 0x800, %1" : \
200000ec:	800736f3          	csrrc	a3,0x800,a4
C:\MRS_DATA\workspace\CH592F_SSD1306\RVMSIS/core_riscv.h:132
  return result & 0x88;
200000f0:	0886f693          	andi	a3,a3,136
SetSysClock():
C:\MRS_DATA\workspace\CH592F_SSD1306\obj/../StdPeriphDriver/CH59x_sys.c:32
        sys_safe_access_enable();
200000f4:	c436                	sw	a3,8(sp)
200000f6:	0001                	nop
200000f8:	0001                	nop
200000fa:	04b78023          	sb	a1,64(a5)
200000fe:	04c78023          	sb	a2,64(a5)
20000102:	0001                	nop
20000104:	0001                	nop
C:\MRS_DATA\workspace\CH592F_SSD1306\obj/../StdPeriphDriver/CH59x_sys.c:33
        R32_CLK_SYS_CFG = (0 << 6) | (sc & 0x1f) | RB_TX_32M_PWR_EN | RB_PLL_PWR_EN;
20000106:	001406b7          	lui	a3,0x140
2000010a:	897d                	andi	a0,a0,31
2000010c:	8d55                	or	a0,a0,a3
2000010e:	c788                	sw	a0,8(a5)
C:\MRS_DATA\workspace\CH592F_SSD1306\obj/../StdPeriphDriver/CH59x_sys.c:34
        __nop();
20000110:	0001                	nop
C:\MRS_DATA\workspace\CH592F_SSD1306\obj/../StdPeriphDriver/CH59x_sys.c:35
        __nop();
20000112:	0001                	nop
C:\MRS_DATA\workspace\CH592F_SSD1306\obj/../StdPeriphDriver/CH59x_sys.c:36
        __nop();
20000114:	0001                	nop
C:\MRS_DATA\workspace\CH592F_SSD1306\obj/../StdPeriphDriver/CH59x_sys.c:37
        __nop();
20000116:	0001                	nop
C:\MRS_DATA\workspace\CH592F_SSD1306\obj/../StdPeriphDriver/CH59x_sys.c:38
        sys_safe_access_disable();
20000118:	04078023          	sb	zero,64(a5)
2000011c:	46a2                	lw	a3,8(sp)
__risc_v_enable_irq():
C:\MRS_DATA\workspace\CH592F_SSD1306\RVMSIS/core_riscv.h:114
  __asm volatile ("csrrs %0, 0x800, %1" : \
2000011e:	8006a6f3          	csrrs	a3,0x800,a3
SetSysClock():
C:\MRS_DATA\workspace\CH592F_SSD1306\obj/../StdPeriphDriver/CH59x_sys.c:38
20000122:	0001                	nop
20000124:	0001                	nop
__risc_v_disable_irq():
C:\MRS_DATA\workspace\CH592F_SSD1306\RVMSIS/core_riscv.h:130
  __asm volatile ("csrrc %0, 0x800, %1" : \
20000126:	80073773          	csrrc	a4,0x800,a4
C:\MRS_DATA\workspace\CH592F_SSD1306\RVMSIS/core_riscv.h:132
  return result & 0x88;
2000012a:	08877713          	andi	a4,a4,136
SetSysClock():
C:\MRS_DATA\workspace\CH592F_SSD1306\obj/../StdPeriphDriver/CH59x_sys.c:39
        sys_safe_access_enable();
2000012e:	c63a                	sw	a4,12(sp)
20000130:	0001                	nop
20000132:	0001                	nop
20000134:	04b78023          	sb	a1,64(a5)
20000138:	04c78023          	sb	a2,64(a5)
2000013c:	0001                	nop
2000013e:	0001                	nop
C:\MRS_DATA\workspace\CH592F_SSD1306\obj/../StdPeriphDriver/CH59x_sys.c:40
        SAFEOPERATE;
20000140:	0001                	nop
20000142:	0001                	nop
C:\MRS_DATA\workspace\CH592F_SSD1306\obj/../StdPeriphDriver/CH59x_sys.c:41
        R8_FLASH_CFG = 0X51;
20000144:	40002737          	lui	a4,0x40002
20000148:	05100693          	li	a3,81
2000014c:	80d703a3          	sb	a3,-2041(a4) # 40001807 <_eusrstack+0x1fffb007>
C:\MRS_DATA\workspace\CH592F_SSD1306\obj/../StdPeriphDriver/CH59x_sys.c:42
        sys_safe_access_disable();
20000150:	04078023          	sb	zero,64(a5)
20000154:	47b2                	lw	a5,12(sp)
__risc_v_enable_irq():
C:\MRS_DATA\workspace\CH592F_SSD1306\RVMSIS/core_riscv.h:114
  __asm volatile ("csrrs %0, 0x800, %1" : \
20000156:	8007a7f3          	csrrs	a5,0x800,a5
SetSysClock():
C:\MRS_DATA\workspace\CH592F_SSD1306\obj/../StdPeriphDriver/CH59x_sys.c:42
2000015a:	0001                	nop
2000015c:	0001                	nop
__risc_v_disable_irq():
C:\MRS_DATA\workspace\CH592F_SSD1306\RVMSIS/core_riscv.h:130
  __asm volatile ("csrrc %0, 0x800, %1" : \
2000015e:	08800793          	li	a5,136
20000162:	8007b7f3          	csrrc	a5,0x800,a5
C:\MRS_DATA\workspace\CH592F_SSD1306\RVMSIS/core_riscv.h:132
  return result & 0x88;
20000166:	0887f793          	andi	a5,a5,136
SetSysClock():
C:\MRS_DATA\workspace\CH592F_SSD1306\obj/../StdPeriphDriver/CH59x_sys.c:65
    sys_safe_access_enable();
2000016a:	ce3e                	sw	a5,28(sp)
2000016c:	0001                	nop
2000016e:	0001                	nop
20000170:	400017b7          	lui	a5,0x40001
20000174:	05700713          	li	a4,87
20000178:	04e78023          	sb	a4,64(a5) # 40001040 <_eusrstack+0x1fffa840>
2000017c:	fa800713          	li	a4,-88
20000180:	04e78023          	sb	a4,64(a5)
20000184:	0001                	nop
20000186:	0001                	nop
C:\MRS_DATA\workspace\CH592F_SSD1306\obj/../StdPeriphDriver/CH59x_sys.c:66
    R8_PLL_CONFIG |= 1 << 7;
20000188:	04b7c703          	lbu	a4,75(a5)
2000018c:	08076713          	ori	a4,a4,128
20000190:	04e785a3          	sb	a4,75(a5)
C:\MRS_DATA\workspace\CH592F_SSD1306\obj/../StdPeriphDriver/CH59x_sys.c:67
    sys_safe_access_disable();
20000194:	04078023          	sb	zero,64(a5)
20000198:	47f2                	lw	a5,28(sp)
__risc_v_enable_irq():
C:\MRS_DATA\workspace\CH592F_SSD1306\RVMSIS/core_riscv.h:114
  __asm volatile ("csrrs %0, 0x800, %1" : \
2000019a:	8007a7f3          	csrrs	a5,0x800,a5
SetSysClock():
C:\MRS_DATA\workspace\CH592F_SSD1306\obj/../StdPeriphDriver/CH59x_sys.c:67
2000019e:	0001                	nop
200001a0:	0001                	nop
C:\MRS_DATA\workspace\CH592F_SSD1306\obj/../StdPeriphDriver/CH59x_sys.c:68
}
200001a2:	6105                	addi	sp,sp,32
200001a4:	8082                	ret
C:\MRS_DATA\workspace\CH592F_SSD1306\obj/../StdPeriphDriver/CH59x_sys.c:45
    else if(sc & 0x40) // PLL div
200001a6:	04057693          	andi	a3,a0,64
200001aa:	cabd                	beqz	a3,20000220 <SetSysClock+0x180>
__risc_v_disable_irq():
C:\MRS_DATA\workspace\CH592F_SSD1306\RVMSIS/core_riscv.h:130
  __asm volatile ("csrrc %0, 0x800, %1" : \
200001ac:	800736f3          	csrrc	a3,0x800,a4
C:\MRS_DATA\workspace\CH592F_SSD1306\RVMSIS/core_riscv.h:132
  return result & 0x88;
200001b0:	0886f693          	andi	a3,a3,136
SetSysClock():
C:\MRS_DATA\workspace\CH592F_SSD1306\obj/../StdPeriphDriver/CH59x_sys.c:47
        sys_safe_access_enable();
200001b4:	c836                	sw	a3,16(sp)
200001b6:	0001                	nop
200001b8:	0001                	nop
200001ba:	04b78023          	sb	a1,64(a5)
200001be:	04c78023          	sb	a2,64(a5)
200001c2:	0001                	nop
200001c4:	0001                	nop
C:\MRS_DATA\workspace\CH592F_SSD1306\obj/../StdPeriphDriver/CH59x_sys.c:48
        R32_CLK_SYS_CFG = (1 << 6) | (sc & 0x1f) | RB_TX_32M_PWR_EN | RB_PLL_PWR_EN;
200001c6:	001406b7          	lui	a3,0x140
200001ca:	04068693          	addi	a3,a3,64 # 140040 <_data_lma+0x139248>
200001ce:	897d                	andi	a0,a0,31
200001d0:	8d55                	or	a0,a0,a3
200001d2:	c788                	sw	a0,8(a5)
C:\MRS_DATA\workspace\CH592F_SSD1306\obj/../StdPeriphDriver/CH59x_sys.c:49
        __nop();
200001d4:	0001                	nop
C:\MRS_DATA\workspace\CH592F_SSD1306\obj/../StdPeriphDriver/CH59x_sys.c:50
        __nop();
200001d6:	0001                	nop
C:\MRS_DATA\workspace\CH592F_SSD1306\obj/../StdPeriphDriver/CH59x_sys.c:51
        __nop();
200001d8:	0001                	nop
C:\MRS_DATA\workspace\CH592F_SSD1306\obj/../StdPeriphDriver/CH59x_sys.c:52
        __nop();
200001da:	0001                	nop
C:\MRS_DATA\workspace\CH592F_SSD1306\obj/../StdPeriphDriver/CH59x_sys.c:53
        sys_safe_access_disable();
200001dc:	04078023          	sb	zero,64(a5)
200001e0:	46c2                	lw	a3,16(sp)
__risc_v_enable_irq():
C:\MRS_DATA\workspace\CH592F_SSD1306\RVMSIS/core_riscv.h:114
  __asm volatile ("csrrs %0, 0x800, %1" : \
200001e2:	8006a6f3          	csrrs	a3,0x800,a3
SetSysClock():
C:\MRS_DATA\workspace\CH592F_SSD1306\obj/../StdPeriphDriver/CH59x_sys.c:53
200001e6:	0001                	nop
200001e8:	0001                	nop
__risc_v_disable_irq():
C:\MRS_DATA\workspace\CH592F_SSD1306\RVMSIS/core_riscv.h:130
  __asm volatile ("csrrc %0, 0x800, %1" : \
200001ea:	80073773          	csrrc	a4,0x800,a4
C:\MRS_DATA\workspace\CH592F_SSD1306\RVMSIS/core_riscv.h:132
  return result & 0x88;
200001ee:	08877713          	andi	a4,a4,136
SetSysClock():
C:\MRS_DATA\workspace\CH592F_SSD1306\obj/../StdPeriphDriver/CH59x_sys.c:54
        sys_safe_access_enable();
200001f2:	ca3a                	sw	a4,20(sp)
200001f4:	0001                	nop
200001f6:	0001                	nop
200001f8:	04b78023          	sb	a1,64(a5)
200001fc:	04c78023          	sb	a2,64(a5)
20000200:	0001                	nop
20000202:	0001                	nop
C:\MRS_DATA\workspace\CH592F_SSD1306\obj/../StdPeriphDriver/CH59x_sys.c:55
        R8_FLASH_CFG = 0X52;
20000204:	40002737          	lui	a4,0x40002
20000208:	05200693          	li	a3,82
2000020c:	80d703a3          	sb	a3,-2041(a4) # 40001807 <_eusrstack+0x1fffb007>
C:\MRS_DATA\workspace\CH592F_SSD1306\obj/../StdPeriphDriver/CH59x_sys.c:56
        sys_safe_access_disable();
20000210:	04078023          	sb	zero,64(a5)
20000214:	47d2                	lw	a5,20(sp)
__risc_v_enable_irq():
C:\MRS_DATA\workspace\CH592F_SSD1306\RVMSIS/core_riscv.h:114
  __asm volatile ("csrrs %0, 0x800, %1" : \
20000216:	8007a7f3          	csrrs	a5,0x800,a5
SetSysClock():
C:\MRS_DATA\workspace\CH592F_SSD1306\obj/../StdPeriphDriver/CH59x_sys.c:56
2000021a:	0001                	nop
2000021c:	0001                	nop
2000021e:	b781                	j	2000015e <SetSysClock+0xbe>
__risc_v_disable_irq():
C:\MRS_DATA\workspace\CH592F_SSD1306\RVMSIS/core_riscv.h:130
  __asm volatile ("csrrc %0, 0x800, %1" : \
20000220:	80073773          	csrrc	a4,0x800,a4
C:\MRS_DATA\workspace\CH592F_SSD1306\RVMSIS/core_riscv.h:132
  return result & 0x88;
20000224:	08877713          	andi	a4,a4,136
SetSysClock():
C:\MRS_DATA\workspace\CH592F_SSD1306\obj/../StdPeriphDriver/CH59x_sys.c:60
        sys_safe_access_enable();
20000228:	cc3a                	sw	a4,24(sp)
2000022a:	0001                	nop
2000022c:	0001                	nop
2000022e:	04b78023          	sb	a1,64(a5)
20000232:	04c78023          	sb	a2,64(a5)
20000236:	0001                	nop
20000238:	0001                	nop
C:\MRS_DATA\workspace\CH592F_SSD1306\obj/../StdPeriphDriver/CH59x_sys.c:61
        R32_CLK_SYS_CFG |= RB_CLK_SYS_MOD;
2000023a:	4798                	lw	a4,8(a5)
2000023c:	0c076713          	ori	a4,a4,192
20000240:	c798                	sw	a4,8(a5)
C:\MRS_DATA\workspace\CH592F_SSD1306\obj/../StdPeriphDriver/CH59x_sys.c:62
        sys_safe_access_disable();
20000242:	04078023          	sb	zero,64(a5)
20000246:	47e2                	lw	a5,24(sp)
__risc_v_enable_irq():
C:\MRS_DATA\workspace\CH592F_SSD1306\RVMSIS/core_riscv.h:114
  __asm volatile ("csrrs %0, 0x800, %1" : \
20000248:	8007a7f3          	csrrs	a5,0x800,a5
SetSysClock():
C:\MRS_DATA\workspace\CH592F_SSD1306\obj/../StdPeriphDriver/CH59x_sys.c:62
2000024c:	0001                	nop
2000024e:	0001                	nop
20000250:	b739                	j	2000015e <SetSysClock+0xbe>

20000252 <SYS_ResetExecute>:
SYS_ResetExecute():
C:\MRS_DATA\workspace\CH592F_SSD1306\obj/../StdPeriphDriver/CH59x_sys.c:130
{
20000252:	1101                	addi	sp,sp,-32
C:\MRS_DATA\workspace\CH592F_SSD1306\obj/../StdPeriphDriver/CH59x_sys.c:131
    FLASH_ROM_SW_RESET();
20000254:	4681                	li	a3,0
20000256:	4601                	li	a2,0
20000258:	4581                	li	a1,0
2000025a:	4511                	li	a0,4
C:\MRS_DATA\workspace\CH592F_SSD1306\obj/../StdPeriphDriver/CH59x_sys.c:130
{
2000025c:	ce06                	sw	ra,28(sp)
C:\MRS_DATA\workspace\CH592F_SSD1306\obj/../StdPeriphDriver/CH59x_sys.c:131
    FLASH_ROM_SW_RESET();
2000025e:	2a7d                	jal	2000041c <FLASH_EEPROM_CMD>
__risc_v_disable_irq():
C:\MRS_DATA\workspace\CH592F_SSD1306\RVMSIS/core_riscv.h:130
  __asm volatile ("csrrc %0, 0x800, %1" : \
20000260:	08800793          	li	a5,136
20000264:	8007b7f3          	csrrc	a5,0x800,a5
C:\MRS_DATA\workspace\CH592F_SSD1306\RVMSIS/core_riscv.h:132
  return result & 0x88;
20000268:	0887f793          	andi	a5,a5,136
SYS_ResetExecute():
C:\MRS_DATA\workspace\CH592F_SSD1306\obj/../StdPeriphDriver/CH59x_sys.c:132
    sys_safe_access_enable();
2000026c:	c63e                	sw	a5,12(sp)
2000026e:	0001                	nop
20000270:	0001                	nop
20000272:	400017b7          	lui	a5,0x40001
20000276:	05700713          	li	a4,87
2000027a:	04e78023          	sb	a4,64(a5) # 40001040 <_eusrstack+0x1fffa840>
2000027e:	fa800713          	li	a4,-88
20000282:	04e78023          	sb	a4,64(a5)
20000286:	0001                	nop
20000288:	0001                	nop
C:\MRS_DATA\workspace\CH592F_SSD1306\obj/../StdPeriphDriver/CH59x_sys.c:133
    R8_RST_WDOG_CTRL |= RB_SOFTWARE_RESET;
2000028a:	0467c703          	lbu	a4,70(a5)
2000028e:	00176713          	ori	a4,a4,1
20000292:	04e78323          	sb	a4,70(a5)
C:\MRS_DATA\workspace\CH592F_SSD1306\obj/../StdPeriphDriver/CH59x_sys.c:134
    sys_safe_access_disable();
20000296:	04078023          	sb	zero,64(a5)
2000029a:	47b2                	lw	a5,12(sp)
__risc_v_enable_irq():
C:\MRS_DATA\workspace\CH592F_SSD1306\RVMSIS/core_riscv.h:114
  __asm volatile ("csrrs %0, 0x800, %1" : \
2000029c:	8007a7f3          	csrrs	a5,0x800,a5
SYS_ResetExecute():
C:\MRS_DATA\workspace\CH592F_SSD1306\obj/../StdPeriphDriver/CH59x_sys.c:134
200002a0:	0001                	nop
200002a2:	0001                	nop
C:\MRS_DATA\workspace\CH592F_SSD1306\obj/../StdPeriphDriver/CH59x_sys.c:135
}
200002a4:	40f2                	lw	ra,28(sp)
200002a6:	6105                	addi	sp,sp,32
200002a8:	8082                	ret

200002aa <HardFault_Handler>:
HardFault_Handler():
C:\MRS_DATA\workspace\CH592F_SSD1306\obj/../StdPeriphDriver/CH59x_sys.c:268
{
200002aa:	1141                	addi	sp,sp,-16
C:\MRS_DATA\workspace\CH592F_SSD1306\obj/../StdPeriphDriver/CH59x_sys.c:269
    FLASH_ROM_SW_RESET();
200002ac:	4681                	li	a3,0
200002ae:	4601                	li	a2,0
200002b0:	4581                	li	a1,0
200002b2:	4511                	li	a0,4
200002b4:	22a5                	jal	2000041c <FLASH_EEPROM_CMD>
__risc_v_disable_irq():
C:\MRS_DATA\workspace\CH592F_SSD1306\RVMSIS/core_riscv.h:130
  __asm volatile ("csrrc %0, 0x800, %1" : \
200002b6:	08800713          	li	a4,136
200002ba:	800737f3          	csrrc	a5,0x800,a4
C:\MRS_DATA\workspace\CH592F_SSD1306\RVMSIS/core_riscv.h:132
  return result & 0x88;
200002be:	0887f793          	andi	a5,a5,136
HardFault_Handler():
C:\MRS_DATA\workspace\CH592F_SSD1306\obj/../StdPeriphDriver/CH59x_sys.c:270
    sys_safe_access_enable();
200002c2:	c43e                	sw	a5,8(sp)
200002c4:	0001                	nop
200002c6:	0001                	nop
200002c8:	400017b7          	lui	a5,0x40001
200002cc:	05700613          	li	a2,87
200002d0:	04c78023          	sb	a2,64(a5) # 40001040 <_eusrstack+0x1fffa840>
200002d4:	fa800693          	li	a3,-88
200002d8:	04d78023          	sb	a3,64(a5)
200002dc:	0001                	nop
200002de:	0001                	nop
C:\MRS_DATA\workspace\CH592F_SSD1306\obj/../StdPeriphDriver/CH59x_sys.c:271
    R16_INT32K_TUNE = 0xFFFF;
200002e0:	55fd                	li	a1,-1
200002e2:	02b79623          	sh	a1,44(a5)
C:\MRS_DATA\workspace\CH592F_SSD1306\obj/../StdPeriphDriver/CH59x_sys.c:272
    sys_safe_access_disable();
200002e6:	04078023          	sb	zero,64(a5)
200002ea:	45a2                	lw	a1,8(sp)
__risc_v_enable_irq():
C:\MRS_DATA\workspace\CH592F_SSD1306\RVMSIS/core_riscv.h:114
  __asm volatile ("csrrs %0, 0x800, %1" : \
200002ec:	8005a5f3          	csrrs	a1,0x800,a1
HardFault_Handler():
C:\MRS_DATA\workspace\CH592F_SSD1306\obj/../StdPeriphDriver/CH59x_sys.c:272
200002f0:	0001                	nop
200002f2:	0001                	nop
__risc_v_disable_irq():
C:\MRS_DATA\workspace\CH592F_SSD1306\RVMSIS/core_riscv.h:130
  __asm volatile ("csrrc %0, 0x800, %1" : \
200002f4:	80073773          	csrrc	a4,0x800,a4
C:\MRS_DATA\workspace\CH592F_SSD1306\RVMSIS/core_riscv.h:132
  return result & 0x88;
200002f8:	08877713          	andi	a4,a4,136
HardFault_Handler():
C:\MRS_DATA\workspace\CH592F_SSD1306\obj/../StdPeriphDriver/CH59x_sys.c:273
    sys_safe_access_enable();
200002fc:	c63a                	sw	a4,12(sp)
200002fe:	0001                	nop
20000300:	0001                	nop
20000302:	04c78023          	sb	a2,64(a5)
20000306:	04d78023          	sb	a3,64(a5)
2000030a:	0001                	nop
2000030c:	0001                	nop
C:\MRS_DATA\workspace\CH592F_SSD1306\obj/../StdPeriphDriver/CH59x_sys.c:274
    R8_RST_WDOG_CTRL |= RB_SOFTWARE_RESET;
2000030e:	0467c703          	lbu	a4,70(a5)
20000312:	00176713          	ori	a4,a4,1
20000316:	04e78323          	sb	a4,70(a5)
C:\MRS_DATA\workspace\CH592F_SSD1306\obj/../StdPeriphDriver/CH59x_sys.c:275
    sys_safe_access_disable();
2000031a:	04078023          	sb	zero,64(a5)
2000031e:	47b2                	lw	a5,12(sp)
__risc_v_enable_irq():
C:\MRS_DATA\workspace\CH592F_SSD1306\RVMSIS/core_riscv.h:114
  __asm volatile ("csrrs %0, 0x800, %1" : \
20000320:	8007a7f3          	csrrs	a5,0x800,a5
HardFault_Handler():
C:\MRS_DATA\workspace\CH592F_SSD1306\obj/../StdPeriphDriver/CH59x_sys.c:275
20000324:	0001                	nop
20000326:	0001                	nop
C:\MRS_DATA\workspace\CH592F_SSD1306\obj/../StdPeriphDriver/CH59x_sys.c:276 (discriminator 1)
    while(1);
20000328:	a001                	j	20000328 <HardFault_Handler+0x7e>

2000032a <mDelayuS>:
mDelayuS():
C:\MRS_DATA\workspace\CH592F_SSD1306\obj/../StdPeriphDriver/CH59x_sys.c:295
    i = t * 15;
2000032a:	00451793          	slli	a5,a0,0x4
2000032e:	40a78533          	sub	a0,a5,a0
C:\MRS_DATA\workspace\CH592F_SSD1306\obj/../StdPeriphDriver/CH59x_sys.c:319 (discriminator 1)
        __nop();
20000332:	0001                	nop
C:\MRS_DATA\workspace\CH592F_SSD1306\obj/../StdPeriphDriver/CH59x_sys.c:320 (discriminator 1)
    } while(--i);
20000334:	157d                	addi	a0,a0,-1
20000336:	fd75                	bnez	a0,20000332 <mDelayuS+0x8>
C:\MRS_DATA\workspace\CH592F_SSD1306\obj/../StdPeriphDriver/CH59x_sys.c:321
}
20000338:	8082                	ret

2000033a <mDelaymS>:
mDelaymS():
C:\MRS_DATA\workspace\CH592F_SSD1306\obj/../StdPeriphDriver/CH59x_sys.c:337
__HIGH_CODE
void mDelaymS(uint16_t t)
{
    uint16_t i;

    for(i = 0; i < t; i++)
2000033a:	c115                	beqz	a0,2000035e <mDelaymS+0x24>
C:\MRS_DATA\workspace\CH592F_SSD1306\obj/../StdPeriphDriver/CH59x_sys.c:334
{
2000033c:	1141                	addi	sp,sp,-16
2000033e:	c422                	sw	s0,8(sp)
20000340:	c226                	sw	s1,4(sp)
20000342:	c606                	sw	ra,12(sp)
20000344:	84aa                	mv	s1,a0
C:\MRS_DATA\workspace\CH592F_SSD1306\obj/../StdPeriphDriver/CH59x_sys.c:337
    for(i = 0; i < t; i++)
20000346:	4401                	li	s0,0
C:\MRS_DATA\workspace\CH592F_SSD1306\obj/../StdPeriphDriver/CH59x_sys.c:337 (discriminator 3)
20000348:	0405                	addi	s0,s0,1
2000034a:	0442                	slli	s0,s0,0x10
2000034c:	8041                	srli	s0,s0,0x10
C:\MRS_DATA\workspace\CH592F_SSD1306\obj/../StdPeriphDriver/CH59x_sys.c:339 (discriminator 3)
    {
        mDelayuS(1000);
2000034e:	3391                	jal	20000092 <mDelayuS.constprop.0>
C:\MRS_DATA\workspace\CH592F_SSD1306\obj/../StdPeriphDriver/CH59x_sys.c:337 (discriminator 3)
    for(i = 0; i < t; i++)
20000350:	fe849ce3          	bne	s1,s0,20000348 <mDelaymS+0xe>
C:\MRS_DATA\workspace\CH592F_SSD1306\obj/../StdPeriphDriver/CH59x_sys.c:341
    }
}
20000354:	40b2                	lw	ra,12(sp)
20000356:	4422                	lw	s0,8(sp)
20000358:	4492                	lw	s1,4(sp)
2000035a:	0141                	addi	sp,sp,16
2000035c:	8082                	ret
2000035e:	8082                	ret

20000360 <FLASH_ROM_BEG>:
FLASH_ROM_BEG():
20000360:	80040323          	sb	zero,-2042(s0)
20000364:	4715                	li	a4,5
20000366:	80e40323          	sb	a4,-2042(s0)
2000036a:	0001                	nop
2000036c:	80a40223          	sb	a0,-2044(s0)
20000370:	8082                	ret

20000372 <FLASH_ROM_END>:
FLASH_ROM_END():
20000372:	80640783          	lb	a5,-2042(s0)
20000376:	fe07cee3          	bltz	a5,20000372 <FLASH_ROM_END>
2000037a:	80040323          	sb	zero,-2042(s0)
2000037e:	8082                	ret

20000380 <FLASH_ROM_IN>:
FLASH_ROM_IN():
20000380:	80640783          	lb	a5,-2042(s0)
20000384:	fe07cee3          	bltz	a5,20000380 <FLASH_ROM_IN>
20000388:	80444503          	lbu	a0,-2044(s0)
2000038c:	8082                	ret

2000038e <FLASH_ROM_OUT>:
FLASH_ROM_OUT():
2000038e:	80640783          	lb	a5,-2042(s0)
20000392:	fe07cee3          	bltz	a5,2000038e <FLASH_ROM_OUT>
20000396:	80a40223          	sb	a0,-2044(s0)
2000039a:	8082                	ret

2000039c <FLASH_ROM_ADDR>:
FLASH_ROM_ADDR():
2000039c:	1141                	addi	sp,sp,-16
2000039e:	c426                	sw	s1,8(sp)
200003a0:	c24a                	sw	s2,4(sp)
200003a2:	c04e                	sw	s3,0(sp)
200003a4:	c606                	sw	ra,12(sp)
200003a6:	0bf57713          	andi	a4,a0,191
200003aa:	47ad                	li	a5,11
200003ac:	89aa                	mv	s3,a0
200003ae:	892e                	mv	s2,a1
200003b0:	4495                	li	s1,5
200003b2:	00f70663          	beq	a4,a5,200003be <FLASH_ROM_ADDR+0x22>
200003b6:	4519                	li	a0,6
200003b8:	3765                	jal	20000360 <FLASH_ROM_BEG>
200003ba:	3f65                	jal	20000372 <FLASH_ROM_END>
200003bc:	448d                	li	s1,3
200003be:	854e                	mv	a0,s3
200003c0:	3745                	jal	20000360 <FLASH_ROM_BEG>
200003c2:	59fd                	li	s3,-1
200003c4:	14fd                	addi	s1,s1,-1
200003c6:	01349863          	bne	s1,s3,200003d6 <FLASH_ROM_ADDR+0x3a>
200003ca:	40b2                	lw	ra,12(sp)
200003cc:	44a2                	lw	s1,8(sp)
200003ce:	4912                	lw	s2,4(sp)
200003d0:	4982                	lw	s3,0(sp)
200003d2:	0141                	addi	sp,sp,16
200003d4:	8082                	ret
200003d6:	01095513          	srli	a0,s2,0x10
200003da:	0ff57513          	andi	a0,a0,255
200003de:	3f45                	jal	2000038e <FLASH_ROM_OUT>
200003e0:	0922                	slli	s2,s2,0x8
200003e2:	b7cd                	j	200003c4 <FLASH_ROM_ADDR+0x28>

200003e4 <FLASH_ROM_WAIT>:
FLASH_ROM_WAIT():
200003e4:	1101                	addi	sp,sp,-32
200003e6:	cc26                	sw	s1,24(sp)
200003e8:	ce06                	sw	ra,28(sp)
200003ea:	000804b7          	lui	s1,0x80
200003ee:	3751                	jal	20000372 <FLASH_ROM_END>
200003f0:	4515                	li	a0,5
200003f2:	37bd                	jal	20000360 <FLASH_ROM_BEG>
200003f4:	3771                	jal	20000380 <FLASH_ROM_IN>
200003f6:	3769                	jal	20000380 <FLASH_ROM_IN>
200003f8:	c62a                	sw	a0,12(sp)
200003fa:	3fa5                	jal	20000372 <FLASH_ROM_END>
200003fc:	4532                	lw	a0,12(sp)
200003fe:	00157793          	andi	a5,a0,1
20000402:	eb89                	bnez	a5,20000414 <FLASH_ROM_WAIT+0x30>
20000404:	00156513          	ori	a0,a0,1
20000408:	0ff57513          	andi	a0,a0,255
2000040c:	40f2                	lw	ra,28(sp)
2000040e:	44e2                	lw	s1,24(sp)
20000410:	6105                	addi	sp,sp,32
20000412:	8082                	ret
20000414:	14fd                	addi	s1,s1,-1
20000416:	fce9                	bnez	s1,200003f0 <FLASH_ROM_WAIT+0xc>
20000418:	4501                	li	a0,0
2000041a:	bfcd                	j	2000040c <FLASH_ROM_WAIT+0x28>

2000041c <FLASH_EEPROM_CMD>:
FLASH_EEPROM_CMD():
2000041c:	7139                	addi	sp,sp,-64
2000041e:	dc26                	sw	s1,56(sp)
20000420:	da4a                	sw	s2,52(sp)
20000422:	d84e                	sw	s3,48(sp)
20000424:	d652                	sw	s4,44(sp)
20000426:	d456                	sw	s5,40(sp)
20000428:	d25a                	sw	s6,36(sp)
2000042a:	d05e                	sw	s7,32(sp)
2000042c:	de06                	sw	ra,60(sp)
2000042e:	ce62                	sw	s8,28(sp)
20000430:	cc66                	sw	s9,24(sp)
20000432:	e000e7b7          	lui	a5,0xe000e
20000436:	577d                	li	a4,-1
20000438:	0007aa83          	lw	s5,0(a5) # e000e000 <_eusrstack+0xc0007800>
2000043c:	c622                	sw	s0,12(sp)
2000043e:	0047aa03          	lw	s4,4(a5)
20000442:	18e7a023          	sw	a4,384(a5)
20000446:	18e7a223          	sw	a4,388(a5)
2000044a:	400017b7          	lui	a5,0x40001
2000044e:	05700713          	li	a4,87
20000452:	04e78023          	sb	a4,64(a5) # 40001040 <_eusrstack+0x1fffa840>
20000456:	fa800713          	li	a4,-88
2000045a:	04e78023          	sb	a4,64(a5)
2000045e:	0447c783          	lbu	a5,68(a5)
20000462:	ff750b93          	addi	s7,a0,-9
20000466:	84b6                	mv	s1,a3
20000468:	07e2                	slli	a5,a5,0x18
2000046a:	0ffbfb93          	andi	s7,s7,255
2000046e:	4685                	li	a3,1
20000470:	89aa                	mv	s3,a0
20000472:	8b2e                	mv	s6,a1
20000474:	8932                	mv	s2,a2
20000476:	40002437          	lui	s0,0x40002
2000047a:	87e1                	srai	a5,a5,0x18
2000047c:	5701                	li	a4,-32
2000047e:	0176fa63          	bgeu	a3,s7,20000492 <FLASH_EEPROM_CMD+0x76>
20000482:	00d50863          	beq	a0,a3,20000492 <FLASH_EEPROM_CMD+0x76>
20000486:	4689                	li	a3,2
20000488:	02000713          	li	a4,32
2000048c:	00d51363          	bne	a0,a3,20000492 <FLASH_EEPROM_CMD+0x76>
20000490:	5701                	li	a4,-32
20000492:	8fd9                	or	a5,a5,a4
20000494:	0ff7f793          	andi	a5,a5,255
20000498:	40001cb7          	lui	s9,0x40001
2000049c:	04fc8223          	sb	a5,68(s9) # 40001044 <_eusrstack+0x1fffa844>
200004a0:	4711                	li	a4,4
200004a2:	80e40323          	sb	a4,-2042(s0) # 40001806 <_eusrstack+0x1fffb006>
200004a6:	0ff00513          	li	a0,255
200004aa:	3d5d                	jal	20000360 <FLASH_ROM_BEG>
200004ac:	4c09                	li	s8,2
200004ae:	35d1                	jal	20000372 <FLASH_ROM_END>
200004b0:	117c6d63          	bltu	s8,s7,200005ca <FLASH_EEPROM_CMD+0x1ae>
200004b4:	000705b7          	lui	a1,0x70
200004b8:	95da                	add	a1,a1,s6
200004ba:	00078737          	lui	a4,0x78
200004be:	5579                	li	a0,-2
200004c0:	04e5f263          	bgeu	a1,a4,20000504 <FLASH_EEPROM_CMD+0xe8>
200004c4:	009587b3          	add	a5,a1,s1
200004c8:	02f76e63          	bltu	a4,a5,20000504 <FLASH_EEPROM_CMD+0xe8>
200004cc:	00080b37          	lui	s6,0x80
200004d0:	47a9                	li	a5,10
200004d2:	0165eb33          	or	s6,a1,s6
200004d6:	06f99963          	bne	s3,a5,20000548 <FLASH_EEPROM_CMD+0x12c>
200004da:	e489                	bnez	s1,200004e4 <FLASH_EEPROM_CMD+0xc8>
200004dc:	4481                	li	s1,0
200004de:	3d51                	jal	20000372 <FLASH_ROM_END>
200004e0:	8526                	mv	a0,s1
200004e2:	a00d                	j	20000504 <FLASH_EEPROM_CMD+0xe8>
200004e4:	85da                	mv	a1,s6
200004e6:	4509                	li	a0,2
200004e8:	3d55                	jal	2000039c <FLASH_ROM_ADDR>
200004ea:	0905                	addi	s2,s2,1
200004ec:	fff94503          	lbu	a0,-1(s2)
200004f0:	14fd                	addi	s1,s1,-1
200004f2:	0b05                	addi	s6,s6,1
200004f4:	3d69                	jal	2000038e <FLASH_ROM_OUT>
200004f6:	c481                	beqz	s1,200004fe <FLASH_EEPROM_CMD+0xe2>
200004f8:	0ffb7793          	andi	a5,s6,255
200004fc:	f7fd                	bnez	a5,200004ea <FLASH_EEPROM_CMD+0xce>
200004fe:	35dd                	jal	200003e4 <FLASH_ROM_WAIT>
20000500:	fd69                	bnez	a0,200004da <FLASH_EEPROM_CMD+0xbe>
20000502:	557d                	li	a0,-1
20000504:	400017b7          	lui	a5,0x40001
20000508:	05700713          	li	a4,87
2000050c:	04e78023          	sb	a4,64(a5) # 40001040 <_eusrstack+0x1fffa840>
20000510:	fa800713          	li	a4,-88
20000514:	04e78023          	sb	a4,64(a5)
20000518:	0447c703          	lbu	a4,68(a5)
2000051c:	8b41                	andi	a4,a4,16
2000051e:	04e78223          	sb	a4,68(a5)
20000522:	50f2                	lw	ra,60(sp)
20000524:	e000e7b7          	lui	a5,0xe000e
20000528:	1157a023          	sw	s5,256(a5) # e000e100 <_eusrstack+0xc0007900>
2000052c:	1147a223          	sw	s4,260(a5)
20000530:	54e2                	lw	s1,56(sp)
20000532:	4432                	lw	s0,12(sp)
20000534:	5952                	lw	s2,52(sp)
20000536:	59c2                	lw	s3,48(sp)
20000538:	5a32                	lw	s4,44(sp)
2000053a:	5aa2                	lw	s5,40(sp)
2000053c:	5b12                	lw	s6,36(sp)
2000053e:	5b82                	lw	s7,32(sp)
20000540:	4c72                	lw	s8,28(sp)
20000542:	4ce2                	lw	s9,24(sp)
20000544:	6121                	addi	sp,sp,64
20000546:	8082                	ret
20000548:	47a5                	li	a5,9
2000054a:	06f99563          	bne	s3,a5,200005b4 <FLASH_EEPROM_CMD+0x198>
2000054e:	6985                	lui	s3,0x1
20000550:	0ff00913          	li	s2,255
20000554:	009906b3          	add	a3,s2,s1
20000558:	012b74b3          	and	s1,s6,s2
2000055c:	94b6                	add	s1,s1,a3
2000055e:	fff94913          	not	s2,s2
20000562:	009974b3          	and	s1,s2,s1
20000566:	6b85                	lui	s7,0x1
20000568:	01697933          	and	s2,s2,s6
2000056c:	6b41                	lui	s6,0x10
2000056e:	fff98793          	addi	a5,s3,-1 # fff <OLED_Init+0x71d>
20000572:	0127f7b3          	and	a5,a5,s2
20000576:	e399                	bnez	a5,2000057c <FLASH_EEPROM_CMD+0x160>
20000578:	0134fc63          	bgeu	s1,s3,20000590 <FLASH_EEPROM_CMD+0x174>
2000057c:	0049d993          	srli	s3,s3,0x4
20000580:	47c1                	li	a5,16
20000582:	ff37e6e3          	bltu	a5,s3,2000056e <FLASH_EEPROM_CMD+0x152>
20000586:	bf99                	j	200004dc <FLASH_EEPROM_CMD+0xc0>
20000588:	6905                	lui	s2,0x1
2000058a:	69c1                	lui	s3,0x10
2000058c:	197d                	addi	s2,s2,-1
2000058e:	b7d9                	j	20000554 <FLASH_EEPROM_CMD+0x138>
20000590:	0d800513          	li	a0,216
20000594:	01698863          	beq	s3,s6,200005a4 <FLASH_EEPROM_CMD+0x188>
20000598:	02000513          	li	a0,32
2000059c:	01798463          	beq	s3,s7,200005a4 <FLASH_EEPROM_CMD+0x188>
200005a0:	08100513          	li	a0,129
200005a4:	85ca                	mv	a1,s2
200005a6:	3bdd                	jal	2000039c <FLASH_ROM_ADDR>
200005a8:	3d35                	jal	200003e4 <FLASH_ROM_WAIT>
200005aa:	dd21                	beqz	a0,20000502 <FLASH_EEPROM_CMD+0xe6>
200005ac:	994e                	add	s2,s2,s3
200005ae:	413484b3          	sub	s1,s1,s3
200005b2:	b7d9                	j	20000578 <FLASH_EEPROM_CMD+0x15c>
200005b4:	85da                	mv	a1,s6
200005b6:	452d                	li	a0,11
200005b8:	33d5                	jal	2000039c <FLASH_ROM_ADDR>
200005ba:	94ca                	add	s1,s1,s2
200005bc:	f29900e3          	beq	s2,s1,200004dc <FLASH_EEPROM_CMD+0xc0>
200005c0:	0905                	addi	s2,s2,1
200005c2:	3b7d                	jal	20000380 <FLASH_ROM_IN>
200005c4:	fea90fa3          	sb	a0,-1(s2) # fff <OLED_Init+0x71d>
200005c8:	bfd5                	j	200005bc <FLASH_EEPROM_CMD+0x1a0>
200005ca:	fff98793          	addi	a5,s3,-1 # ffff <_data_lma+0x9207>
200005ce:	0ff7f793          	andi	a5,a5,255
200005d2:	0cfc6163          	bltu	s8,a5,20000694 <.loop402+0x7a>
200005d6:	041cc783          	lbu	a5,65(s9)
200005da:	08300713          	li	a4,131
200005de:	04f71f63          	bne	a4,a5,2000063c <.loop402+0x22>
200005e2:	00080737          	lui	a4,0x80
200005e6:	04eb6b63          	bltu	s6,a4,2000063c <.loop402+0x22>
200005ea:	009b07b3          	add	a5,s6,s1
200005ee:	001006b7          	lui	a3,0x100
200005f2:	04d7f563          	bgeu	a5,a3,2000063c <.loop402+0x22>
200005f6:	00eb4b33          	xor	s6,s6,a4
200005fa:	4789                	li	a5,2
200005fc:	06f99363          	bne	s3,a5,20000662 <.loop402+0x48>
20000600:	8089                	srli	s1,s1,0x2
20000602:	49d5                	li	s3,21
20000604:	ec048ce3          	beqz	s1,200004dc <FLASH_EEPROM_CMD+0xc0>
20000608:	85da                	mv	a1,s6
2000060a:	4509                	li	a0,2
2000060c:	3b41                	jal	2000039c <FLASH_ROM_ADDR>
2000060e:	0911                	addi	s2,s2,4
20000610:	ffc92703          	lw	a4,-4(s2)
20000614:	4791                	li	a5,4
20000616:	80e42023          	sw	a4,-2048(s0)

2000061a <.loop402>:
2000061a:	80640703          	lb	a4,-2042(s0)
2000061e:	fe074ee3          	bltz	a4,2000061a <.loop402>
20000622:	81340323          	sb	s3,-2042(s0)
20000626:	17fd                	addi	a5,a5,-1
20000628:	fbed                	bnez	a5,2000061a <.loop402>
2000062a:	14fd                	addi	s1,s1,-1
2000062c:	0b11                	addi	s6,s6,4
2000062e:	c481                	beqz	s1,20000636 <.loop402+0x1c>
20000630:	0ffb7793          	andi	a5,s6,255
20000634:	ffe9                	bnez	a5,2000060e <FLASH_EEPROM_CMD+0x1f2>
20000636:	337d                	jal	200003e4 <FLASH_ROM_WAIT>
20000638:	f571                	bnez	a0,20000604 <FLASH_EEPROM_CMD+0x1e8>
2000063a:	b5e1                	j	20000502 <FLASH_EEPROM_CMD+0xe6>
2000063c:	400017b7          	lui	a5,0x40001
20000640:	0457c703          	lbu	a4,69(a5) # 40001045 <_eusrstack+0x1fffa845>
20000644:	000807b7          	lui	a5,0x80
20000648:	02077713          	andi	a4,a4,32
2000064c:	e319                	bnez	a4,20000652 <.loop402+0x38>
2000064e:	000787b7          	lui	a5,0x78
20000652:	5579                	li	a0,-2
20000654:	eafb78e3          	bgeu	s6,a5,20000504 <FLASH_EEPROM_CMD+0xe8>
20000658:	009b0733          	add	a4,s6,s1
2000065c:	f8e7ffe3          	bgeu	a5,a4,200005fa <FLASH_EEPROM_CMD+0x1de>
20000660:	b555                	j	20000504 <FLASH_EEPROM_CMD+0xe8>
20000662:	4785                	li	a5,1
20000664:	f2f982e3          	beq	s3,a5,20000588 <FLASH_EEPROM_CMD+0x16c>
20000668:	85da                	mv	a1,s6
2000066a:	452d                	li	a0,11
2000066c:	3b05                	jal	2000039c <FLASH_ROM_ADDR>
2000066e:	fff48993          	addi	s3,s1,-1 # 7ffff <_data_lma+0x79207>
20000672:	e60485e3          	beqz	s1,200004dc <FLASH_EEPROM_CMD+0xc0>
20000676:	3329                	jal	20000380 <FLASH_ROM_IN>
20000678:	0039f793          	andi	a5,s3,3
2000067c:	eb91                	bnez	a5,20000690 <.loop402+0x76>
2000067e:	80042683          	lw	a3,-2048(s0)
20000682:	00092703          	lw	a4,0(s2)
20000686:	00490793          	addi	a5,s2,4
2000068a:	e4e69ae3          	bne	a3,a4,200004de <FLASH_EEPROM_CMD+0xc2>
2000068e:	893e                	mv	s2,a5
20000690:	84ce                	mv	s1,s3
20000692:	bff1                	j	2000066e <.loop402+0x54>
20000694:	47b5                	li	a5,13
20000696:	00f99663          	bne	s3,a5,200006a2 <.loop402+0x88>
2000069a:	0b900513          	li	a0,185
2000069e:	31c9                	jal	20000360 <FLASH_ROM_BEG>
200006a0:	bd35                	j	200004dc <FLASH_EEPROM_CMD+0xc0>
200006a2:	47b1                	li	a5,12
200006a4:	0ab00513          	li	a0,171
200006a8:	fef98be3          	beq	s3,a5,2000069e <.loop402+0x84>
200006ac:	4799                	li	a5,6
200006ae:	04f99163          	bne	s3,a5,200006f0 <.loop402+0xd6>
200006b2:	000805b7          	lui	a1,0x80
200006b6:	00bb65b3          	or	a1,s6,a1
200006ba:	452d                	li	a0,11
200006bc:	31c5                	jal	2000039c <FLASH_ROM_ADDR>
200006be:	4481                	li	s1,0
200006c0:	4b8d                	li	s7,3
200006c2:	49a1                	li	s3,8
200006c4:	3975                	jal	20000380 <FLASH_ROM_IN>
200006c6:	01749663          	bne	s1,s7,200006d2 <.loop402+0xb8>
200006ca:	80042783          	lw	a5,-2048(s0)
200006ce:	00f92023          	sw	a5,0(s2)
200006d2:	0485                	addi	s1,s1,1
200006d4:	ff3498e3          	bne	s1,s3,200006c4 <.loop402+0xaa>
200006d8:	80042783          	lw	a5,-2048(s0)
200006dc:	012b1713          	slli	a4,s6,0x12
200006e0:	00075563          	bgez	a4,200006ea <.loop402+0xd0>
200006e4:	00f91223          	sh	a5,4(s2)
200006e8:	bbd5                	j	200004dc <FLASH_EEPROM_CMD+0xc0>
200006ea:	00f92223          	sw	a5,4(s2)
200006ee:	b3fd                	j	200004dc <FLASH_EEPROM_CMD+0xc0>
200006f0:	479d                	li	a5,7
200006f2:	02f99963          	bne	s3,a5,20000724 <.loop402+0x10a>
200006f6:	4581                	li	a1,0
200006f8:	04b00513          	li	a0,75
200006fc:	3145                	jal	2000039c <FLASH_ROM_ADDR>
200006fe:	44bd                	li	s1,15
20000700:	00092023          	sw	zero,0(s2)
20000704:	00092223          	sw	zero,4(s2)
20000708:	59fd                	li	s3,-1
2000070a:	399d                	jal	20000380 <FLASH_ROM_IN>
2000070c:	0074f793          	andi	a5,s1,7
20000710:	97ca                	add	a5,a5,s2
20000712:	0007c703          	lbu	a4,0(a5) # 78000 <_data_lma+0x71208>
20000716:	14fd                	addi	s1,s1,-1
20000718:	8d39                	xor	a0,a0,a4
2000071a:	00a78023          	sb	a0,0(a5)
2000071e:	ff3496e3          	bne	s1,s3,2000070a <.loop402+0xf0>
20000722:	bb6d                	j	200004dc <FLASH_EEPROM_CMD+0xc0>
20000724:	47a1                	li	a5,8
20000726:	04f99263          	bne	s3,a5,2000076a <.loop402+0x150>
2000072a:	396d                	jal	200003e4 <FLASH_ROM_WAIT>
2000072c:	4481                	li	s1,0
2000072e:	000b0d63          	beqz	s6,20000748 <.loop402+0x12e>
20000732:	478d                	li	a5,3
20000734:	03c00493          	li	s1,60
20000738:	00fb0863          	beq	s6,a5,20000748 <.loop402+0x12e>
2000073c:	05000493          	li	s1,80
20000740:	018b0463          	beq	s6,s8,20000748 <.loop402+0x12e>
20000744:	04400493          	li	s1,68
20000748:	07c57513          	andi	a0,a0,124
2000074c:	d89508e3          	beq	a0,s1,200004dc <FLASH_EEPROM_CMD+0xc0>
20000750:	4519                	li	a0,6
20000752:	3139                	jal	20000360 <FLASH_ROM_BEG>
20000754:	3939                	jal	20000372 <FLASH_ROM_END>
20000756:	4505                	li	a0,1
20000758:	3121                	jal	20000360 <FLASH_ROM_BEG>
2000075a:	8526                	mv	a0,s1
2000075c:	390d                	jal	2000038e <FLASH_ROM_OUT>
2000075e:	4509                	li	a0,2
20000760:	313d                	jal	2000038e <FLASH_ROM_OUT>
20000762:	3149                	jal	200003e4 <FLASH_ROM_WAIT>
20000764:	d6051ce3          	bnez	a0,200004dc <FLASH_EEPROM_CMD+0xc0>
20000768:	bb69                	j	20000502 <FLASH_EEPROM_CMD+0xe6>
2000076a:	4791                	li	a5,4
2000076c:	00f99963          	bne	s3,a5,2000077e <.loop402+0x164>
20000770:	06600513          	li	a0,102
20000774:	36f5                	jal	20000360 <FLASH_ROM_BEG>
20000776:	3ef5                	jal	20000372 <FLASH_ROM_END>
20000778:	09900513          	li	a0,153
2000077c:	b70d                	j	2000069e <.loop402+0x84>
2000077e:	d4098fe3          	beqz	s3,200004dc <FLASH_EEPROM_CMD+0xc0>
20000782:	54f1                	li	s1,-4
20000784:	bba9                	j	200004de <FLASH_EEPROM_CMD+0xc2>
	...

Disassembly of section .text:

00000790 <handle_reset>:
handle_reset():
C:\MRS_DATA\workspace\CH592F_SSD1306\obj/../Startup/startup_CH592.S:127
	.weak	handle_reset
	.align	1
handle_reset:
.option push 
.option	norelax 
	la gp, __global_pointer$
     790:	20001197          	auipc	gp,0x20001
     794:	8d018193          	addi	gp,gp,-1840 # 20001060 <__global_pointer$>
C:\MRS_DATA\workspace\CH592F_SSD1306\obj/../Startup/startup_CH592.S:130
.option	pop 
1:
	la sp, _eusrstack 
     798:	20006117          	auipc	sp,0x20006
     79c:	06810113          	addi	sp,sp,104 # 20006800 <_eusrstack>
C:\MRS_DATA\workspace\CH592F_SSD1306\obj/../Startup/startup_CH592.S:134

/* Load highcode code  section from flash to RAM */
2:
    la a0, _highcode_lma
     7a0:	00400513          	li	a0,4
C:\MRS_DATA\workspace\CH592F_SSD1306\obj/../Startup/startup_CH592.S:135
    la a1, _highcode_vma_start
     7a4:	20000597          	auipc	a1,0x20000
     7a8:	85c58593          	addi	a1,a1,-1956 # 20000000 <_highcode_vma_start>
C:\MRS_DATA\workspace\CH592F_SSD1306\obj/../Startup/startup_CH592.S:136
    la a2, _highcode_vma_end
     7ac:	20000617          	auipc	a2,0x20000
     7b0:	fdc60613          	addi	a2,a2,-36 # 20000788 <_highcode_vma_end>
C:\MRS_DATA\workspace\CH592F_SSD1306\obj/../Startup/startup_CH592.S:137
    bgeu a1, a2, 2f
     7b4:	00c5fa63          	bgeu	a1,a2,7c8 <handle_reset+0x38>
C:\MRS_DATA\workspace\CH592F_SSD1306\obj/../Startup/startup_CH592.S:139
1:
    lw t0, (a0)
     7b8:	00052283          	lw	t0,0(a0)
C:\MRS_DATA\workspace\CH592F_SSD1306\obj/../Startup/startup_CH592.S:140
    sw t0, (a1)
     7bc:	0055a023          	sw	t0,0(a1)
C:\MRS_DATA\workspace\CH592F_SSD1306\obj/../Startup/startup_CH592.S:141
    addi a0, a0, 4
     7c0:	0511                	addi	a0,a0,4
C:\MRS_DATA\workspace\CH592F_SSD1306\obj/../Startup/startup_CH592.S:142
    addi a1, a1, 4
     7c2:	0591                	addi	a1,a1,4
C:\MRS_DATA\workspace\CH592F_SSD1306\obj/../Startup/startup_CH592.S:143
    bltu a1, a2, 1b
     7c4:	fec5eae3          	bltu	a1,a2,7b8 <handle_reset+0x28>
C:\MRS_DATA\workspace\CH592F_SSD1306\obj/../Startup/startup_CH592.S:147

/* Load data section from flash to RAM */
2:
	la a0, _data_lma
     7c8:	00006517          	auipc	a0,0x6
     7cc:	63050513          	addi	a0,a0,1584 # 6df8 <_data_lma>
C:\MRS_DATA\workspace\CH592F_SSD1306\obj/../Startup/startup_CH592.S:148
	la a1, _data_vma
     7d0:	20000597          	auipc	a1,0x20000
     7d4:	03058593          	addi	a1,a1,48 # 20000800 <_data_vma>
C:\MRS_DATA\workspace\CH592F_SSD1306\obj/../Startup/startup_CH592.S:149
	la a2, _edata
     7d8:	80818613          	addi	a2,gp,-2040 # 20000868 <_edata>
C:\MRS_DATA\workspace\CH592F_SSD1306\obj/../Startup/startup_CH592.S:150
	bgeu a1, a2, 2f
     7dc:	00c5fa63          	bgeu	a1,a2,7f0 <handle_reset+0x60>
C:\MRS_DATA\workspace\CH592F_SSD1306\obj/../Startup/startup_CH592.S:152
1:
	lw t0, (a0)
     7e0:	00052283          	lw	t0,0(a0)
C:\MRS_DATA\workspace\CH592F_SSD1306\obj/../Startup/startup_CH592.S:153
	sw t0, (a1)
     7e4:	0055a023          	sw	t0,0(a1)
C:\MRS_DATA\workspace\CH592F_SSD1306\obj/../Startup/startup_CH592.S:154
	addi a0, a0, 4
     7e8:	0511                	addi	a0,a0,4
C:\MRS_DATA\workspace\CH592F_SSD1306\obj/../Startup/startup_CH592.S:155
	addi a1, a1, 4
     7ea:	0591                	addi	a1,a1,4
C:\MRS_DATA\workspace\CH592F_SSD1306\obj/../Startup/startup_CH592.S:156
	bltu a1, a2, 1b
     7ec:	fec5eae3          	bltu	a1,a2,7e0 <handle_reset+0x50>
C:\MRS_DATA\workspace\CH592F_SSD1306\obj/../Startup/startup_CH592.S:159
2:
	/* clear bss section */
	la a0, _sbss
     7f0:	80818513          	addi	a0,gp,-2040 # 20000868 <_edata>
C:\MRS_DATA\workspace\CH592F_SSD1306\obj/../Startup/startup_CH592.S:160
	la a1, _ebss
     7f4:	8bc18593          	addi	a1,gp,-1860 # 2000091c <_ebss>
C:\MRS_DATA\workspace\CH592F_SSD1306\obj/../Startup/startup_CH592.S:161
	bgeu a0, a1, 2f
     7f8:	00b57763          	bgeu	a0,a1,806 <handle_reset+0x76>
C:\MRS_DATA\workspace\CH592F_SSD1306\obj/../Startup/startup_CH592.S:163
1:
	sw zero, (a0)
     7fc:	00052023          	sw	zero,0(a0)
C:\MRS_DATA\workspace\CH592F_SSD1306\obj/../Startup/startup_CH592.S:164
	addi a0, a0, 4
     800:	0511                	addi	a0,a0,4
C:\MRS_DATA\workspace\CH592F_SSD1306\obj/../Startup/startup_CH592.S:165
	bltu a0, a1, 1b
     802:	feb56de3          	bltu	a0,a1,7fc <handle_reset+0x6c>
C:\MRS_DATA\workspace\CH592F_SSD1306\obj/../Startup/startup_CH592.S:168
2:
	/* 流水线控制位 & 动态预测控制位 */
	li t0, 0x1f
     806:	42fd                	li	t0,31
C:\MRS_DATA\workspace\CH592F_SSD1306\obj/../Startup/startup_CH592.S:169
	csrw 0xbc0, t0
     808:	bc029073          	csrw	0xbc0,t0
C:\MRS_DATA\workspace\CH592F_SSD1306\obj/../Startup/startup_CH592.S:171
	/* 打开嵌套中断、硬件压栈功能 */
	li t0, 0x3
     80c:	428d                	li	t0,3
C:\MRS_DATA\workspace\CH592F_SSD1306\obj/../Startup/startup_CH592.S:172
	csrw 0x804, t0
     80e:	80429073          	csrw	0x804,t0
C:\MRS_DATA\workspace\CH592F_SSD1306\obj/../Startup/startup_CH592.S:174
	
    li t0, 0x88
     812:	08800293          	li	t0,136
C:\MRS_DATA\workspace\CH592F_SSD1306\obj/../Startup/startup_CH592.S:175
    csrw mstatus, t0
     816:	30029073          	csrw	mstatus,t0
C:\MRS_DATA\workspace\CH592F_SSD1306\obj/../Startup/startup_CH592.S:176
	la t0, _vector_base
     81a:	1ffff297          	auipc	t0,0x1ffff
     81e:	7e628293          	addi	t0,t0,2022 # 20000000 <_highcode_vma_start>
C:\MRS_DATA\workspace\CH592F_SSD1306\obj/../Startup/startup_CH592.S:179

	/* 配置向量表模式为绝对地址模式 */
    ori t0, t0, 3
     822:	0032e293          	ori	t0,t0,3
C:\MRS_DATA\workspace\CH592F_SSD1306\obj/../Startup/startup_CH592.S:180
	csrw mtvec, t0
     826:	30529073          	csrw	mtvec,t0
C:\MRS_DATA\workspace\CH592F_SSD1306\obj/../Startup/startup_CH592.S:182

	la t0, main
     82a:	00001297          	auipc	t0,0x1
     82e:	52a28293          	addi	t0,t0,1322 # 1d54 <main>
C:\MRS_DATA\workspace\CH592F_SSD1306\obj/../Startup/startup_CH592.S:183
	csrw mepc, t0
     832:	34129073          	csrw	mepc,t0
C:\MRS_DATA\workspace\CH592F_SSD1306\obj/../Startup/startup_CH592.S:185
	
	mret
     836:	30200073          	mret

0000083a <memset>:
memset():
     83a:	433d                	li	t1,15
     83c:	872a                	mv	a4,a0
     83e:	02c37363          	bgeu	t1,a2,864 <memset+0x2a>
     842:	00f77793          	andi	a5,a4,15
     846:	efbd                	bnez	a5,8c4 <memset+0x8a>
     848:	e5ad                	bnez	a1,8b2 <memset+0x78>
     84a:	ff067693          	andi	a3,a2,-16
     84e:	8a3d                	andi	a2,a2,15
     850:	96ba                	add	a3,a3,a4
     852:	c30c                	sw	a1,0(a4)
     854:	c34c                	sw	a1,4(a4)
     856:	c70c                	sw	a1,8(a4)
     858:	c74c                	sw	a1,12(a4)
     85a:	0741                	addi	a4,a4,16
     85c:	fed76be3          	bltu	a4,a3,852 <memset+0x18>
     860:	e211                	bnez	a2,864 <memset+0x2a>
     862:	8082                	ret
     864:	40c306b3          	sub	a3,t1,a2
     868:	068a                	slli	a3,a3,0x2
     86a:	00000297          	auipc	t0,0x0
     86e:	9696                	add	a3,a3,t0
     870:	00a68067          	jr	10(a3) # 10000a <_data_lma+0xf9212>
     874:	00b70723          	sb	a1,14(a4) # 8000e <_data_lma+0x79216>
     878:	00b706a3          	sb	a1,13(a4)
     87c:	00b70623          	sb	a1,12(a4)
     880:	00b705a3          	sb	a1,11(a4)
     884:	00b70523          	sb	a1,10(a4)
     888:	00b704a3          	sb	a1,9(a4)
     88c:	00b70423          	sb	a1,8(a4)
     890:	00b703a3          	sb	a1,7(a4)
     894:	00b70323          	sb	a1,6(a4)
     898:	00b702a3          	sb	a1,5(a4)
     89c:	00b70223          	sb	a1,4(a4)
     8a0:	00b701a3          	sb	a1,3(a4)
     8a4:	00b70123          	sb	a1,2(a4)
     8a8:	00b700a3          	sb	a1,1(a4)
     8ac:	00b70023          	sb	a1,0(a4)
     8b0:	8082                	ret
     8b2:	0ff5f593          	andi	a1,a1,255
     8b6:	00859693          	slli	a3,a1,0x8
     8ba:	8dd5                	or	a1,a1,a3
     8bc:	01059693          	slli	a3,a1,0x10
     8c0:	8dd5                	or	a1,a1,a3
     8c2:	b761                	j	84a <memset+0x10>
     8c4:	00279693          	slli	a3,a5,0x2
     8c8:	00000297          	auipc	t0,0x0
     8cc:	9696                	add	a3,a3,t0
     8ce:	8286                	mv	t0,ra
     8d0:	fa8680e7          	jalr	-88(a3)
     8d4:	8096                	mv	ra,t0
     8d6:	17c1                	addi	a5,a5,-16
     8d8:	8f1d                	sub	a4,a4,a5
     8da:	963e                	add	a2,a2,a5
     8dc:	f8c374e3          	bgeu	t1,a2,864 <memset+0x2a>
     8e0:	b7a5                	j	848 <memset+0xe>

000008e2 <OLED_Init>:
OLED_Init():
C:\MRS_DATA\workspace\CH592F_SSD1306\obj/../src/ssd1306/renderer.c:52
    while (!I2C_CheckEvent(I2C_EVENT_MASTER_BYTE_TRANSMITTED));
    I2C_GenerateSTOP(ENABLE);
}

int OLED_Init(void) {
    if ((!buffer) && !(buffer = (uint8_t *)malloc(OLED_WIDTH * ((OLED_HEIGHT + 7) / 8)))) {
     8e2:	80818793          	addi	a5,gp,-2040 # 20000868 <_edata>
     8e6:	439c                	lw	a5,0(a5)
C:\MRS_DATA\workspace\CH592F_SSD1306\obj/../src/ssd1306/renderer.c:51
int OLED_Init(void) {
     8e8:	1141                	addi	sp,sp,-16
     8ea:	c606                	sw	ra,12(sp)
     8ec:	c422                	sw	s0,8(sp)
C:\MRS_DATA\workspace\CH592F_SSD1306\obj/../src/ssd1306/renderer.c:52
    if ((!buffer) && !(buffer = (uint8_t *)malloc(OLED_WIDTH * ((OLED_HEIGHT + 7) / 8)))) {
     8ee:	1e078ce3          	beqz	a5,12e6 <OLED_Init+0xa04>
I2C_WriteCommand():
C:\MRS_DATA\workspace\CH592F_SSD1306\obj/../src/ssd1306/renderer.c:28
    I2C_GenerateSTART(ENABLE);
     8f2:	4505                	li	a0,1
C:\MRS_DATA\workspace\CH592F_SSD1306\obj/../src/ssd1306/renderer.c:29
    while (!I2C_CheckEvent(I2C_EVENT_MASTER_MODE_SELECT));
     8f4:	00030437          	lui	s0,0x30
C:\MRS_DATA\workspace\CH592F_SSD1306\obj/../src/ssd1306/renderer.c:28
    I2C_GenerateSTART(ENABLE);
     8f8:	383010ef          	jal	ra,247a <I2C_GenerateSTART>
C:\MRS_DATA\workspace\CH592F_SSD1306\obj/../src/ssd1306/renderer.c:29
    while (!I2C_CheckEvent(I2C_EVENT_MASTER_MODE_SELECT));
     8fc:	0405                	addi	s0,s0,1
     8fe:	8522                	mv	a0,s0
     900:	3e9010ef          	jal	ra,24e8 <I2C_CheckEvent>
     904:	dd6d                	beqz	a0,8fe <OLED_Init+0x1c>
C:\MRS_DATA\workspace\CH592F_SSD1306\obj/../src/ssd1306/renderer.c:30
    I2C_Send7bitAddress(OLED_I2C_ADDR << 1, I2C_Direction_Transmitter);
     906:	4581                	li	a1,0
     908:	07800513          	li	a0,120
C:\MRS_DATA\workspace\CH592F_SSD1306\obj/../src/ssd1306/renderer.c:31
    while (!I2C_CheckEvent(I2C_EVENT_MASTER_TRANSMITTER_MODE_SELECTED));
     90c:	00070437          	lui	s0,0x70
C:\MRS_DATA\workspace\CH592F_SSD1306\obj/../src/ssd1306/renderer.c:30
    I2C_Send7bitAddress(OLED_I2C_ADDR << 1, I2C_Direction_Transmitter);
     910:	3c1010ef          	jal	ra,24d0 <I2C_Send7bitAddress>
C:\MRS_DATA\workspace\CH592F_SSD1306\obj/../src/ssd1306/renderer.c:31
    while (!I2C_CheckEvent(I2C_EVENT_MASTER_TRANSMITTER_MODE_SELECTED));
     914:	08240413          	addi	s0,s0,130 # 70082 <_data_lma+0x6928a>
     918:	8522                	mv	a0,s0
     91a:	3cf010ef          	jal	ra,24e8 <I2C_CheckEvent>
     91e:	dd6d                	beqz	a0,918 <OLED_Init+0x36>
C:\MRS_DATA\workspace\CH592F_SSD1306\obj/../src/ssd1306/renderer.c:32
    I2C_SendData(0x00);     // Command mode
     920:	4501                	li	a0,0
C:\MRS_DATA\workspace\CH592F_SSD1306\obj/../src/ssd1306/renderer.c:33
    while (!I2C_CheckEvent(I2C_EVENT_MASTER_BYTE_TRANSMITTED));
     922:	00070437          	lui	s0,0x70
C:\MRS_DATA\workspace\CH592F_SSD1306\obj/../src/ssd1306/renderer.c:32
    I2C_SendData(0x00);     // Command mode
     926:	3a1010ef          	jal	ra,24c6 <I2C_SendData>
C:\MRS_DATA\workspace\CH592F_SSD1306\obj/../src/ssd1306/renderer.c:33
    while (!I2C_CheckEvent(I2C_EVENT_MASTER_BYTE_TRANSMITTED));
     92a:	08440413          	addi	s0,s0,132 # 70084 <_data_lma+0x6928c>
     92e:	8522                	mv	a0,s0
     930:	3b9010ef          	jal	ra,24e8 <I2C_CheckEvent>
     934:	dd6d                	beqz	a0,92e <OLED_Init+0x4c>
C:\MRS_DATA\workspace\CH592F_SSD1306\obj/../src/ssd1306/renderer.c:34
    I2C_SendData(command);
     936:	0ae00513          	li	a0,174
C:\MRS_DATA\workspace\CH592F_SSD1306\obj/../src/ssd1306/renderer.c:35
    while (!I2C_CheckEvent(I2C_EVENT_MASTER_BYTE_TRANSMITTED));
     93a:	00070437          	lui	s0,0x70
C:\MRS_DATA\workspace\CH592F_SSD1306\obj/../src/ssd1306/renderer.c:34
    I2C_SendData(command);
     93e:	389010ef          	jal	ra,24c6 <I2C_SendData>
C:\MRS_DATA\workspace\CH592F_SSD1306\obj/../src/ssd1306/renderer.c:35
    while (!I2C_CheckEvent(I2C_EVENT_MASTER_BYTE_TRANSMITTED));
     942:	08440413          	addi	s0,s0,132 # 70084 <_data_lma+0x6928c>
     946:	8522                	mv	a0,s0
     948:	3a1010ef          	jal	ra,24e8 <I2C_CheckEvent>
     94c:	dd6d                	beqz	a0,946 <OLED_Init+0x64>
C:\MRS_DATA\workspace\CH592F_SSD1306\obj/../src/ssd1306/renderer.c:36
    I2C_GenerateSTOP(ENABLE);
     94e:	4505                	li	a0,1
     950:	351010ef          	jal	ra,24a0 <I2C_GenerateSTOP>
C:\MRS_DATA\workspace\CH592F_SSD1306\obj/../src/ssd1306/renderer.c:28
    I2C_GenerateSTART(ENABLE);
     954:	4505                	li	a0,1
C:\MRS_DATA\workspace\CH592F_SSD1306\obj/../src/ssd1306/renderer.c:29
    while (!I2C_CheckEvent(I2C_EVENT_MASTER_MODE_SELECT));
     956:	00030437          	lui	s0,0x30
C:\MRS_DATA\workspace\CH592F_SSD1306\obj/../src/ssd1306/renderer.c:28
    I2C_GenerateSTART(ENABLE);
     95a:	321010ef          	jal	ra,247a <I2C_GenerateSTART>
C:\MRS_DATA\workspace\CH592F_SSD1306\obj/../src/ssd1306/renderer.c:29
    while (!I2C_CheckEvent(I2C_EVENT_MASTER_MODE_SELECT));
     95e:	0405                	addi	s0,s0,1
     960:	8522                	mv	a0,s0
     962:	387010ef          	jal	ra,24e8 <I2C_CheckEvent>
     966:	dd6d                	beqz	a0,960 <OLED_Init+0x7e>
C:\MRS_DATA\workspace\CH592F_SSD1306\obj/../src/ssd1306/renderer.c:30
    I2C_Send7bitAddress(OLED_I2C_ADDR << 1, I2C_Direction_Transmitter);
     968:	4581                	li	a1,0
     96a:	07800513          	li	a0,120
C:\MRS_DATA\workspace\CH592F_SSD1306\obj/../src/ssd1306/renderer.c:31
    while (!I2C_CheckEvent(I2C_EVENT_MASTER_TRANSMITTER_MODE_SELECTED));
     96e:	00070437          	lui	s0,0x70
C:\MRS_DATA\workspace\CH592F_SSD1306\obj/../src/ssd1306/renderer.c:30
    I2C_Send7bitAddress(OLED_I2C_ADDR << 1, I2C_Direction_Transmitter);
     972:	35f010ef          	jal	ra,24d0 <I2C_Send7bitAddress>
C:\MRS_DATA\workspace\CH592F_SSD1306\obj/../src/ssd1306/renderer.c:31
    while (!I2C_CheckEvent(I2C_EVENT_MASTER_TRANSMITTER_MODE_SELECTED));
     976:	08240413          	addi	s0,s0,130 # 70082 <_data_lma+0x6928a>
     97a:	8522                	mv	a0,s0
     97c:	36d010ef          	jal	ra,24e8 <I2C_CheckEvent>
     980:	dd6d                	beqz	a0,97a <OLED_Init+0x98>
C:\MRS_DATA\workspace\CH592F_SSD1306\obj/../src/ssd1306/renderer.c:32
    I2C_SendData(0x00);     // Command mode
     982:	4501                	li	a0,0
C:\MRS_DATA\workspace\CH592F_SSD1306\obj/../src/ssd1306/renderer.c:33
    while (!I2C_CheckEvent(I2C_EVENT_MASTER_BYTE_TRANSMITTED));
     984:	00070437          	lui	s0,0x70
C:\MRS_DATA\workspace\CH592F_SSD1306\obj/../src/ssd1306/renderer.c:32
    I2C_SendData(0x00);     // Command mode
     988:	33f010ef          	jal	ra,24c6 <I2C_SendData>
C:\MRS_DATA\workspace\CH592F_SSD1306\obj/../src/ssd1306/renderer.c:33
    while (!I2C_CheckEvent(I2C_EVENT_MASTER_BYTE_TRANSMITTED));
     98c:	08440413          	addi	s0,s0,132 # 70084 <_data_lma+0x6928c>
     990:	8522                	mv	a0,s0
     992:	357010ef          	jal	ra,24e8 <I2C_CheckEvent>
     996:	dd6d                	beqz	a0,990 <OLED_Init+0xae>
C:\MRS_DATA\workspace\CH592F_SSD1306\obj/../src/ssd1306/renderer.c:34
    I2C_SendData(command);
     998:	0d500513          	li	a0,213
C:\MRS_DATA\workspace\CH592F_SSD1306\obj/../src/ssd1306/renderer.c:35
    while (!I2C_CheckEvent(I2C_EVENT_MASTER_BYTE_TRANSMITTED));
     99c:	00070437          	lui	s0,0x70
C:\MRS_DATA\workspace\CH592F_SSD1306\obj/../src/ssd1306/renderer.c:34
    I2C_SendData(command);
     9a0:	327010ef          	jal	ra,24c6 <I2C_SendData>
C:\MRS_DATA\workspace\CH592F_SSD1306\obj/../src/ssd1306/renderer.c:35
    while (!I2C_CheckEvent(I2C_EVENT_MASTER_BYTE_TRANSMITTED));
     9a4:	08440413          	addi	s0,s0,132 # 70084 <_data_lma+0x6928c>
     9a8:	8522                	mv	a0,s0
     9aa:	33f010ef          	jal	ra,24e8 <I2C_CheckEvent>
     9ae:	dd6d                	beqz	a0,9a8 <OLED_Init+0xc6>
C:\MRS_DATA\workspace\CH592F_SSD1306\obj/../src/ssd1306/renderer.c:36
    I2C_GenerateSTOP(ENABLE);
     9b0:	4505                	li	a0,1
     9b2:	2ef010ef          	jal	ra,24a0 <I2C_GenerateSTOP>
C:\MRS_DATA\workspace\CH592F_SSD1306\obj/../src/ssd1306/renderer.c:28
    I2C_GenerateSTART(ENABLE);
     9b6:	4505                	li	a0,1
C:\MRS_DATA\workspace\CH592F_SSD1306\obj/../src/ssd1306/renderer.c:29
    while (!I2C_CheckEvent(I2C_EVENT_MASTER_MODE_SELECT));
     9b8:	00030437          	lui	s0,0x30
C:\MRS_DATA\workspace\CH592F_SSD1306\obj/../src/ssd1306/renderer.c:28
    I2C_GenerateSTART(ENABLE);
     9bc:	2bf010ef          	jal	ra,247a <I2C_GenerateSTART>
C:\MRS_DATA\workspace\CH592F_SSD1306\obj/../src/ssd1306/renderer.c:29
    while (!I2C_CheckEvent(I2C_EVENT_MASTER_MODE_SELECT));
     9c0:	0405                	addi	s0,s0,1
     9c2:	8522                	mv	a0,s0
     9c4:	325010ef          	jal	ra,24e8 <I2C_CheckEvent>
     9c8:	dd6d                	beqz	a0,9c2 <OLED_Init+0xe0>
C:\MRS_DATA\workspace\CH592F_SSD1306\obj/../src/ssd1306/renderer.c:30
    I2C_Send7bitAddress(OLED_I2C_ADDR << 1, I2C_Direction_Transmitter);
     9ca:	4581                	li	a1,0
     9cc:	07800513          	li	a0,120
C:\MRS_DATA\workspace\CH592F_SSD1306\obj/../src/ssd1306/renderer.c:31
    while (!I2C_CheckEvent(I2C_EVENT_MASTER_TRANSMITTER_MODE_SELECTED));
     9d0:	00070437          	lui	s0,0x70
C:\MRS_DATA\workspace\CH592F_SSD1306\obj/../src/ssd1306/renderer.c:30
    I2C_Send7bitAddress(OLED_I2C_ADDR << 1, I2C_Direction_Transmitter);
     9d4:	2fd010ef          	jal	ra,24d0 <I2C_Send7bitAddress>
C:\MRS_DATA\workspace\CH592F_SSD1306\obj/../src/ssd1306/renderer.c:31
    while (!I2C_CheckEvent(I2C_EVENT_MASTER_TRANSMITTER_MODE_SELECTED));
     9d8:	08240413          	addi	s0,s0,130 # 70082 <_data_lma+0x6928a>
     9dc:	8522                	mv	a0,s0
     9de:	30b010ef          	jal	ra,24e8 <I2C_CheckEvent>
     9e2:	dd6d                	beqz	a0,9dc <OLED_Init+0xfa>
C:\MRS_DATA\workspace\CH592F_SSD1306\obj/../src/ssd1306/renderer.c:32
    I2C_SendData(0x00);     // Command mode
     9e4:	4501                	li	a0,0
C:\MRS_DATA\workspace\CH592F_SSD1306\obj/../src/ssd1306/renderer.c:33
    while (!I2C_CheckEvent(I2C_EVENT_MASTER_BYTE_TRANSMITTED));
     9e6:	00070437          	lui	s0,0x70
C:\MRS_DATA\workspace\CH592F_SSD1306\obj/../src/ssd1306/renderer.c:32
    I2C_SendData(0x00);     // Command mode
     9ea:	2dd010ef          	jal	ra,24c6 <I2C_SendData>
C:\MRS_DATA\workspace\CH592F_SSD1306\obj/../src/ssd1306/renderer.c:33
    while (!I2C_CheckEvent(I2C_EVENT_MASTER_BYTE_TRANSMITTED));
     9ee:	08440413          	addi	s0,s0,132 # 70084 <_data_lma+0x6928c>
     9f2:	8522                	mv	a0,s0
     9f4:	2f5010ef          	jal	ra,24e8 <I2C_CheckEvent>
     9f8:	dd6d                	beqz	a0,9f2 <OLED_Init+0x110>
C:\MRS_DATA\workspace\CH592F_SSD1306\obj/../src/ssd1306/renderer.c:34
    I2C_SendData(command);
     9fa:	08000513          	li	a0,128
C:\MRS_DATA\workspace\CH592F_SSD1306\obj/../src/ssd1306/renderer.c:35
    while (!I2C_CheckEvent(I2C_EVENT_MASTER_BYTE_TRANSMITTED));
     9fe:	00070437          	lui	s0,0x70
C:\MRS_DATA\workspace\CH592F_SSD1306\obj/../src/ssd1306/renderer.c:34
    I2C_SendData(command);
     a02:	2c5010ef          	jal	ra,24c6 <I2C_SendData>
C:\MRS_DATA\workspace\CH592F_SSD1306\obj/../src/ssd1306/renderer.c:35
    while (!I2C_CheckEvent(I2C_EVENT_MASTER_BYTE_TRANSMITTED));
     a06:	08440413          	addi	s0,s0,132 # 70084 <_data_lma+0x6928c>
     a0a:	8522                	mv	a0,s0
     a0c:	2dd010ef          	jal	ra,24e8 <I2C_CheckEvent>
     a10:	dd6d                	beqz	a0,a0a <OLED_Init+0x128>
C:\MRS_DATA\workspace\CH592F_SSD1306\obj/../src/ssd1306/renderer.c:36
    I2C_GenerateSTOP(ENABLE);
     a12:	4505                	li	a0,1
     a14:	28d010ef          	jal	ra,24a0 <I2C_GenerateSTOP>
C:\MRS_DATA\workspace\CH592F_SSD1306\obj/../src/ssd1306/renderer.c:28
    I2C_GenerateSTART(ENABLE);
     a18:	4505                	li	a0,1
C:\MRS_DATA\workspace\CH592F_SSD1306\obj/../src/ssd1306/renderer.c:29
    while (!I2C_CheckEvent(I2C_EVENT_MASTER_MODE_SELECT));
     a1a:	00030437          	lui	s0,0x30
C:\MRS_DATA\workspace\CH592F_SSD1306\obj/../src/ssd1306/renderer.c:28
    I2C_GenerateSTART(ENABLE);
     a1e:	25d010ef          	jal	ra,247a <I2C_GenerateSTART>
C:\MRS_DATA\workspace\CH592F_SSD1306\obj/../src/ssd1306/renderer.c:29
    while (!I2C_CheckEvent(I2C_EVENT_MASTER_MODE_SELECT));
     a22:	0405                	addi	s0,s0,1
     a24:	8522                	mv	a0,s0
     a26:	2c3010ef          	jal	ra,24e8 <I2C_CheckEvent>
     a2a:	dd6d                	beqz	a0,a24 <OLED_Init+0x142>
C:\MRS_DATA\workspace\CH592F_SSD1306\obj/../src/ssd1306/renderer.c:30
    I2C_Send7bitAddress(OLED_I2C_ADDR << 1, I2C_Direction_Transmitter);
     a2c:	4581                	li	a1,0
     a2e:	07800513          	li	a0,120
C:\MRS_DATA\workspace\CH592F_SSD1306\obj/../src/ssd1306/renderer.c:31
    while (!I2C_CheckEvent(I2C_EVENT_MASTER_TRANSMITTER_MODE_SELECTED));
     a32:	00070437          	lui	s0,0x70
C:\MRS_DATA\workspace\CH592F_SSD1306\obj/../src/ssd1306/renderer.c:30
    I2C_Send7bitAddress(OLED_I2C_ADDR << 1, I2C_Direction_Transmitter);
     a36:	29b010ef          	jal	ra,24d0 <I2C_Send7bitAddress>
C:\MRS_DATA\workspace\CH592F_SSD1306\obj/../src/ssd1306/renderer.c:31
    while (!I2C_CheckEvent(I2C_EVENT_MASTER_TRANSMITTER_MODE_SELECTED));
     a3a:	08240413          	addi	s0,s0,130 # 70082 <_data_lma+0x6928a>
     a3e:	8522                	mv	a0,s0
     a40:	2a9010ef          	jal	ra,24e8 <I2C_CheckEvent>
     a44:	dd6d                	beqz	a0,a3e <OLED_Init+0x15c>
C:\MRS_DATA\workspace\CH592F_SSD1306\obj/../src/ssd1306/renderer.c:32
    I2C_SendData(0x00);     // Command mode
     a46:	4501                	li	a0,0
C:\MRS_DATA\workspace\CH592F_SSD1306\obj/../src/ssd1306/renderer.c:33
    while (!I2C_CheckEvent(I2C_EVENT_MASTER_BYTE_TRANSMITTED));
     a48:	00070437          	lui	s0,0x70
C:\MRS_DATA\workspace\CH592F_SSD1306\obj/../src/ssd1306/renderer.c:32
    I2C_SendData(0x00);     // Command mode
     a4c:	27b010ef          	jal	ra,24c6 <I2C_SendData>
C:\MRS_DATA\workspace\CH592F_SSD1306\obj/../src/ssd1306/renderer.c:33
    while (!I2C_CheckEvent(I2C_EVENT_MASTER_BYTE_TRANSMITTED));
     a50:	08440413          	addi	s0,s0,132 # 70084 <_data_lma+0x6928c>
     a54:	8522                	mv	a0,s0
     a56:	293010ef          	jal	ra,24e8 <I2C_CheckEvent>
     a5a:	dd6d                	beqz	a0,a54 <OLED_Init+0x172>
C:\MRS_DATA\workspace\CH592F_SSD1306\obj/../src/ssd1306/renderer.c:34
    I2C_SendData(command);
     a5c:	0a800513          	li	a0,168
C:\MRS_DATA\workspace\CH592F_SSD1306\obj/../src/ssd1306/renderer.c:35
    while (!I2C_CheckEvent(I2C_EVENT_MASTER_BYTE_TRANSMITTED));
     a60:	00070437          	lui	s0,0x70
C:\MRS_DATA\workspace\CH592F_SSD1306\obj/../src/ssd1306/renderer.c:34
    I2C_SendData(command);
     a64:	263010ef          	jal	ra,24c6 <I2C_SendData>
C:\MRS_DATA\workspace\CH592F_SSD1306\obj/../src/ssd1306/renderer.c:35
    while (!I2C_CheckEvent(I2C_EVENT_MASTER_BYTE_TRANSMITTED));
     a68:	08440413          	addi	s0,s0,132 # 70084 <_data_lma+0x6928c>
     a6c:	8522                	mv	a0,s0
     a6e:	27b010ef          	jal	ra,24e8 <I2C_CheckEvent>
     a72:	dd6d                	beqz	a0,a6c <OLED_Init+0x18a>
C:\MRS_DATA\workspace\CH592F_SSD1306\obj/../src/ssd1306/renderer.c:36
    I2C_GenerateSTOP(ENABLE);
     a74:	4505                	li	a0,1
     a76:	22b010ef          	jal	ra,24a0 <I2C_GenerateSTOP>
C:\MRS_DATA\workspace\CH592F_SSD1306\obj/../src/ssd1306/renderer.c:28
    I2C_GenerateSTART(ENABLE);
     a7a:	4505                	li	a0,1
C:\MRS_DATA\workspace\CH592F_SSD1306\obj/../src/ssd1306/renderer.c:29
    while (!I2C_CheckEvent(I2C_EVENT_MASTER_MODE_SELECT));
     a7c:	00030437          	lui	s0,0x30
C:\MRS_DATA\workspace\CH592F_SSD1306\obj/../src/ssd1306/renderer.c:28
    I2C_GenerateSTART(ENABLE);
     a80:	1fb010ef          	jal	ra,247a <I2C_GenerateSTART>
C:\MRS_DATA\workspace\CH592F_SSD1306\obj/../src/ssd1306/renderer.c:29
    while (!I2C_CheckEvent(I2C_EVENT_MASTER_MODE_SELECT));
     a84:	0405                	addi	s0,s0,1
     a86:	8522                	mv	a0,s0
     a88:	261010ef          	jal	ra,24e8 <I2C_CheckEvent>
     a8c:	dd6d                	beqz	a0,a86 <OLED_Init+0x1a4>
C:\MRS_DATA\workspace\CH592F_SSD1306\obj/../src/ssd1306/renderer.c:30
    I2C_Send7bitAddress(OLED_I2C_ADDR << 1, I2C_Direction_Transmitter);
     a8e:	4581                	li	a1,0
     a90:	07800513          	li	a0,120
C:\MRS_DATA\workspace\CH592F_SSD1306\obj/../src/ssd1306/renderer.c:31
    while (!I2C_CheckEvent(I2C_EVENT_MASTER_TRANSMITTER_MODE_SELECTED));
     a94:	00070437          	lui	s0,0x70
C:\MRS_DATA\workspace\CH592F_SSD1306\obj/../src/ssd1306/renderer.c:30
    I2C_Send7bitAddress(OLED_I2C_ADDR << 1, I2C_Direction_Transmitter);
     a98:	239010ef          	jal	ra,24d0 <I2C_Send7bitAddress>
C:\MRS_DATA\workspace\CH592F_SSD1306\obj/../src/ssd1306/renderer.c:31
    while (!I2C_CheckEvent(I2C_EVENT_MASTER_TRANSMITTER_MODE_SELECTED));
     a9c:	08240413          	addi	s0,s0,130 # 70082 <_data_lma+0x6928a>
     aa0:	8522                	mv	a0,s0
     aa2:	247010ef          	jal	ra,24e8 <I2C_CheckEvent>
     aa6:	dd6d                	beqz	a0,aa0 <OLED_Init+0x1be>
C:\MRS_DATA\workspace\CH592F_SSD1306\obj/../src/ssd1306/renderer.c:32
    I2C_SendData(0x00);     // Command mode
     aa8:	4501                	li	a0,0
C:\MRS_DATA\workspace\CH592F_SSD1306\obj/../src/ssd1306/renderer.c:33
    while (!I2C_CheckEvent(I2C_EVENT_MASTER_BYTE_TRANSMITTED));
     aaa:	00070437          	lui	s0,0x70
C:\MRS_DATA\workspace\CH592F_SSD1306\obj/../src/ssd1306/renderer.c:32
    I2C_SendData(0x00);     // Command mode
     aae:	219010ef          	jal	ra,24c6 <I2C_SendData>
C:\MRS_DATA\workspace\CH592F_SSD1306\obj/../src/ssd1306/renderer.c:33
    while (!I2C_CheckEvent(I2C_EVENT_MASTER_BYTE_TRANSMITTED));
     ab2:	08440413          	addi	s0,s0,132 # 70084 <_data_lma+0x6928c>
     ab6:	8522                	mv	a0,s0
     ab8:	231010ef          	jal	ra,24e8 <I2C_CheckEvent>
     abc:	dd6d                	beqz	a0,ab6 <OLED_Init+0x1d4>
C:\MRS_DATA\workspace\CH592F_SSD1306\obj/../src/ssd1306/renderer.c:34
    I2C_SendData(command);
     abe:	457d                	li	a0,31
C:\MRS_DATA\workspace\CH592F_SSD1306\obj/../src/ssd1306/renderer.c:35
    while (!I2C_CheckEvent(I2C_EVENT_MASTER_BYTE_TRANSMITTED));
     ac0:	00070437          	lui	s0,0x70
C:\MRS_DATA\workspace\CH592F_SSD1306\obj/../src/ssd1306/renderer.c:34
    I2C_SendData(command);
     ac4:	203010ef          	jal	ra,24c6 <I2C_SendData>
C:\MRS_DATA\workspace\CH592F_SSD1306\obj/../src/ssd1306/renderer.c:35
    while (!I2C_CheckEvent(I2C_EVENT_MASTER_BYTE_TRANSMITTED));
     ac8:	08440413          	addi	s0,s0,132 # 70084 <_data_lma+0x6928c>
     acc:	8522                	mv	a0,s0
     ace:	21b010ef          	jal	ra,24e8 <I2C_CheckEvent>
     ad2:	dd6d                	beqz	a0,acc <OLED_Init+0x1ea>
C:\MRS_DATA\workspace\CH592F_SSD1306\obj/../src/ssd1306/renderer.c:36
    I2C_GenerateSTOP(ENABLE);
     ad4:	4505                	li	a0,1
     ad6:	1cb010ef          	jal	ra,24a0 <I2C_GenerateSTOP>
C:\MRS_DATA\workspace\CH592F_SSD1306\obj/../src/ssd1306/renderer.c:28
    I2C_GenerateSTART(ENABLE);
     ada:	4505                	li	a0,1
C:\MRS_DATA\workspace\CH592F_SSD1306\obj/../src/ssd1306/renderer.c:29
    while (!I2C_CheckEvent(I2C_EVENT_MASTER_MODE_SELECT));
     adc:	00030437          	lui	s0,0x30
C:\MRS_DATA\workspace\CH592F_SSD1306\obj/../src/ssd1306/renderer.c:28
    I2C_GenerateSTART(ENABLE);
     ae0:	19b010ef          	jal	ra,247a <I2C_GenerateSTART>
C:\MRS_DATA\workspace\CH592F_SSD1306\obj/../src/ssd1306/renderer.c:29
    while (!I2C_CheckEvent(I2C_EVENT_MASTER_MODE_SELECT));
     ae4:	0405                	addi	s0,s0,1
     ae6:	8522                	mv	a0,s0
     ae8:	201010ef          	jal	ra,24e8 <I2C_CheckEvent>
     aec:	dd6d                	beqz	a0,ae6 <OLED_Init+0x204>
C:\MRS_DATA\workspace\CH592F_SSD1306\obj/../src/ssd1306/renderer.c:30
    I2C_Send7bitAddress(OLED_I2C_ADDR << 1, I2C_Direction_Transmitter);
     aee:	4581                	li	a1,0
     af0:	07800513          	li	a0,120
C:\MRS_DATA\workspace\CH592F_SSD1306\obj/../src/ssd1306/renderer.c:31
    while (!I2C_CheckEvent(I2C_EVENT_MASTER_TRANSMITTER_MODE_SELECTED));
     af4:	00070437          	lui	s0,0x70
C:\MRS_DATA\workspace\CH592F_SSD1306\obj/../src/ssd1306/renderer.c:30
    I2C_Send7bitAddress(OLED_I2C_ADDR << 1, I2C_Direction_Transmitter);
     af8:	1d9010ef          	jal	ra,24d0 <I2C_Send7bitAddress>
C:\MRS_DATA\workspace\CH592F_SSD1306\obj/../src/ssd1306/renderer.c:31
    while (!I2C_CheckEvent(I2C_EVENT_MASTER_TRANSMITTER_MODE_SELECTED));
     afc:	08240413          	addi	s0,s0,130 # 70082 <_data_lma+0x6928a>
     b00:	8522                	mv	a0,s0
     b02:	1e7010ef          	jal	ra,24e8 <I2C_CheckEvent>
     b06:	dd6d                	beqz	a0,b00 <OLED_Init+0x21e>
C:\MRS_DATA\workspace\CH592F_SSD1306\obj/../src/ssd1306/renderer.c:32
    I2C_SendData(0x00);     // Command mode
     b08:	4501                	li	a0,0
C:\MRS_DATA\workspace\CH592F_SSD1306\obj/../src/ssd1306/renderer.c:33
    while (!I2C_CheckEvent(I2C_EVENT_MASTER_BYTE_TRANSMITTED));
     b0a:	00070437          	lui	s0,0x70
C:\MRS_DATA\workspace\CH592F_SSD1306\obj/../src/ssd1306/renderer.c:32
    I2C_SendData(0x00);     // Command mode
     b0e:	1b9010ef          	jal	ra,24c6 <I2C_SendData>
C:\MRS_DATA\workspace\CH592F_SSD1306\obj/../src/ssd1306/renderer.c:33
    while (!I2C_CheckEvent(I2C_EVENT_MASTER_BYTE_TRANSMITTED));
     b12:	08440413          	addi	s0,s0,132 # 70084 <_data_lma+0x6928c>
     b16:	8522                	mv	a0,s0
     b18:	1d1010ef          	jal	ra,24e8 <I2C_CheckEvent>
     b1c:	dd6d                	beqz	a0,b16 <OLED_Init+0x234>
C:\MRS_DATA\workspace\CH592F_SSD1306\obj/../src/ssd1306/renderer.c:34
    I2C_SendData(command);
     b1e:	0d300513          	li	a0,211
C:\MRS_DATA\workspace\CH592F_SSD1306\obj/../src/ssd1306/renderer.c:35
    while (!I2C_CheckEvent(I2C_EVENT_MASTER_BYTE_TRANSMITTED));
     b22:	00070437          	lui	s0,0x70
C:\MRS_DATA\workspace\CH592F_SSD1306\obj/../src/ssd1306/renderer.c:34
    I2C_SendData(command);
     b26:	1a1010ef          	jal	ra,24c6 <I2C_SendData>
C:\MRS_DATA\workspace\CH592F_SSD1306\obj/../src/ssd1306/renderer.c:35
    while (!I2C_CheckEvent(I2C_EVENT_MASTER_BYTE_TRANSMITTED));
     b2a:	08440413          	addi	s0,s0,132 # 70084 <_data_lma+0x6928c>
     b2e:	8522                	mv	a0,s0
     b30:	1b9010ef          	jal	ra,24e8 <I2C_CheckEvent>
     b34:	dd6d                	beqz	a0,b2e <OLED_Init+0x24c>
C:\MRS_DATA\workspace\CH592F_SSD1306\obj/../src/ssd1306/renderer.c:36
    I2C_GenerateSTOP(ENABLE);
     b36:	4505                	li	a0,1
     b38:	169010ef          	jal	ra,24a0 <I2C_GenerateSTOP>
C:\MRS_DATA\workspace\CH592F_SSD1306\obj/../src/ssd1306/renderer.c:28
    I2C_GenerateSTART(ENABLE);
     b3c:	4505                	li	a0,1
C:\MRS_DATA\workspace\CH592F_SSD1306\obj/../src/ssd1306/renderer.c:29
    while (!I2C_CheckEvent(I2C_EVENT_MASTER_MODE_SELECT));
     b3e:	00030437          	lui	s0,0x30
C:\MRS_DATA\workspace\CH592F_SSD1306\obj/../src/ssd1306/renderer.c:28
    I2C_GenerateSTART(ENABLE);
     b42:	139010ef          	jal	ra,247a <I2C_GenerateSTART>
C:\MRS_DATA\workspace\CH592F_SSD1306\obj/../src/ssd1306/renderer.c:29
    while (!I2C_CheckEvent(I2C_EVENT_MASTER_MODE_SELECT));
     b46:	0405                	addi	s0,s0,1
     b48:	8522                	mv	a0,s0
     b4a:	19f010ef          	jal	ra,24e8 <I2C_CheckEvent>
     b4e:	dd6d                	beqz	a0,b48 <OLED_Init+0x266>
C:\MRS_DATA\workspace\CH592F_SSD1306\obj/../src/ssd1306/renderer.c:30
    I2C_Send7bitAddress(OLED_I2C_ADDR << 1, I2C_Direction_Transmitter);
     b50:	4581                	li	a1,0
     b52:	07800513          	li	a0,120
C:\MRS_DATA\workspace\CH592F_SSD1306\obj/../src/ssd1306/renderer.c:31
    while (!I2C_CheckEvent(I2C_EVENT_MASTER_TRANSMITTER_MODE_SELECTED));
     b56:	00070437          	lui	s0,0x70
C:\MRS_DATA\workspace\CH592F_SSD1306\obj/../src/ssd1306/renderer.c:30
    I2C_Send7bitAddress(OLED_I2C_ADDR << 1, I2C_Direction_Transmitter);
     b5a:	177010ef          	jal	ra,24d0 <I2C_Send7bitAddress>
C:\MRS_DATA\workspace\CH592F_SSD1306\obj/../src/ssd1306/renderer.c:31
    while (!I2C_CheckEvent(I2C_EVENT_MASTER_TRANSMITTER_MODE_SELECTED));
     b5e:	08240413          	addi	s0,s0,130 # 70082 <_data_lma+0x6928a>
     b62:	8522                	mv	a0,s0
     b64:	185010ef          	jal	ra,24e8 <I2C_CheckEvent>
     b68:	dd6d                	beqz	a0,b62 <OLED_Init+0x280>
C:\MRS_DATA\workspace\CH592F_SSD1306\obj/../src/ssd1306/renderer.c:32
    I2C_SendData(0x00);     // Command mode
     b6a:	4501                	li	a0,0
C:\MRS_DATA\workspace\CH592F_SSD1306\obj/../src/ssd1306/renderer.c:33
    while (!I2C_CheckEvent(I2C_EVENT_MASTER_BYTE_TRANSMITTED));
     b6c:	00070437          	lui	s0,0x70
C:\MRS_DATA\workspace\CH592F_SSD1306\obj/../src/ssd1306/renderer.c:32
    I2C_SendData(0x00);     // Command mode
     b70:	157010ef          	jal	ra,24c6 <I2C_SendData>
C:\MRS_DATA\workspace\CH592F_SSD1306\obj/../src/ssd1306/renderer.c:33
    while (!I2C_CheckEvent(I2C_EVENT_MASTER_BYTE_TRANSMITTED));
     b74:	08440413          	addi	s0,s0,132 # 70084 <_data_lma+0x6928c>
     b78:	8522                	mv	a0,s0
     b7a:	16f010ef          	jal	ra,24e8 <I2C_CheckEvent>
     b7e:	dd6d                	beqz	a0,b78 <OLED_Init+0x296>
C:\MRS_DATA\workspace\CH592F_SSD1306\obj/../src/ssd1306/renderer.c:34
    I2C_SendData(command);
     b80:	4501                	li	a0,0
C:\MRS_DATA\workspace\CH592F_SSD1306\obj/../src/ssd1306/renderer.c:35
    while (!I2C_CheckEvent(I2C_EVENT_MASTER_BYTE_TRANSMITTED));
     b82:	00070437          	lui	s0,0x70
C:\MRS_DATA\workspace\CH592F_SSD1306\obj/../src/ssd1306/renderer.c:34
    I2C_SendData(command);
     b86:	141010ef          	jal	ra,24c6 <I2C_SendData>
C:\MRS_DATA\workspace\CH592F_SSD1306\obj/../src/ssd1306/renderer.c:35
    while (!I2C_CheckEvent(I2C_EVENT_MASTER_BYTE_TRANSMITTED));
     b8a:	08440413          	addi	s0,s0,132 # 70084 <_data_lma+0x6928c>
     b8e:	8522                	mv	a0,s0
     b90:	159010ef          	jal	ra,24e8 <I2C_CheckEvent>
     b94:	dd6d                	beqz	a0,b8e <OLED_Init+0x2ac>
C:\MRS_DATA\workspace\CH592F_SSD1306\obj/../src/ssd1306/renderer.c:36
    I2C_GenerateSTOP(ENABLE);
     b96:	4505                	li	a0,1
     b98:	109010ef          	jal	ra,24a0 <I2C_GenerateSTOP>
C:\MRS_DATA\workspace\CH592F_SSD1306\obj/../src/ssd1306/renderer.c:28
    I2C_GenerateSTART(ENABLE);
     b9c:	4505                	li	a0,1
C:\MRS_DATA\workspace\CH592F_SSD1306\obj/../src/ssd1306/renderer.c:29
    while (!I2C_CheckEvent(I2C_EVENT_MASTER_MODE_SELECT));
     b9e:	00030437          	lui	s0,0x30
C:\MRS_DATA\workspace\CH592F_SSD1306\obj/../src/ssd1306/renderer.c:28
    I2C_GenerateSTART(ENABLE);
     ba2:	0d9010ef          	jal	ra,247a <I2C_GenerateSTART>
C:\MRS_DATA\workspace\CH592F_SSD1306\obj/../src/ssd1306/renderer.c:29
    while (!I2C_CheckEvent(I2C_EVENT_MASTER_MODE_SELECT));
     ba6:	0405                	addi	s0,s0,1
     ba8:	8522                	mv	a0,s0
     baa:	13f010ef          	jal	ra,24e8 <I2C_CheckEvent>
     bae:	dd6d                	beqz	a0,ba8 <OLED_Init+0x2c6>
C:\MRS_DATA\workspace\CH592F_SSD1306\obj/../src/ssd1306/renderer.c:30
    I2C_Send7bitAddress(OLED_I2C_ADDR << 1, I2C_Direction_Transmitter);
     bb0:	4581                	li	a1,0
     bb2:	07800513          	li	a0,120
C:\MRS_DATA\workspace\CH592F_SSD1306\obj/../src/ssd1306/renderer.c:31
    while (!I2C_CheckEvent(I2C_EVENT_MASTER_TRANSMITTER_MODE_SELECTED));
     bb6:	00070437          	lui	s0,0x70
C:\MRS_DATA\workspace\CH592F_SSD1306\obj/../src/ssd1306/renderer.c:30
    I2C_Send7bitAddress(OLED_I2C_ADDR << 1, I2C_Direction_Transmitter);
     bba:	117010ef          	jal	ra,24d0 <I2C_Send7bitAddress>
C:\MRS_DATA\workspace\CH592F_SSD1306\obj/../src/ssd1306/renderer.c:31
    while (!I2C_CheckEvent(I2C_EVENT_MASTER_TRANSMITTER_MODE_SELECTED));
     bbe:	08240413          	addi	s0,s0,130 # 70082 <_data_lma+0x6928a>
     bc2:	8522                	mv	a0,s0
     bc4:	125010ef          	jal	ra,24e8 <I2C_CheckEvent>
     bc8:	dd6d                	beqz	a0,bc2 <OLED_Init+0x2e0>
C:\MRS_DATA\workspace\CH592F_SSD1306\obj/../src/ssd1306/renderer.c:32
    I2C_SendData(0x00);     // Command mode
     bca:	4501                	li	a0,0
C:\MRS_DATA\workspace\CH592F_SSD1306\obj/../src/ssd1306/renderer.c:33
    while (!I2C_CheckEvent(I2C_EVENT_MASTER_BYTE_TRANSMITTED));
     bcc:	00070437          	lui	s0,0x70
C:\MRS_DATA\workspace\CH592F_SSD1306\obj/../src/ssd1306/renderer.c:32
    I2C_SendData(0x00);     // Command mode
     bd0:	0f7010ef          	jal	ra,24c6 <I2C_SendData>
C:\MRS_DATA\workspace\CH592F_SSD1306\obj/../src/ssd1306/renderer.c:33
    while (!I2C_CheckEvent(I2C_EVENT_MASTER_BYTE_TRANSMITTED));
     bd4:	08440413          	addi	s0,s0,132 # 70084 <_data_lma+0x6928c>
     bd8:	8522                	mv	a0,s0
     bda:	10f010ef          	jal	ra,24e8 <I2C_CheckEvent>
     bde:	dd6d                	beqz	a0,bd8 <OLED_Init+0x2f6>
C:\MRS_DATA\workspace\CH592F_SSD1306\obj/../src/ssd1306/renderer.c:34
    I2C_SendData(command);
     be0:	04000513          	li	a0,64
C:\MRS_DATA\workspace\CH592F_SSD1306\obj/../src/ssd1306/renderer.c:35
    while (!I2C_CheckEvent(I2C_EVENT_MASTER_BYTE_TRANSMITTED));
     be4:	00070437          	lui	s0,0x70
C:\MRS_DATA\workspace\CH592F_SSD1306\obj/../src/ssd1306/renderer.c:34
    I2C_SendData(command);
     be8:	0df010ef          	jal	ra,24c6 <I2C_SendData>
C:\MRS_DATA\workspace\CH592F_SSD1306\obj/../src/ssd1306/renderer.c:35
    while (!I2C_CheckEvent(I2C_EVENT_MASTER_BYTE_TRANSMITTED));
     bec:	08440413          	addi	s0,s0,132 # 70084 <_data_lma+0x6928c>
     bf0:	8522                	mv	a0,s0
     bf2:	0f7010ef          	jal	ra,24e8 <I2C_CheckEvent>
     bf6:	dd6d                	beqz	a0,bf0 <OLED_Init+0x30e>
C:\MRS_DATA\workspace\CH592F_SSD1306\obj/../src/ssd1306/renderer.c:36
    I2C_GenerateSTOP(ENABLE);
     bf8:	4505                	li	a0,1
     bfa:	0a7010ef          	jal	ra,24a0 <I2C_GenerateSTOP>
C:\MRS_DATA\workspace\CH592F_SSD1306\obj/../src/ssd1306/renderer.c:28
    I2C_GenerateSTART(ENABLE);
     bfe:	4505                	li	a0,1
C:\MRS_DATA\workspace\CH592F_SSD1306\obj/../src/ssd1306/renderer.c:29
    while (!I2C_CheckEvent(I2C_EVENT_MASTER_MODE_SELECT));
     c00:	00030437          	lui	s0,0x30
C:\MRS_DATA\workspace\CH592F_SSD1306\obj/../src/ssd1306/renderer.c:28
    I2C_GenerateSTART(ENABLE);
     c04:	077010ef          	jal	ra,247a <I2C_GenerateSTART>
C:\MRS_DATA\workspace\CH592F_SSD1306\obj/../src/ssd1306/renderer.c:29
    while (!I2C_CheckEvent(I2C_EVENT_MASTER_MODE_SELECT));
     c08:	0405                	addi	s0,s0,1
     c0a:	8522                	mv	a0,s0
     c0c:	0dd010ef          	jal	ra,24e8 <I2C_CheckEvent>
     c10:	dd6d                	beqz	a0,c0a <OLED_Init+0x328>
C:\MRS_DATA\workspace\CH592F_SSD1306\obj/../src/ssd1306/renderer.c:30
    I2C_Send7bitAddress(OLED_I2C_ADDR << 1, I2C_Direction_Transmitter);
     c12:	4581                	li	a1,0
     c14:	07800513          	li	a0,120
C:\MRS_DATA\workspace\CH592F_SSD1306\obj/../src/ssd1306/renderer.c:31
    while (!I2C_CheckEvent(I2C_EVENT_MASTER_TRANSMITTER_MODE_SELECTED));
     c18:	00070437          	lui	s0,0x70
C:\MRS_DATA\workspace\CH592F_SSD1306\obj/../src/ssd1306/renderer.c:30
    I2C_Send7bitAddress(OLED_I2C_ADDR << 1, I2C_Direction_Transmitter);
     c1c:	0b5010ef          	jal	ra,24d0 <I2C_Send7bitAddress>
C:\MRS_DATA\workspace\CH592F_SSD1306\obj/../src/ssd1306/renderer.c:31
    while (!I2C_CheckEvent(I2C_EVENT_MASTER_TRANSMITTER_MODE_SELECTED));
     c20:	08240413          	addi	s0,s0,130 # 70082 <_data_lma+0x6928a>
     c24:	8522                	mv	a0,s0
     c26:	0c3010ef          	jal	ra,24e8 <I2C_CheckEvent>
     c2a:	dd6d                	beqz	a0,c24 <OLED_Init+0x342>
C:\MRS_DATA\workspace\CH592F_SSD1306\obj/../src/ssd1306/renderer.c:32
    I2C_SendData(0x00);     // Command mode
     c2c:	4501                	li	a0,0
C:\MRS_DATA\workspace\CH592F_SSD1306\obj/../src/ssd1306/renderer.c:33
    while (!I2C_CheckEvent(I2C_EVENT_MASTER_BYTE_TRANSMITTED));
     c2e:	00070437          	lui	s0,0x70
C:\MRS_DATA\workspace\CH592F_SSD1306\obj/../src/ssd1306/renderer.c:32
    I2C_SendData(0x00);     // Command mode
     c32:	095010ef          	jal	ra,24c6 <I2C_SendData>
C:\MRS_DATA\workspace\CH592F_SSD1306\obj/../src/ssd1306/renderer.c:33
    while (!I2C_CheckEvent(I2C_EVENT_MASTER_BYTE_TRANSMITTED));
     c36:	08440413          	addi	s0,s0,132 # 70084 <_data_lma+0x6928c>
     c3a:	8522                	mv	a0,s0
     c3c:	0ad010ef          	jal	ra,24e8 <I2C_CheckEvent>
     c40:	dd6d                	beqz	a0,c3a <OLED_Init+0x358>
C:\MRS_DATA\workspace\CH592F_SSD1306\obj/../src/ssd1306/renderer.c:34
    I2C_SendData(command);
     c42:	08d00513          	li	a0,141
C:\MRS_DATA\workspace\CH592F_SSD1306\obj/../src/ssd1306/renderer.c:35
    while (!I2C_CheckEvent(I2C_EVENT_MASTER_BYTE_TRANSMITTED));
     c46:	00070437          	lui	s0,0x70
C:\MRS_DATA\workspace\CH592F_SSD1306\obj/../src/ssd1306/renderer.c:34
    I2C_SendData(command);
     c4a:	07d010ef          	jal	ra,24c6 <I2C_SendData>
C:\MRS_DATA\workspace\CH592F_SSD1306\obj/../src/ssd1306/renderer.c:35
    while (!I2C_CheckEvent(I2C_EVENT_MASTER_BYTE_TRANSMITTED));
     c4e:	08440413          	addi	s0,s0,132 # 70084 <_data_lma+0x6928c>
     c52:	8522                	mv	a0,s0
     c54:	095010ef          	jal	ra,24e8 <I2C_CheckEvent>
     c58:	dd6d                	beqz	a0,c52 <OLED_Init+0x370>
C:\MRS_DATA\workspace\CH592F_SSD1306\obj/../src/ssd1306/renderer.c:36
    I2C_GenerateSTOP(ENABLE);
     c5a:	4505                	li	a0,1
     c5c:	045010ef          	jal	ra,24a0 <I2C_GenerateSTOP>
C:\MRS_DATA\workspace\CH592F_SSD1306\obj/../src/ssd1306/renderer.c:28
    I2C_GenerateSTART(ENABLE);
     c60:	4505                	li	a0,1
C:\MRS_DATA\workspace\CH592F_SSD1306\obj/../src/ssd1306/renderer.c:29
    while (!I2C_CheckEvent(I2C_EVENT_MASTER_MODE_SELECT));
     c62:	00030437          	lui	s0,0x30
C:\MRS_DATA\workspace\CH592F_SSD1306\obj/../src/ssd1306/renderer.c:28
    I2C_GenerateSTART(ENABLE);
     c66:	015010ef          	jal	ra,247a <I2C_GenerateSTART>
C:\MRS_DATA\workspace\CH592F_SSD1306\obj/../src/ssd1306/renderer.c:29
    while (!I2C_CheckEvent(I2C_EVENT_MASTER_MODE_SELECT));
     c6a:	0405                	addi	s0,s0,1
     c6c:	8522                	mv	a0,s0
     c6e:	07b010ef          	jal	ra,24e8 <I2C_CheckEvent>
     c72:	dd6d                	beqz	a0,c6c <OLED_Init+0x38a>
C:\MRS_DATA\workspace\CH592F_SSD1306\obj/../src/ssd1306/renderer.c:30
    I2C_Send7bitAddress(OLED_I2C_ADDR << 1, I2C_Direction_Transmitter);
     c74:	4581                	li	a1,0
     c76:	07800513          	li	a0,120
C:\MRS_DATA\workspace\CH592F_SSD1306\obj/../src/ssd1306/renderer.c:31
    while (!I2C_CheckEvent(I2C_EVENT_MASTER_TRANSMITTER_MODE_SELECTED));
     c7a:	00070437          	lui	s0,0x70
C:\MRS_DATA\workspace\CH592F_SSD1306\obj/../src/ssd1306/renderer.c:30
    I2C_Send7bitAddress(OLED_I2C_ADDR << 1, I2C_Direction_Transmitter);
     c7e:	053010ef          	jal	ra,24d0 <I2C_Send7bitAddress>
C:\MRS_DATA\workspace\CH592F_SSD1306\obj/../src/ssd1306/renderer.c:31
    while (!I2C_CheckEvent(I2C_EVENT_MASTER_TRANSMITTER_MODE_SELECTED));
     c82:	08240413          	addi	s0,s0,130 # 70082 <_data_lma+0x6928a>
     c86:	8522                	mv	a0,s0
     c88:	061010ef          	jal	ra,24e8 <I2C_CheckEvent>
     c8c:	dd6d                	beqz	a0,c86 <OLED_Init+0x3a4>
C:\MRS_DATA\workspace\CH592F_SSD1306\obj/../src/ssd1306/renderer.c:32
    I2C_SendData(0x00);     // Command mode
     c8e:	4501                	li	a0,0
C:\MRS_DATA\workspace\CH592F_SSD1306\obj/../src/ssd1306/renderer.c:33
    while (!I2C_CheckEvent(I2C_EVENT_MASTER_BYTE_TRANSMITTED));
     c90:	00070437          	lui	s0,0x70
C:\MRS_DATA\workspace\CH592F_SSD1306\obj/../src/ssd1306/renderer.c:32
    I2C_SendData(0x00);     // Command mode
     c94:	033010ef          	jal	ra,24c6 <I2C_SendData>
C:\MRS_DATA\workspace\CH592F_SSD1306\obj/../src/ssd1306/renderer.c:33
    while (!I2C_CheckEvent(I2C_EVENT_MASTER_BYTE_TRANSMITTED));
     c98:	08440413          	addi	s0,s0,132 # 70084 <_data_lma+0x6928c>
     c9c:	8522                	mv	a0,s0
     c9e:	04b010ef          	jal	ra,24e8 <I2C_CheckEvent>
     ca2:	dd6d                	beqz	a0,c9c <OLED_Init+0x3ba>
C:\MRS_DATA\workspace\CH592F_SSD1306\obj/../src/ssd1306/renderer.c:34
    I2C_SendData(command);
     ca4:	4551                	li	a0,20
C:\MRS_DATA\workspace\CH592F_SSD1306\obj/../src/ssd1306/renderer.c:35
    while (!I2C_CheckEvent(I2C_EVENT_MASTER_BYTE_TRANSMITTED));
     ca6:	00070437          	lui	s0,0x70
C:\MRS_DATA\workspace\CH592F_SSD1306\obj/../src/ssd1306/renderer.c:34
    I2C_SendData(command);
     caa:	01d010ef          	jal	ra,24c6 <I2C_SendData>
C:\MRS_DATA\workspace\CH592F_SSD1306\obj/../src/ssd1306/renderer.c:35
    while (!I2C_CheckEvent(I2C_EVENT_MASTER_BYTE_TRANSMITTED));
     cae:	08440413          	addi	s0,s0,132 # 70084 <_data_lma+0x6928c>
     cb2:	8522                	mv	a0,s0
     cb4:	035010ef          	jal	ra,24e8 <I2C_CheckEvent>
     cb8:	dd6d                	beqz	a0,cb2 <OLED_Init+0x3d0>
C:\MRS_DATA\workspace\CH592F_SSD1306\obj/../src/ssd1306/renderer.c:36
    I2C_GenerateSTOP(ENABLE);
     cba:	4505                	li	a0,1
     cbc:	7e4010ef          	jal	ra,24a0 <I2C_GenerateSTOP>
C:\MRS_DATA\workspace\CH592F_SSD1306\obj/../src/ssd1306/renderer.c:28
    I2C_GenerateSTART(ENABLE);
     cc0:	4505                	li	a0,1
C:\MRS_DATA\workspace\CH592F_SSD1306\obj/../src/ssd1306/renderer.c:29
    while (!I2C_CheckEvent(I2C_EVENT_MASTER_MODE_SELECT));
     cc2:	00030437          	lui	s0,0x30
C:\MRS_DATA\workspace\CH592F_SSD1306\obj/../src/ssd1306/renderer.c:28
    I2C_GenerateSTART(ENABLE);
     cc6:	7b4010ef          	jal	ra,247a <I2C_GenerateSTART>
C:\MRS_DATA\workspace\CH592F_SSD1306\obj/../src/ssd1306/renderer.c:29
    while (!I2C_CheckEvent(I2C_EVENT_MASTER_MODE_SELECT));
     cca:	0405                	addi	s0,s0,1
     ccc:	8522                	mv	a0,s0
     cce:	01b010ef          	jal	ra,24e8 <I2C_CheckEvent>
     cd2:	dd6d                	beqz	a0,ccc <OLED_Init+0x3ea>
C:\MRS_DATA\workspace\CH592F_SSD1306\obj/../src/ssd1306/renderer.c:30
    I2C_Send7bitAddress(OLED_I2C_ADDR << 1, I2C_Direction_Transmitter);
     cd4:	4581                	li	a1,0
     cd6:	07800513          	li	a0,120
C:\MRS_DATA\workspace\CH592F_SSD1306\obj/../src/ssd1306/renderer.c:31
    while (!I2C_CheckEvent(I2C_EVENT_MASTER_TRANSMITTER_MODE_SELECTED));
     cda:	00070437          	lui	s0,0x70
C:\MRS_DATA\workspace\CH592F_SSD1306\obj/../src/ssd1306/renderer.c:30
    I2C_Send7bitAddress(OLED_I2C_ADDR << 1, I2C_Direction_Transmitter);
     cde:	7f2010ef          	jal	ra,24d0 <I2C_Send7bitAddress>
C:\MRS_DATA\workspace\CH592F_SSD1306\obj/../src/ssd1306/renderer.c:31
    while (!I2C_CheckEvent(I2C_EVENT_MASTER_TRANSMITTER_MODE_SELECTED));
     ce2:	08240413          	addi	s0,s0,130 # 70082 <_data_lma+0x6928a>
     ce6:	8522                	mv	a0,s0
     ce8:	001010ef          	jal	ra,24e8 <I2C_CheckEvent>
     cec:	dd6d                	beqz	a0,ce6 <OLED_Init+0x404>
C:\MRS_DATA\workspace\CH592F_SSD1306\obj/../src/ssd1306/renderer.c:32
    I2C_SendData(0x00);     // Command mode
     cee:	4501                	li	a0,0
C:\MRS_DATA\workspace\CH592F_SSD1306\obj/../src/ssd1306/renderer.c:33
    while (!I2C_CheckEvent(I2C_EVENT_MASTER_BYTE_TRANSMITTED));
     cf0:	00070437          	lui	s0,0x70
C:\MRS_DATA\workspace\CH592F_SSD1306\obj/../src/ssd1306/renderer.c:32
    I2C_SendData(0x00);     // Command mode
     cf4:	7d2010ef          	jal	ra,24c6 <I2C_SendData>
C:\MRS_DATA\workspace\CH592F_SSD1306\obj/../src/ssd1306/renderer.c:33
    while (!I2C_CheckEvent(I2C_EVENT_MASTER_BYTE_TRANSMITTED));
     cf8:	08440413          	addi	s0,s0,132 # 70084 <_data_lma+0x6928c>
     cfc:	8522                	mv	a0,s0
     cfe:	7ea010ef          	jal	ra,24e8 <I2C_CheckEvent>
     d02:	dd6d                	beqz	a0,cfc <OLED_Init+0x41a>
C:\MRS_DATA\workspace\CH592F_SSD1306\obj/../src/ssd1306/renderer.c:34
    I2C_SendData(command);
     d04:	02000513          	li	a0,32
C:\MRS_DATA\workspace\CH592F_SSD1306\obj/../src/ssd1306/renderer.c:35
    while (!I2C_CheckEvent(I2C_EVENT_MASTER_BYTE_TRANSMITTED));
     d08:	00070437          	lui	s0,0x70
C:\MRS_DATA\workspace\CH592F_SSD1306\obj/../src/ssd1306/renderer.c:34
    I2C_SendData(command);
     d0c:	7ba010ef          	jal	ra,24c6 <I2C_SendData>
C:\MRS_DATA\workspace\CH592F_SSD1306\obj/../src/ssd1306/renderer.c:35
    while (!I2C_CheckEvent(I2C_EVENT_MASTER_BYTE_TRANSMITTED));
     d10:	08440413          	addi	s0,s0,132 # 70084 <_data_lma+0x6928c>
     d14:	8522                	mv	a0,s0
     d16:	7d2010ef          	jal	ra,24e8 <I2C_CheckEvent>
     d1a:	dd6d                	beqz	a0,d14 <OLED_Init+0x432>
C:\MRS_DATA\workspace\CH592F_SSD1306\obj/../src/ssd1306/renderer.c:36
    I2C_GenerateSTOP(ENABLE);
     d1c:	4505                	li	a0,1
     d1e:	782010ef          	jal	ra,24a0 <I2C_GenerateSTOP>
C:\MRS_DATA\workspace\CH592F_SSD1306\obj/../src/ssd1306/renderer.c:28
    I2C_GenerateSTART(ENABLE);
     d22:	4505                	li	a0,1
C:\MRS_DATA\workspace\CH592F_SSD1306\obj/../src/ssd1306/renderer.c:29
    while (!I2C_CheckEvent(I2C_EVENT_MASTER_MODE_SELECT));
     d24:	00030437          	lui	s0,0x30
C:\MRS_DATA\workspace\CH592F_SSD1306\obj/../src/ssd1306/renderer.c:28
    I2C_GenerateSTART(ENABLE);
     d28:	752010ef          	jal	ra,247a <I2C_GenerateSTART>
C:\MRS_DATA\workspace\CH592F_SSD1306\obj/../src/ssd1306/renderer.c:29
    while (!I2C_CheckEvent(I2C_EVENT_MASTER_MODE_SELECT));
     d2c:	0405                	addi	s0,s0,1
     d2e:	8522                	mv	a0,s0
     d30:	7b8010ef          	jal	ra,24e8 <I2C_CheckEvent>
     d34:	dd6d                	beqz	a0,d2e <OLED_Init+0x44c>
C:\MRS_DATA\workspace\CH592F_SSD1306\obj/../src/ssd1306/renderer.c:30
    I2C_Send7bitAddress(OLED_I2C_ADDR << 1, I2C_Direction_Transmitter);
     d36:	4581                	li	a1,0
     d38:	07800513          	li	a0,120
C:\MRS_DATA\workspace\CH592F_SSD1306\obj/../src/ssd1306/renderer.c:31
    while (!I2C_CheckEvent(I2C_EVENT_MASTER_TRANSMITTER_MODE_SELECTED));
     d3c:	00070437          	lui	s0,0x70
C:\MRS_DATA\workspace\CH592F_SSD1306\obj/../src/ssd1306/renderer.c:30
    I2C_Send7bitAddress(OLED_I2C_ADDR << 1, I2C_Direction_Transmitter);
     d40:	790010ef          	jal	ra,24d0 <I2C_Send7bitAddress>
C:\MRS_DATA\workspace\CH592F_SSD1306\obj/../src/ssd1306/renderer.c:31
    while (!I2C_CheckEvent(I2C_EVENT_MASTER_TRANSMITTER_MODE_SELECTED));
     d44:	08240413          	addi	s0,s0,130 # 70082 <_data_lma+0x6928a>
     d48:	8522                	mv	a0,s0
     d4a:	79e010ef          	jal	ra,24e8 <I2C_CheckEvent>
     d4e:	dd6d                	beqz	a0,d48 <OLED_Init+0x466>
C:\MRS_DATA\workspace\CH592F_SSD1306\obj/../src/ssd1306/renderer.c:32
    I2C_SendData(0x00);     // Command mode
     d50:	4501                	li	a0,0
C:\MRS_DATA\workspace\CH592F_SSD1306\obj/../src/ssd1306/renderer.c:33
    while (!I2C_CheckEvent(I2C_EVENT_MASTER_BYTE_TRANSMITTED));
     d52:	00070437          	lui	s0,0x70
C:\MRS_DATA\workspace\CH592F_SSD1306\obj/../src/ssd1306/renderer.c:32
    I2C_SendData(0x00);     // Command mode
     d56:	770010ef          	jal	ra,24c6 <I2C_SendData>
C:\MRS_DATA\workspace\CH592F_SSD1306\obj/../src/ssd1306/renderer.c:33
    while (!I2C_CheckEvent(I2C_EVENT_MASTER_BYTE_TRANSMITTED));
     d5a:	08440413          	addi	s0,s0,132 # 70084 <_data_lma+0x6928c>
     d5e:	8522                	mv	a0,s0
     d60:	788010ef          	jal	ra,24e8 <I2C_CheckEvent>
     d64:	dd6d                	beqz	a0,d5e <OLED_Init+0x47c>
C:\MRS_DATA\workspace\CH592F_SSD1306\obj/../src/ssd1306/renderer.c:34
    I2C_SendData(command);
     d66:	4501                	li	a0,0
C:\MRS_DATA\workspace\CH592F_SSD1306\obj/../src/ssd1306/renderer.c:35
    while (!I2C_CheckEvent(I2C_EVENT_MASTER_BYTE_TRANSMITTED));
     d68:	00070437          	lui	s0,0x70
C:\MRS_DATA\workspace\CH592F_SSD1306\obj/../src/ssd1306/renderer.c:34
    I2C_SendData(command);
     d6c:	75a010ef          	jal	ra,24c6 <I2C_SendData>
C:\MRS_DATA\workspace\CH592F_SSD1306\obj/../src/ssd1306/renderer.c:35
    while (!I2C_CheckEvent(I2C_EVENT_MASTER_BYTE_TRANSMITTED));
     d70:	08440413          	addi	s0,s0,132 # 70084 <_data_lma+0x6928c>
     d74:	8522                	mv	a0,s0
     d76:	772010ef          	jal	ra,24e8 <I2C_CheckEvent>
     d7a:	dd6d                	beqz	a0,d74 <OLED_Init+0x492>
C:\MRS_DATA\workspace\CH592F_SSD1306\obj/../src/ssd1306/renderer.c:36
    I2C_GenerateSTOP(ENABLE);
     d7c:	4505                	li	a0,1
     d7e:	722010ef          	jal	ra,24a0 <I2C_GenerateSTOP>
C:\MRS_DATA\workspace\CH592F_SSD1306\obj/../src/ssd1306/renderer.c:28
    I2C_GenerateSTART(ENABLE);
     d82:	4505                	li	a0,1
C:\MRS_DATA\workspace\CH592F_SSD1306\obj/../src/ssd1306/renderer.c:29
    while (!I2C_CheckEvent(I2C_EVENT_MASTER_MODE_SELECT));
     d84:	00030437          	lui	s0,0x30
C:\MRS_DATA\workspace\CH592F_SSD1306\obj/../src/ssd1306/renderer.c:28
    I2C_GenerateSTART(ENABLE);
     d88:	6f2010ef          	jal	ra,247a <I2C_GenerateSTART>
C:\MRS_DATA\workspace\CH592F_SSD1306\obj/../src/ssd1306/renderer.c:29
    while (!I2C_CheckEvent(I2C_EVENT_MASTER_MODE_SELECT));
     d8c:	0405                	addi	s0,s0,1
     d8e:	8522                	mv	a0,s0
     d90:	758010ef          	jal	ra,24e8 <I2C_CheckEvent>
     d94:	dd6d                	beqz	a0,d8e <OLED_Init+0x4ac>
C:\MRS_DATA\workspace\CH592F_SSD1306\obj/../src/ssd1306/renderer.c:30
    I2C_Send7bitAddress(OLED_I2C_ADDR << 1, I2C_Direction_Transmitter);
     d96:	4581                	li	a1,0
     d98:	07800513          	li	a0,120
C:\MRS_DATA\workspace\CH592F_SSD1306\obj/../src/ssd1306/renderer.c:31
    while (!I2C_CheckEvent(I2C_EVENT_MASTER_TRANSMITTER_MODE_SELECTED));
     d9c:	00070437          	lui	s0,0x70
C:\MRS_DATA\workspace\CH592F_SSD1306\obj/../src/ssd1306/renderer.c:30
    I2C_Send7bitAddress(OLED_I2C_ADDR << 1, I2C_Direction_Transmitter);
     da0:	730010ef          	jal	ra,24d0 <I2C_Send7bitAddress>
C:\MRS_DATA\workspace\CH592F_SSD1306\obj/../src/ssd1306/renderer.c:31
    while (!I2C_CheckEvent(I2C_EVENT_MASTER_TRANSMITTER_MODE_SELECTED));
     da4:	08240413          	addi	s0,s0,130 # 70082 <_data_lma+0x6928a>
     da8:	8522                	mv	a0,s0
     daa:	73e010ef          	jal	ra,24e8 <I2C_CheckEvent>
     dae:	dd6d                	beqz	a0,da8 <OLED_Init+0x4c6>
C:\MRS_DATA\workspace\CH592F_SSD1306\obj/../src/ssd1306/renderer.c:32
    I2C_SendData(0x00);     // Command mode
     db0:	4501                	li	a0,0
C:\MRS_DATA\workspace\CH592F_SSD1306\obj/../src/ssd1306/renderer.c:33
    while (!I2C_CheckEvent(I2C_EVENT_MASTER_BYTE_TRANSMITTED));
     db2:	00070437          	lui	s0,0x70
C:\MRS_DATA\workspace\CH592F_SSD1306\obj/../src/ssd1306/renderer.c:32
    I2C_SendData(0x00);     // Command mode
     db6:	710010ef          	jal	ra,24c6 <I2C_SendData>
C:\MRS_DATA\workspace\CH592F_SSD1306\obj/../src/ssd1306/renderer.c:33
    while (!I2C_CheckEvent(I2C_EVENT_MASTER_BYTE_TRANSMITTED));
     dba:	08440413          	addi	s0,s0,132 # 70084 <_data_lma+0x6928c>
     dbe:	8522                	mv	a0,s0
     dc0:	728010ef          	jal	ra,24e8 <I2C_CheckEvent>
     dc4:	dd6d                	beqz	a0,dbe <OLED_Init+0x4dc>
C:\MRS_DATA\workspace\CH592F_SSD1306\obj/../src/ssd1306/renderer.c:34
    I2C_SendData(command);
     dc6:	0a100513          	li	a0,161
C:\MRS_DATA\workspace\CH592F_SSD1306\obj/../src/ssd1306/renderer.c:35
    while (!I2C_CheckEvent(I2C_EVENT_MASTER_BYTE_TRANSMITTED));
     dca:	00070437          	lui	s0,0x70
C:\MRS_DATA\workspace\CH592F_SSD1306\obj/../src/ssd1306/renderer.c:34
    I2C_SendData(command);
     dce:	6f8010ef          	jal	ra,24c6 <I2C_SendData>
C:\MRS_DATA\workspace\CH592F_SSD1306\obj/../src/ssd1306/renderer.c:35
    while (!I2C_CheckEvent(I2C_EVENT_MASTER_BYTE_TRANSMITTED));
     dd2:	08440413          	addi	s0,s0,132 # 70084 <_data_lma+0x6928c>
     dd6:	8522                	mv	a0,s0
     dd8:	710010ef          	jal	ra,24e8 <I2C_CheckEvent>
     ddc:	dd6d                	beqz	a0,dd6 <OLED_Init+0x4f4>
C:\MRS_DATA\workspace\CH592F_SSD1306\obj/../src/ssd1306/renderer.c:36
    I2C_GenerateSTOP(ENABLE);
     dde:	4505                	li	a0,1
     de0:	6c0010ef          	jal	ra,24a0 <I2C_GenerateSTOP>
C:\MRS_DATA\workspace\CH592F_SSD1306\obj/../src/ssd1306/renderer.c:28
    I2C_GenerateSTART(ENABLE);
     de4:	4505                	li	a0,1
C:\MRS_DATA\workspace\CH592F_SSD1306\obj/../src/ssd1306/renderer.c:29
    while (!I2C_CheckEvent(I2C_EVENT_MASTER_MODE_SELECT));
     de6:	00030437          	lui	s0,0x30
C:\MRS_DATA\workspace\CH592F_SSD1306\obj/../src/ssd1306/renderer.c:28
    I2C_GenerateSTART(ENABLE);
     dea:	690010ef          	jal	ra,247a <I2C_GenerateSTART>
C:\MRS_DATA\workspace\CH592F_SSD1306\obj/../src/ssd1306/renderer.c:29
    while (!I2C_CheckEvent(I2C_EVENT_MASTER_MODE_SELECT));
     dee:	0405                	addi	s0,s0,1
     df0:	8522                	mv	a0,s0
     df2:	6f6010ef          	jal	ra,24e8 <I2C_CheckEvent>
     df6:	dd6d                	beqz	a0,df0 <OLED_Init+0x50e>
C:\MRS_DATA\workspace\CH592F_SSD1306\obj/../src/ssd1306/renderer.c:30
    I2C_Send7bitAddress(OLED_I2C_ADDR << 1, I2C_Direction_Transmitter);
     df8:	4581                	li	a1,0
     dfa:	07800513          	li	a0,120
C:\MRS_DATA\workspace\CH592F_SSD1306\obj/../src/ssd1306/renderer.c:31
    while (!I2C_CheckEvent(I2C_EVENT_MASTER_TRANSMITTER_MODE_SELECTED));
     dfe:	00070437          	lui	s0,0x70
C:\MRS_DATA\workspace\CH592F_SSD1306\obj/../src/ssd1306/renderer.c:30
    I2C_Send7bitAddress(OLED_I2C_ADDR << 1, I2C_Direction_Transmitter);
     e02:	6ce010ef          	jal	ra,24d0 <I2C_Send7bitAddress>
C:\MRS_DATA\workspace\CH592F_SSD1306\obj/../src/ssd1306/renderer.c:31
    while (!I2C_CheckEvent(I2C_EVENT_MASTER_TRANSMITTER_MODE_SELECTED));
     e06:	08240413          	addi	s0,s0,130 # 70082 <_data_lma+0x6928a>
     e0a:	8522                	mv	a0,s0
     e0c:	6dc010ef          	jal	ra,24e8 <I2C_CheckEvent>
     e10:	dd6d                	beqz	a0,e0a <OLED_Init+0x528>
C:\MRS_DATA\workspace\CH592F_SSD1306\obj/../src/ssd1306/renderer.c:32
    I2C_SendData(0x00);     // Command mode
     e12:	4501                	li	a0,0
C:\MRS_DATA\workspace\CH592F_SSD1306\obj/../src/ssd1306/renderer.c:33
    while (!I2C_CheckEvent(I2C_EVENT_MASTER_BYTE_TRANSMITTED));
     e14:	00070437          	lui	s0,0x70
C:\MRS_DATA\workspace\CH592F_SSD1306\obj/../src/ssd1306/renderer.c:32
    I2C_SendData(0x00);     // Command mode
     e18:	6ae010ef          	jal	ra,24c6 <I2C_SendData>
C:\MRS_DATA\workspace\CH592F_SSD1306\obj/../src/ssd1306/renderer.c:33
    while (!I2C_CheckEvent(I2C_EVENT_MASTER_BYTE_TRANSMITTED));
     e1c:	08440413          	addi	s0,s0,132 # 70084 <_data_lma+0x6928c>
     e20:	8522                	mv	a0,s0
     e22:	6c6010ef          	jal	ra,24e8 <I2C_CheckEvent>
     e26:	dd6d                	beqz	a0,e20 <OLED_Init+0x53e>
C:\MRS_DATA\workspace\CH592F_SSD1306\obj/../src/ssd1306/renderer.c:34
    I2C_SendData(command);
     e28:	0c800513          	li	a0,200
C:\MRS_DATA\workspace\CH592F_SSD1306\obj/../src/ssd1306/renderer.c:35
    while (!I2C_CheckEvent(I2C_EVENT_MASTER_BYTE_TRANSMITTED));
     e2c:	00070437          	lui	s0,0x70
C:\MRS_DATA\workspace\CH592F_SSD1306\obj/../src/ssd1306/renderer.c:34
    I2C_SendData(command);
     e30:	696010ef          	jal	ra,24c6 <I2C_SendData>
C:\MRS_DATA\workspace\CH592F_SSD1306\obj/../src/ssd1306/renderer.c:35
    while (!I2C_CheckEvent(I2C_EVENT_MASTER_BYTE_TRANSMITTED));
     e34:	08440413          	addi	s0,s0,132 # 70084 <_data_lma+0x6928c>
     e38:	8522                	mv	a0,s0
     e3a:	6ae010ef          	jal	ra,24e8 <I2C_CheckEvent>
     e3e:	dd6d                	beqz	a0,e38 <OLED_Init+0x556>
C:\MRS_DATA\workspace\CH592F_SSD1306\obj/../src/ssd1306/renderer.c:36
    I2C_GenerateSTOP(ENABLE);
     e40:	4505                	li	a0,1
     e42:	65e010ef          	jal	ra,24a0 <I2C_GenerateSTOP>
C:\MRS_DATA\workspace\CH592F_SSD1306\obj/../src/ssd1306/renderer.c:28
    I2C_GenerateSTART(ENABLE);
     e46:	4505                	li	a0,1
C:\MRS_DATA\workspace\CH592F_SSD1306\obj/../src/ssd1306/renderer.c:29
    while (!I2C_CheckEvent(I2C_EVENT_MASTER_MODE_SELECT));
     e48:	00030437          	lui	s0,0x30
C:\MRS_DATA\workspace\CH592F_SSD1306\obj/../src/ssd1306/renderer.c:28
    I2C_GenerateSTART(ENABLE);
     e4c:	62e010ef          	jal	ra,247a <I2C_GenerateSTART>
C:\MRS_DATA\workspace\CH592F_SSD1306\obj/../src/ssd1306/renderer.c:29
    while (!I2C_CheckEvent(I2C_EVENT_MASTER_MODE_SELECT));
     e50:	0405                	addi	s0,s0,1
     e52:	8522                	mv	a0,s0
     e54:	694010ef          	jal	ra,24e8 <I2C_CheckEvent>
     e58:	dd6d                	beqz	a0,e52 <OLED_Init+0x570>
C:\MRS_DATA\workspace\CH592F_SSD1306\obj/../src/ssd1306/renderer.c:30
    I2C_Send7bitAddress(OLED_I2C_ADDR << 1, I2C_Direction_Transmitter);
     e5a:	4581                	li	a1,0
     e5c:	07800513          	li	a0,120
C:\MRS_DATA\workspace\CH592F_SSD1306\obj/../src/ssd1306/renderer.c:31
    while (!I2C_CheckEvent(I2C_EVENT_MASTER_TRANSMITTER_MODE_SELECTED));
     e60:	00070437          	lui	s0,0x70
C:\MRS_DATA\workspace\CH592F_SSD1306\obj/../src/ssd1306/renderer.c:30
    I2C_Send7bitAddress(OLED_I2C_ADDR << 1, I2C_Direction_Transmitter);
     e64:	66c010ef          	jal	ra,24d0 <I2C_Send7bitAddress>
C:\MRS_DATA\workspace\CH592F_SSD1306\obj/../src/ssd1306/renderer.c:31
    while (!I2C_CheckEvent(I2C_EVENT_MASTER_TRANSMITTER_MODE_SELECTED));
     e68:	08240413          	addi	s0,s0,130 # 70082 <_data_lma+0x6928a>
     e6c:	8522                	mv	a0,s0
     e6e:	67a010ef          	jal	ra,24e8 <I2C_CheckEvent>
     e72:	dd6d                	beqz	a0,e6c <OLED_Init+0x58a>
C:\MRS_DATA\workspace\CH592F_SSD1306\obj/../src/ssd1306/renderer.c:32
    I2C_SendData(0x00);     // Command mode
     e74:	4501                	li	a0,0
C:\MRS_DATA\workspace\CH592F_SSD1306\obj/../src/ssd1306/renderer.c:33
    while (!I2C_CheckEvent(I2C_EVENT_MASTER_BYTE_TRANSMITTED));
     e76:	00070437          	lui	s0,0x70
C:\MRS_DATA\workspace\CH592F_SSD1306\obj/../src/ssd1306/renderer.c:32
    I2C_SendData(0x00);     // Command mode
     e7a:	64c010ef          	jal	ra,24c6 <I2C_SendData>
C:\MRS_DATA\workspace\CH592F_SSD1306\obj/../src/ssd1306/renderer.c:33
    while (!I2C_CheckEvent(I2C_EVENT_MASTER_BYTE_TRANSMITTED));
     e7e:	08440413          	addi	s0,s0,132 # 70084 <_data_lma+0x6928c>
     e82:	8522                	mv	a0,s0
     e84:	664010ef          	jal	ra,24e8 <I2C_CheckEvent>
     e88:	dd6d                	beqz	a0,e82 <OLED_Init+0x5a0>
C:\MRS_DATA\workspace\CH592F_SSD1306\obj/../src/ssd1306/renderer.c:34
    I2C_SendData(command);
     e8a:	0da00513          	li	a0,218
C:\MRS_DATA\workspace\CH592F_SSD1306\obj/../src/ssd1306/renderer.c:35
    while (!I2C_CheckEvent(I2C_EVENT_MASTER_BYTE_TRANSMITTED));
     e8e:	00070437          	lui	s0,0x70
C:\MRS_DATA\workspace\CH592F_SSD1306\obj/../src/ssd1306/renderer.c:34
    I2C_SendData(command);
     e92:	634010ef          	jal	ra,24c6 <I2C_SendData>
C:\MRS_DATA\workspace\CH592F_SSD1306\obj/../src/ssd1306/renderer.c:35
    while (!I2C_CheckEvent(I2C_EVENT_MASTER_BYTE_TRANSMITTED));
     e96:	08440413          	addi	s0,s0,132 # 70084 <_data_lma+0x6928c>
     e9a:	8522                	mv	a0,s0
     e9c:	64c010ef          	jal	ra,24e8 <I2C_CheckEvent>
     ea0:	dd6d                	beqz	a0,e9a <OLED_Init+0x5b8>
C:\MRS_DATA\workspace\CH592F_SSD1306\obj/../src/ssd1306/renderer.c:36
    I2C_GenerateSTOP(ENABLE);
     ea2:	4505                	li	a0,1
     ea4:	5fc010ef          	jal	ra,24a0 <I2C_GenerateSTOP>
C:\MRS_DATA\workspace\CH592F_SSD1306\obj/../src/ssd1306/renderer.c:28
    I2C_GenerateSTART(ENABLE);
     ea8:	4505                	li	a0,1
C:\MRS_DATA\workspace\CH592F_SSD1306\obj/../src/ssd1306/renderer.c:29
    while (!I2C_CheckEvent(I2C_EVENT_MASTER_MODE_SELECT));
     eaa:	00030437          	lui	s0,0x30
C:\MRS_DATA\workspace\CH592F_SSD1306\obj/../src/ssd1306/renderer.c:28
    I2C_GenerateSTART(ENABLE);
     eae:	5cc010ef          	jal	ra,247a <I2C_GenerateSTART>
C:\MRS_DATA\workspace\CH592F_SSD1306\obj/../src/ssd1306/renderer.c:29
    while (!I2C_CheckEvent(I2C_EVENT_MASTER_MODE_SELECT));
     eb2:	0405                	addi	s0,s0,1
     eb4:	8522                	mv	a0,s0
     eb6:	632010ef          	jal	ra,24e8 <I2C_CheckEvent>
     eba:	dd6d                	beqz	a0,eb4 <OLED_Init+0x5d2>
C:\MRS_DATA\workspace\CH592F_SSD1306\obj/../src/ssd1306/renderer.c:30
    I2C_Send7bitAddress(OLED_I2C_ADDR << 1, I2C_Direction_Transmitter);
     ebc:	4581                	li	a1,0
     ebe:	07800513          	li	a0,120
C:\MRS_DATA\workspace\CH592F_SSD1306\obj/../src/ssd1306/renderer.c:31
    while (!I2C_CheckEvent(I2C_EVENT_MASTER_TRANSMITTER_MODE_SELECTED));
     ec2:	00070437          	lui	s0,0x70
C:\MRS_DATA\workspace\CH592F_SSD1306\obj/../src/ssd1306/renderer.c:30
    I2C_Send7bitAddress(OLED_I2C_ADDR << 1, I2C_Direction_Transmitter);
     ec6:	60a010ef          	jal	ra,24d0 <I2C_Send7bitAddress>
C:\MRS_DATA\workspace\CH592F_SSD1306\obj/../src/ssd1306/renderer.c:31
    while (!I2C_CheckEvent(I2C_EVENT_MASTER_TRANSMITTER_MODE_SELECTED));
     eca:	08240413          	addi	s0,s0,130 # 70082 <_data_lma+0x6928a>
     ece:	8522                	mv	a0,s0
     ed0:	618010ef          	jal	ra,24e8 <I2C_CheckEvent>
     ed4:	dd6d                	beqz	a0,ece <OLED_Init+0x5ec>
C:\MRS_DATA\workspace\CH592F_SSD1306\obj/../src/ssd1306/renderer.c:32
    I2C_SendData(0x00);     // Command mode
     ed6:	4501                	li	a0,0
C:\MRS_DATA\workspace\CH592F_SSD1306\obj/../src/ssd1306/renderer.c:33
    while (!I2C_CheckEvent(I2C_EVENT_MASTER_BYTE_TRANSMITTED));
     ed8:	00070437          	lui	s0,0x70
C:\MRS_DATA\workspace\CH592F_SSD1306\obj/../src/ssd1306/renderer.c:32
    I2C_SendData(0x00);     // Command mode
     edc:	5ea010ef          	jal	ra,24c6 <I2C_SendData>
C:\MRS_DATA\workspace\CH592F_SSD1306\obj/../src/ssd1306/renderer.c:33
    while (!I2C_CheckEvent(I2C_EVENT_MASTER_BYTE_TRANSMITTED));
     ee0:	08440413          	addi	s0,s0,132 # 70084 <_data_lma+0x6928c>
     ee4:	8522                	mv	a0,s0
     ee6:	602010ef          	jal	ra,24e8 <I2C_CheckEvent>
     eea:	dd6d                	beqz	a0,ee4 <OLED_Init+0x602>
C:\MRS_DATA\workspace\CH592F_SSD1306\obj/../src/ssd1306/renderer.c:34
    I2C_SendData(command);
     eec:	4509                	li	a0,2
C:\MRS_DATA\workspace\CH592F_SSD1306\obj/../src/ssd1306/renderer.c:35
    while (!I2C_CheckEvent(I2C_EVENT_MASTER_BYTE_TRANSMITTED));
     eee:	00070437          	lui	s0,0x70
C:\MRS_DATA\workspace\CH592F_SSD1306\obj/../src/ssd1306/renderer.c:34
    I2C_SendData(command);
     ef2:	5d4010ef          	jal	ra,24c6 <I2C_SendData>
C:\MRS_DATA\workspace\CH592F_SSD1306\obj/../src/ssd1306/renderer.c:35
    while (!I2C_CheckEvent(I2C_EVENT_MASTER_BYTE_TRANSMITTED));
     ef6:	08440413          	addi	s0,s0,132 # 70084 <_data_lma+0x6928c>
     efa:	8522                	mv	a0,s0
     efc:	5ec010ef          	jal	ra,24e8 <I2C_CheckEvent>
     f00:	dd6d                	beqz	a0,efa <OLED_Init+0x618>
C:\MRS_DATA\workspace\CH592F_SSD1306\obj/../src/ssd1306/renderer.c:36
    I2C_GenerateSTOP(ENABLE);
     f02:	4505                	li	a0,1
     f04:	59c010ef          	jal	ra,24a0 <I2C_GenerateSTOP>
C:\MRS_DATA\workspace\CH592F_SSD1306\obj/../src/ssd1306/renderer.c:28
    I2C_GenerateSTART(ENABLE);
     f08:	4505                	li	a0,1
C:\MRS_DATA\workspace\CH592F_SSD1306\obj/../src/ssd1306/renderer.c:29
    while (!I2C_CheckEvent(I2C_EVENT_MASTER_MODE_SELECT));
     f0a:	00030437          	lui	s0,0x30
C:\MRS_DATA\workspace\CH592F_SSD1306\obj/../src/ssd1306/renderer.c:28
    I2C_GenerateSTART(ENABLE);
     f0e:	56c010ef          	jal	ra,247a <I2C_GenerateSTART>
C:\MRS_DATA\workspace\CH592F_SSD1306\obj/../src/ssd1306/renderer.c:29
    while (!I2C_CheckEvent(I2C_EVENT_MASTER_MODE_SELECT));
     f12:	0405                	addi	s0,s0,1
     f14:	8522                	mv	a0,s0
     f16:	5d2010ef          	jal	ra,24e8 <I2C_CheckEvent>
     f1a:	dd6d                	beqz	a0,f14 <OLED_Init+0x632>
C:\MRS_DATA\workspace\CH592F_SSD1306\obj/../src/ssd1306/renderer.c:30
    I2C_Send7bitAddress(OLED_I2C_ADDR << 1, I2C_Direction_Transmitter);
     f1c:	4581                	li	a1,0
     f1e:	07800513          	li	a0,120
C:\MRS_DATA\workspace\CH592F_SSD1306\obj/../src/ssd1306/renderer.c:31
    while (!I2C_CheckEvent(I2C_EVENT_MASTER_TRANSMITTER_MODE_SELECTED));
     f22:	00070437          	lui	s0,0x70
C:\MRS_DATA\workspace\CH592F_SSD1306\obj/../src/ssd1306/renderer.c:30
    I2C_Send7bitAddress(OLED_I2C_ADDR << 1, I2C_Direction_Transmitter);
     f26:	5aa010ef          	jal	ra,24d0 <I2C_Send7bitAddress>
C:\MRS_DATA\workspace\CH592F_SSD1306\obj/../src/ssd1306/renderer.c:31
    while (!I2C_CheckEvent(I2C_EVENT_MASTER_TRANSMITTER_MODE_SELECTED));
     f2a:	08240413          	addi	s0,s0,130 # 70082 <_data_lma+0x6928a>
     f2e:	8522                	mv	a0,s0
     f30:	5b8010ef          	jal	ra,24e8 <I2C_CheckEvent>
     f34:	dd6d                	beqz	a0,f2e <OLED_Init+0x64c>
C:\MRS_DATA\workspace\CH592F_SSD1306\obj/../src/ssd1306/renderer.c:32
    I2C_SendData(0x00);     // Command mode
     f36:	4501                	li	a0,0
C:\MRS_DATA\workspace\CH592F_SSD1306\obj/../src/ssd1306/renderer.c:33
    while (!I2C_CheckEvent(I2C_EVENT_MASTER_BYTE_TRANSMITTED));
     f38:	00070437          	lui	s0,0x70
C:\MRS_DATA\workspace\CH592F_SSD1306\obj/../src/ssd1306/renderer.c:32
    I2C_SendData(0x00);     // Command mode
     f3c:	58a010ef          	jal	ra,24c6 <I2C_SendData>
C:\MRS_DATA\workspace\CH592F_SSD1306\obj/../src/ssd1306/renderer.c:33
    while (!I2C_CheckEvent(I2C_EVENT_MASTER_BYTE_TRANSMITTED));
     f40:	08440413          	addi	s0,s0,132 # 70084 <_data_lma+0x6928c>
     f44:	8522                	mv	a0,s0
     f46:	5a2010ef          	jal	ra,24e8 <I2C_CheckEvent>
     f4a:	dd6d                	beqz	a0,f44 <OLED_Init+0x662>
C:\MRS_DATA\workspace\CH592F_SSD1306\obj/../src/ssd1306/renderer.c:34
    I2C_SendData(command);
     f4c:	08100513          	li	a0,129
C:\MRS_DATA\workspace\CH592F_SSD1306\obj/../src/ssd1306/renderer.c:35
    while (!I2C_CheckEvent(I2C_EVENT_MASTER_BYTE_TRANSMITTED));
     f50:	00070437          	lui	s0,0x70
C:\MRS_DATA\workspace\CH592F_SSD1306\obj/../src/ssd1306/renderer.c:34
    I2C_SendData(command);
     f54:	572010ef          	jal	ra,24c6 <I2C_SendData>
C:\MRS_DATA\workspace\CH592F_SSD1306\obj/../src/ssd1306/renderer.c:35
    while (!I2C_CheckEvent(I2C_EVENT_MASTER_BYTE_TRANSMITTED));
     f58:	08440413          	addi	s0,s0,132 # 70084 <_data_lma+0x6928c>
     f5c:	8522                	mv	a0,s0
     f5e:	58a010ef          	jal	ra,24e8 <I2C_CheckEvent>
     f62:	dd6d                	beqz	a0,f5c <OLED_Init+0x67a>
C:\MRS_DATA\workspace\CH592F_SSD1306\obj/../src/ssd1306/renderer.c:36
    I2C_GenerateSTOP(ENABLE);
     f64:	4505                	li	a0,1
     f66:	53a010ef          	jal	ra,24a0 <I2C_GenerateSTOP>
C:\MRS_DATA\workspace\CH592F_SSD1306\obj/../src/ssd1306/renderer.c:28
    I2C_GenerateSTART(ENABLE);
     f6a:	4505                	li	a0,1
C:\MRS_DATA\workspace\CH592F_SSD1306\obj/../src/ssd1306/renderer.c:29
    while (!I2C_CheckEvent(I2C_EVENT_MASTER_MODE_SELECT));
     f6c:	00030437          	lui	s0,0x30
C:\MRS_DATA\workspace\CH592F_SSD1306\obj/../src/ssd1306/renderer.c:28
    I2C_GenerateSTART(ENABLE);
     f70:	50a010ef          	jal	ra,247a <I2C_GenerateSTART>
C:\MRS_DATA\workspace\CH592F_SSD1306\obj/../src/ssd1306/renderer.c:29
    while (!I2C_CheckEvent(I2C_EVENT_MASTER_MODE_SELECT));
     f74:	0405                	addi	s0,s0,1
     f76:	8522                	mv	a0,s0
     f78:	570010ef          	jal	ra,24e8 <I2C_CheckEvent>
     f7c:	dd6d                	beqz	a0,f76 <OLED_Init+0x694>
C:\MRS_DATA\workspace\CH592F_SSD1306\obj/../src/ssd1306/renderer.c:30
    I2C_Send7bitAddress(OLED_I2C_ADDR << 1, I2C_Direction_Transmitter);
     f7e:	4581                	li	a1,0
     f80:	07800513          	li	a0,120
C:\MRS_DATA\workspace\CH592F_SSD1306\obj/../src/ssd1306/renderer.c:31
    while (!I2C_CheckEvent(I2C_EVENT_MASTER_TRANSMITTER_MODE_SELECTED));
     f84:	00070437          	lui	s0,0x70
C:\MRS_DATA\workspace\CH592F_SSD1306\obj/../src/ssd1306/renderer.c:30
    I2C_Send7bitAddress(OLED_I2C_ADDR << 1, I2C_Direction_Transmitter);
     f88:	548010ef          	jal	ra,24d0 <I2C_Send7bitAddress>
C:\MRS_DATA\workspace\CH592F_SSD1306\obj/../src/ssd1306/renderer.c:31
    while (!I2C_CheckEvent(I2C_EVENT_MASTER_TRANSMITTER_MODE_SELECTED));
     f8c:	08240413          	addi	s0,s0,130 # 70082 <_data_lma+0x6928a>
     f90:	8522                	mv	a0,s0
     f92:	556010ef          	jal	ra,24e8 <I2C_CheckEvent>
     f96:	dd6d                	beqz	a0,f90 <OLED_Init+0x6ae>
C:\MRS_DATA\workspace\CH592F_SSD1306\obj/../src/ssd1306/renderer.c:32
    I2C_SendData(0x00);     // Command mode
     f98:	4501                	li	a0,0
C:\MRS_DATA\workspace\CH592F_SSD1306\obj/../src/ssd1306/renderer.c:33
    while (!I2C_CheckEvent(I2C_EVENT_MASTER_BYTE_TRANSMITTED));
     f9a:	00070437          	lui	s0,0x70
C:\MRS_DATA\workspace\CH592F_SSD1306\obj/../src/ssd1306/renderer.c:32
    I2C_SendData(0x00);     // Command mode
     f9e:	528010ef          	jal	ra,24c6 <I2C_SendData>
C:\MRS_DATA\workspace\CH592F_SSD1306\obj/../src/ssd1306/renderer.c:33
    while (!I2C_CheckEvent(I2C_EVENT_MASTER_BYTE_TRANSMITTED));
     fa2:	08440413          	addi	s0,s0,132 # 70084 <_data_lma+0x6928c>
     fa6:	8522                	mv	a0,s0
     fa8:	540010ef          	jal	ra,24e8 <I2C_CheckEvent>
     fac:	dd6d                	beqz	a0,fa6 <OLED_Init+0x6c4>
C:\MRS_DATA\workspace\CH592F_SSD1306\obj/../src/ssd1306/renderer.c:34
    I2C_SendData(command);
     fae:	08f00513          	li	a0,143
C:\MRS_DATA\workspace\CH592F_SSD1306\obj/../src/ssd1306/renderer.c:35
    while (!I2C_CheckEvent(I2C_EVENT_MASTER_BYTE_TRANSMITTED));
     fb2:	00070437          	lui	s0,0x70
C:\MRS_DATA\workspace\CH592F_SSD1306\obj/../src/ssd1306/renderer.c:34
    I2C_SendData(command);
     fb6:	510010ef          	jal	ra,24c6 <I2C_SendData>
C:\MRS_DATA\workspace\CH592F_SSD1306\obj/../src/ssd1306/renderer.c:35
    while (!I2C_CheckEvent(I2C_EVENT_MASTER_BYTE_TRANSMITTED));
     fba:	08440413          	addi	s0,s0,132 # 70084 <_data_lma+0x6928c>
     fbe:	8522                	mv	a0,s0
     fc0:	528010ef          	jal	ra,24e8 <I2C_CheckEvent>
     fc4:	dd6d                	beqz	a0,fbe <OLED_Init+0x6dc>
C:\MRS_DATA\workspace\CH592F_SSD1306\obj/../src/ssd1306/renderer.c:36
    I2C_GenerateSTOP(ENABLE);
     fc6:	4505                	li	a0,1
     fc8:	4d8010ef          	jal	ra,24a0 <I2C_GenerateSTOP>
C:\MRS_DATA\workspace\CH592F_SSD1306\obj/../src/ssd1306/renderer.c:28
    I2C_GenerateSTART(ENABLE);
     fcc:	4505                	li	a0,1
C:\MRS_DATA\workspace\CH592F_SSD1306\obj/../src/ssd1306/renderer.c:29
    while (!I2C_CheckEvent(I2C_EVENT_MASTER_MODE_SELECT));
     fce:	00030437          	lui	s0,0x30
C:\MRS_DATA\workspace\CH592F_SSD1306\obj/../src/ssd1306/renderer.c:28
    I2C_GenerateSTART(ENABLE);
     fd2:	4a8010ef          	jal	ra,247a <I2C_GenerateSTART>
C:\MRS_DATA\workspace\CH592F_SSD1306\obj/../src/ssd1306/renderer.c:29
    while (!I2C_CheckEvent(I2C_EVENT_MASTER_MODE_SELECT));
     fd6:	0405                	addi	s0,s0,1
     fd8:	8522                	mv	a0,s0
     fda:	50e010ef          	jal	ra,24e8 <I2C_CheckEvent>
     fde:	dd6d                	beqz	a0,fd8 <OLED_Init+0x6f6>
C:\MRS_DATA\workspace\CH592F_SSD1306\obj/../src/ssd1306/renderer.c:30
    I2C_Send7bitAddress(OLED_I2C_ADDR << 1, I2C_Direction_Transmitter);
     fe0:	4581                	li	a1,0
     fe2:	07800513          	li	a0,120
C:\MRS_DATA\workspace\CH592F_SSD1306\obj/../src/ssd1306/renderer.c:31
    while (!I2C_CheckEvent(I2C_EVENT_MASTER_TRANSMITTER_MODE_SELECTED));
     fe6:	00070437          	lui	s0,0x70
C:\MRS_DATA\workspace\CH592F_SSD1306\obj/../src/ssd1306/renderer.c:30
    I2C_Send7bitAddress(OLED_I2C_ADDR << 1, I2C_Direction_Transmitter);
     fea:	4e6010ef          	jal	ra,24d0 <I2C_Send7bitAddress>
C:\MRS_DATA\workspace\CH592F_SSD1306\obj/../src/ssd1306/renderer.c:31
    while (!I2C_CheckEvent(I2C_EVENT_MASTER_TRANSMITTER_MODE_SELECTED));
     fee:	08240413          	addi	s0,s0,130 # 70082 <_data_lma+0x6928a>
     ff2:	8522                	mv	a0,s0
     ff4:	4f4010ef          	jal	ra,24e8 <I2C_CheckEvent>
     ff8:	dd6d                	beqz	a0,ff2 <OLED_Init+0x710>
C:\MRS_DATA\workspace\CH592F_SSD1306\obj/../src/ssd1306/renderer.c:32
    I2C_SendData(0x00);     // Command mode
     ffa:	4501                	li	a0,0
C:\MRS_DATA\workspace\CH592F_SSD1306\obj/../src/ssd1306/renderer.c:33
    while (!I2C_CheckEvent(I2C_EVENT_MASTER_BYTE_TRANSMITTED));
     ffc:	00070437          	lui	s0,0x70
C:\MRS_DATA\workspace\CH592F_SSD1306\obj/../src/ssd1306/renderer.c:32
    I2C_SendData(0x00);     // Command mode
    1000:	4c6010ef          	jal	ra,24c6 <I2C_SendData>
C:\MRS_DATA\workspace\CH592F_SSD1306\obj/../src/ssd1306/renderer.c:33
    while (!I2C_CheckEvent(I2C_EVENT_MASTER_BYTE_TRANSMITTED));
    1004:	08440413          	addi	s0,s0,132 # 70084 <_data_lma+0x6928c>
    1008:	8522                	mv	a0,s0
    100a:	4de010ef          	jal	ra,24e8 <I2C_CheckEvent>
    100e:	dd6d                	beqz	a0,1008 <OLED_Init+0x726>
C:\MRS_DATA\workspace\CH592F_SSD1306\obj/../src/ssd1306/renderer.c:34
    I2C_SendData(command);
    1010:	0d900513          	li	a0,217
C:\MRS_DATA\workspace\CH592F_SSD1306\obj/../src/ssd1306/renderer.c:35
    while (!I2C_CheckEvent(I2C_EVENT_MASTER_BYTE_TRANSMITTED));
    1014:	00070437          	lui	s0,0x70
C:\MRS_DATA\workspace\CH592F_SSD1306\obj/../src/ssd1306/renderer.c:34
    I2C_SendData(command);
    1018:	4ae010ef          	jal	ra,24c6 <I2C_SendData>
C:\MRS_DATA\workspace\CH592F_SSD1306\obj/../src/ssd1306/renderer.c:35
    while (!I2C_CheckEvent(I2C_EVENT_MASTER_BYTE_TRANSMITTED));
    101c:	08440413          	addi	s0,s0,132 # 70084 <_data_lma+0x6928c>
    1020:	8522                	mv	a0,s0
    1022:	4c6010ef          	jal	ra,24e8 <I2C_CheckEvent>
    1026:	dd6d                	beqz	a0,1020 <OLED_Init+0x73e>
C:\MRS_DATA\workspace\CH592F_SSD1306\obj/../src/ssd1306/renderer.c:36
    I2C_GenerateSTOP(ENABLE);
    1028:	4505                	li	a0,1
    102a:	476010ef          	jal	ra,24a0 <I2C_GenerateSTOP>
C:\MRS_DATA\workspace\CH592F_SSD1306\obj/../src/ssd1306/renderer.c:28
    I2C_GenerateSTART(ENABLE);
    102e:	4505                	li	a0,1
C:\MRS_DATA\workspace\CH592F_SSD1306\obj/../src/ssd1306/renderer.c:29
    while (!I2C_CheckEvent(I2C_EVENT_MASTER_MODE_SELECT));
    1030:	00030437          	lui	s0,0x30
C:\MRS_DATA\workspace\CH592F_SSD1306\obj/../src/ssd1306/renderer.c:28
    I2C_GenerateSTART(ENABLE);
    1034:	446010ef          	jal	ra,247a <I2C_GenerateSTART>
C:\MRS_DATA\workspace\CH592F_SSD1306\obj/../src/ssd1306/renderer.c:29
    while (!I2C_CheckEvent(I2C_EVENT_MASTER_MODE_SELECT));
    1038:	0405                	addi	s0,s0,1
    103a:	8522                	mv	a0,s0
    103c:	4ac010ef          	jal	ra,24e8 <I2C_CheckEvent>
    1040:	dd6d                	beqz	a0,103a <OLED_Init+0x758>
C:\MRS_DATA\workspace\CH592F_SSD1306\obj/../src/ssd1306/renderer.c:30
    I2C_Send7bitAddress(OLED_I2C_ADDR << 1, I2C_Direction_Transmitter);
    1042:	4581                	li	a1,0
    1044:	07800513          	li	a0,120
C:\MRS_DATA\workspace\CH592F_SSD1306\obj/../src/ssd1306/renderer.c:31
    while (!I2C_CheckEvent(I2C_EVENT_MASTER_TRANSMITTER_MODE_SELECTED));
    1048:	00070437          	lui	s0,0x70
C:\MRS_DATA\workspace\CH592F_SSD1306\obj/../src/ssd1306/renderer.c:30
    I2C_Send7bitAddress(OLED_I2C_ADDR << 1, I2C_Direction_Transmitter);
    104c:	484010ef          	jal	ra,24d0 <I2C_Send7bitAddress>
C:\MRS_DATA\workspace\CH592F_SSD1306\obj/../src/ssd1306/renderer.c:31
    while (!I2C_CheckEvent(I2C_EVENT_MASTER_TRANSMITTER_MODE_SELECTED));
    1050:	08240413          	addi	s0,s0,130 # 70082 <_data_lma+0x6928a>
    1054:	8522                	mv	a0,s0
    1056:	492010ef          	jal	ra,24e8 <I2C_CheckEvent>
    105a:	dd6d                	beqz	a0,1054 <OLED_Init+0x772>
C:\MRS_DATA\workspace\CH592F_SSD1306\obj/../src/ssd1306/renderer.c:32
    I2C_SendData(0x00);     // Command mode
    105c:	4501                	li	a0,0
C:\MRS_DATA\workspace\CH592F_SSD1306\obj/../src/ssd1306/renderer.c:33
    while (!I2C_CheckEvent(I2C_EVENT_MASTER_BYTE_TRANSMITTED));
    105e:	00070437          	lui	s0,0x70
C:\MRS_DATA\workspace\CH592F_SSD1306\obj/../src/ssd1306/renderer.c:32
    I2C_SendData(0x00);     // Command mode
    1062:	464010ef          	jal	ra,24c6 <I2C_SendData>
C:\MRS_DATA\workspace\CH592F_SSD1306\obj/../src/ssd1306/renderer.c:33
    while (!I2C_CheckEvent(I2C_EVENT_MASTER_BYTE_TRANSMITTED));
    1066:	08440413          	addi	s0,s0,132 # 70084 <_data_lma+0x6928c>
    106a:	8522                	mv	a0,s0
    106c:	47c010ef          	jal	ra,24e8 <I2C_CheckEvent>
    1070:	dd6d                	beqz	a0,106a <OLED_Init+0x788>
C:\MRS_DATA\workspace\CH592F_SSD1306\obj/../src/ssd1306/renderer.c:34
    I2C_SendData(command);
    1072:	0f100513          	li	a0,241
C:\MRS_DATA\workspace\CH592F_SSD1306\obj/../src/ssd1306/renderer.c:35
    while (!I2C_CheckEvent(I2C_EVENT_MASTER_BYTE_TRANSMITTED));
    1076:	00070437          	lui	s0,0x70
C:\MRS_DATA\workspace\CH592F_SSD1306\obj/../src/ssd1306/renderer.c:34
    I2C_SendData(command);
    107a:	44c010ef          	jal	ra,24c6 <I2C_SendData>
C:\MRS_DATA\workspace\CH592F_SSD1306\obj/../src/ssd1306/renderer.c:35
    while (!I2C_CheckEvent(I2C_EVENT_MASTER_BYTE_TRANSMITTED));
    107e:	08440413          	addi	s0,s0,132 # 70084 <_data_lma+0x6928c>
    1082:	8522                	mv	a0,s0
    1084:	464010ef          	jal	ra,24e8 <I2C_CheckEvent>
    1088:	dd6d                	beqz	a0,1082 <OLED_Init+0x7a0>
C:\MRS_DATA\workspace\CH592F_SSD1306\obj/../src/ssd1306/renderer.c:36
    I2C_GenerateSTOP(ENABLE);
    108a:	4505                	li	a0,1
    108c:	414010ef          	jal	ra,24a0 <I2C_GenerateSTOP>
C:\MRS_DATA\workspace\CH592F_SSD1306\obj/../src/ssd1306/renderer.c:28
    I2C_GenerateSTART(ENABLE);
    1090:	4505                	li	a0,1
C:\MRS_DATA\workspace\CH592F_SSD1306\obj/../src/ssd1306/renderer.c:29
    while (!I2C_CheckEvent(I2C_EVENT_MASTER_MODE_SELECT));
    1092:	00030437          	lui	s0,0x30
C:\MRS_DATA\workspace\CH592F_SSD1306\obj/../src/ssd1306/renderer.c:28
    I2C_GenerateSTART(ENABLE);
    1096:	3e4010ef          	jal	ra,247a <I2C_GenerateSTART>
C:\MRS_DATA\workspace\CH592F_SSD1306\obj/../src/ssd1306/renderer.c:29
    while (!I2C_CheckEvent(I2C_EVENT_MASTER_MODE_SELECT));
    109a:	0405                	addi	s0,s0,1
    109c:	8522                	mv	a0,s0
    109e:	44a010ef          	jal	ra,24e8 <I2C_CheckEvent>
    10a2:	dd6d                	beqz	a0,109c <OLED_Init+0x7ba>
C:\MRS_DATA\workspace\CH592F_SSD1306\obj/../src/ssd1306/renderer.c:30
    I2C_Send7bitAddress(OLED_I2C_ADDR << 1, I2C_Direction_Transmitter);
    10a4:	4581                	li	a1,0
    10a6:	07800513          	li	a0,120
C:\MRS_DATA\workspace\CH592F_SSD1306\obj/../src/ssd1306/renderer.c:31
    while (!I2C_CheckEvent(I2C_EVENT_MASTER_TRANSMITTER_MODE_SELECTED));
    10aa:	00070437          	lui	s0,0x70
C:\MRS_DATA\workspace\CH592F_SSD1306\obj/../src/ssd1306/renderer.c:30
    I2C_Send7bitAddress(OLED_I2C_ADDR << 1, I2C_Direction_Transmitter);
    10ae:	422010ef          	jal	ra,24d0 <I2C_Send7bitAddress>
C:\MRS_DATA\workspace\CH592F_SSD1306\obj/../src/ssd1306/renderer.c:31
    while (!I2C_CheckEvent(I2C_EVENT_MASTER_TRANSMITTER_MODE_SELECTED));
    10b2:	08240413          	addi	s0,s0,130 # 70082 <_data_lma+0x6928a>
    10b6:	8522                	mv	a0,s0
    10b8:	430010ef          	jal	ra,24e8 <I2C_CheckEvent>
    10bc:	dd6d                	beqz	a0,10b6 <OLED_Init+0x7d4>
C:\MRS_DATA\workspace\CH592F_SSD1306\obj/../src/ssd1306/renderer.c:32
    I2C_SendData(0x00);     // Command mode
    10be:	4501                	li	a0,0
C:\MRS_DATA\workspace\CH592F_SSD1306\obj/../src/ssd1306/renderer.c:33
    while (!I2C_CheckEvent(I2C_EVENT_MASTER_BYTE_TRANSMITTED));
    10c0:	00070437          	lui	s0,0x70
C:\MRS_DATA\workspace\CH592F_SSD1306\obj/../src/ssd1306/renderer.c:32
    I2C_SendData(0x00);     // Command mode
    10c4:	402010ef          	jal	ra,24c6 <I2C_SendData>
C:\MRS_DATA\workspace\CH592F_SSD1306\obj/../src/ssd1306/renderer.c:33
    while (!I2C_CheckEvent(I2C_EVENT_MASTER_BYTE_TRANSMITTED));
    10c8:	08440413          	addi	s0,s0,132 # 70084 <_data_lma+0x6928c>
    10cc:	8522                	mv	a0,s0
    10ce:	41a010ef          	jal	ra,24e8 <I2C_CheckEvent>
    10d2:	dd6d                	beqz	a0,10cc <OLED_Init+0x7ea>
C:\MRS_DATA\workspace\CH592F_SSD1306\obj/../src/ssd1306/renderer.c:34
    I2C_SendData(command);
    10d4:	0db00513          	li	a0,219
C:\MRS_DATA\workspace\CH592F_SSD1306\obj/../src/ssd1306/renderer.c:35
    while (!I2C_CheckEvent(I2C_EVENT_MASTER_BYTE_TRANSMITTED));
    10d8:	00070437          	lui	s0,0x70
C:\MRS_DATA\workspace\CH592F_SSD1306\obj/../src/ssd1306/renderer.c:34
    I2C_SendData(command);
    10dc:	3ea010ef          	jal	ra,24c6 <I2C_SendData>
C:\MRS_DATA\workspace\CH592F_SSD1306\obj/../src/ssd1306/renderer.c:35
    while (!I2C_CheckEvent(I2C_EVENT_MASTER_BYTE_TRANSMITTED));
    10e0:	08440413          	addi	s0,s0,132 # 70084 <_data_lma+0x6928c>
    10e4:	8522                	mv	a0,s0
    10e6:	402010ef          	jal	ra,24e8 <I2C_CheckEvent>
    10ea:	dd6d                	beqz	a0,10e4 <OLED_Init+0x802>
C:\MRS_DATA\workspace\CH592F_SSD1306\obj/../src/ssd1306/renderer.c:36
    I2C_GenerateSTOP(ENABLE);
    10ec:	4505                	li	a0,1
    10ee:	3b2010ef          	jal	ra,24a0 <I2C_GenerateSTOP>
C:\MRS_DATA\workspace\CH592F_SSD1306\obj/../src/ssd1306/renderer.c:28
    I2C_GenerateSTART(ENABLE);
    10f2:	4505                	li	a0,1
C:\MRS_DATA\workspace\CH592F_SSD1306\obj/../src/ssd1306/renderer.c:29
    while (!I2C_CheckEvent(I2C_EVENT_MASTER_MODE_SELECT));
    10f4:	00030437          	lui	s0,0x30
C:\MRS_DATA\workspace\CH592F_SSD1306\obj/../src/ssd1306/renderer.c:28
    I2C_GenerateSTART(ENABLE);
    10f8:	382010ef          	jal	ra,247a <I2C_GenerateSTART>
C:\MRS_DATA\workspace\CH592F_SSD1306\obj/../src/ssd1306/renderer.c:29
    while (!I2C_CheckEvent(I2C_EVENT_MASTER_MODE_SELECT));
    10fc:	0405                	addi	s0,s0,1
    10fe:	8522                	mv	a0,s0
    1100:	3e8010ef          	jal	ra,24e8 <I2C_CheckEvent>
    1104:	dd6d                	beqz	a0,10fe <OLED_Init+0x81c>
C:\MRS_DATA\workspace\CH592F_SSD1306\obj/../src/ssd1306/renderer.c:30
    I2C_Send7bitAddress(OLED_I2C_ADDR << 1, I2C_Direction_Transmitter);
    1106:	4581                	li	a1,0
    1108:	07800513          	li	a0,120
C:\MRS_DATA\workspace\CH592F_SSD1306\obj/../src/ssd1306/renderer.c:31
    while (!I2C_CheckEvent(I2C_EVENT_MASTER_TRANSMITTER_MODE_SELECTED));
    110c:	00070437          	lui	s0,0x70
C:\MRS_DATA\workspace\CH592F_SSD1306\obj/../src/ssd1306/renderer.c:30
    I2C_Send7bitAddress(OLED_I2C_ADDR << 1, I2C_Direction_Transmitter);
    1110:	3c0010ef          	jal	ra,24d0 <I2C_Send7bitAddress>
C:\MRS_DATA\workspace\CH592F_SSD1306\obj/../src/ssd1306/renderer.c:31
    while (!I2C_CheckEvent(I2C_EVENT_MASTER_TRANSMITTER_MODE_SELECTED));
    1114:	08240413          	addi	s0,s0,130 # 70082 <_data_lma+0x6928a>
    1118:	8522                	mv	a0,s0
    111a:	3ce010ef          	jal	ra,24e8 <I2C_CheckEvent>
    111e:	dd6d                	beqz	a0,1118 <OLED_Init+0x836>
C:\MRS_DATA\workspace\CH592F_SSD1306\obj/../src/ssd1306/renderer.c:32
    I2C_SendData(0x00);     // Command mode
    1120:	4501                	li	a0,0
C:\MRS_DATA\workspace\CH592F_SSD1306\obj/../src/ssd1306/renderer.c:33
    while (!I2C_CheckEvent(I2C_EVENT_MASTER_BYTE_TRANSMITTED));
    1122:	00070437          	lui	s0,0x70
C:\MRS_DATA\workspace\CH592F_SSD1306\obj/../src/ssd1306/renderer.c:32
    I2C_SendData(0x00);     // Command mode
    1126:	3a0010ef          	jal	ra,24c6 <I2C_SendData>
C:\MRS_DATA\workspace\CH592F_SSD1306\obj/../src/ssd1306/renderer.c:33
    while (!I2C_CheckEvent(I2C_EVENT_MASTER_BYTE_TRANSMITTED));
    112a:	08440413          	addi	s0,s0,132 # 70084 <_data_lma+0x6928c>
    112e:	8522                	mv	a0,s0
    1130:	3b8010ef          	jal	ra,24e8 <I2C_CheckEvent>
    1134:	dd6d                	beqz	a0,112e <OLED_Init+0x84c>
C:\MRS_DATA\workspace\CH592F_SSD1306\obj/../src/ssd1306/renderer.c:34
    I2C_SendData(command);
    1136:	04000513          	li	a0,64
C:\MRS_DATA\workspace\CH592F_SSD1306\obj/../src/ssd1306/renderer.c:35
    while (!I2C_CheckEvent(I2C_EVENT_MASTER_BYTE_TRANSMITTED));
    113a:	00070437          	lui	s0,0x70
C:\MRS_DATA\workspace\CH592F_SSD1306\obj/../src/ssd1306/renderer.c:34
    I2C_SendData(command);
    113e:	388010ef          	jal	ra,24c6 <I2C_SendData>
C:\MRS_DATA\workspace\CH592F_SSD1306\obj/../src/ssd1306/renderer.c:35
    while (!I2C_CheckEvent(I2C_EVENT_MASTER_BYTE_TRANSMITTED));
    1142:	08440413          	addi	s0,s0,132 # 70084 <_data_lma+0x6928c>
    1146:	8522                	mv	a0,s0
    1148:	3a0010ef          	jal	ra,24e8 <I2C_CheckEvent>
    114c:	dd6d                	beqz	a0,1146 <OLED_Init+0x864>
C:\MRS_DATA\workspace\CH592F_SSD1306\obj/../src/ssd1306/renderer.c:36
    I2C_GenerateSTOP(ENABLE);
    114e:	4505                	li	a0,1
    1150:	350010ef          	jal	ra,24a0 <I2C_GenerateSTOP>
C:\MRS_DATA\workspace\CH592F_SSD1306\obj/../src/ssd1306/renderer.c:28
    I2C_GenerateSTART(ENABLE);
    1154:	4505                	li	a0,1
C:\MRS_DATA\workspace\CH592F_SSD1306\obj/../src/ssd1306/renderer.c:29
    while (!I2C_CheckEvent(I2C_EVENT_MASTER_MODE_SELECT));
    1156:	00030437          	lui	s0,0x30
C:\MRS_DATA\workspace\CH592F_SSD1306\obj/../src/ssd1306/renderer.c:28
    I2C_GenerateSTART(ENABLE);
    115a:	320010ef          	jal	ra,247a <I2C_GenerateSTART>
C:\MRS_DATA\workspace\CH592F_SSD1306\obj/../src/ssd1306/renderer.c:29
    while (!I2C_CheckEvent(I2C_EVENT_MASTER_MODE_SELECT));
    115e:	0405                	addi	s0,s0,1
    1160:	8522                	mv	a0,s0
    1162:	386010ef          	jal	ra,24e8 <I2C_CheckEvent>
    1166:	dd6d                	beqz	a0,1160 <OLED_Init+0x87e>
C:\MRS_DATA\workspace\CH592F_SSD1306\obj/../src/ssd1306/renderer.c:30
    I2C_Send7bitAddress(OLED_I2C_ADDR << 1, I2C_Direction_Transmitter);
    1168:	4581                	li	a1,0
    116a:	07800513          	li	a0,120
C:\MRS_DATA\workspace\CH592F_SSD1306\obj/../src/ssd1306/renderer.c:31
    while (!I2C_CheckEvent(I2C_EVENT_MASTER_TRANSMITTER_MODE_SELECTED));
    116e:	00070437          	lui	s0,0x70
C:\MRS_DATA\workspace\CH592F_SSD1306\obj/../src/ssd1306/renderer.c:30
    I2C_Send7bitAddress(OLED_I2C_ADDR << 1, I2C_Direction_Transmitter);
    1172:	35e010ef          	jal	ra,24d0 <I2C_Send7bitAddress>
C:\MRS_DATA\workspace\CH592F_SSD1306\obj/../src/ssd1306/renderer.c:31
    while (!I2C_CheckEvent(I2C_EVENT_MASTER_TRANSMITTER_MODE_SELECTED));
    1176:	08240413          	addi	s0,s0,130 # 70082 <_data_lma+0x6928a>
    117a:	8522                	mv	a0,s0
    117c:	36c010ef          	jal	ra,24e8 <I2C_CheckEvent>
    1180:	dd6d                	beqz	a0,117a <OLED_Init+0x898>
C:\MRS_DATA\workspace\CH592F_SSD1306\obj/../src/ssd1306/renderer.c:32
    I2C_SendData(0x00);     // Command mode
    1182:	4501                	li	a0,0
C:\MRS_DATA\workspace\CH592F_SSD1306\obj/../src/ssd1306/renderer.c:33
    while (!I2C_CheckEvent(I2C_EVENT_MASTER_BYTE_TRANSMITTED));
    1184:	00070437          	lui	s0,0x70
C:\MRS_DATA\workspace\CH592F_SSD1306\obj/../src/ssd1306/renderer.c:32
    I2C_SendData(0x00);     // Command mode
    1188:	33e010ef          	jal	ra,24c6 <I2C_SendData>
C:\MRS_DATA\workspace\CH592F_SSD1306\obj/../src/ssd1306/renderer.c:33
    while (!I2C_CheckEvent(I2C_EVENT_MASTER_BYTE_TRANSMITTED));
    118c:	08440413          	addi	s0,s0,132 # 70084 <_data_lma+0x6928c>
    1190:	8522                	mv	a0,s0
    1192:	356010ef          	jal	ra,24e8 <I2C_CheckEvent>
    1196:	dd6d                	beqz	a0,1190 <OLED_Init+0x8ae>
C:\MRS_DATA\workspace\CH592F_SSD1306\obj/../src/ssd1306/renderer.c:34
    I2C_SendData(command);
    1198:	0a400513          	li	a0,164
C:\MRS_DATA\workspace\CH592F_SSD1306\obj/../src/ssd1306/renderer.c:35
    while (!I2C_CheckEvent(I2C_EVENT_MASTER_BYTE_TRANSMITTED));
    119c:	00070437          	lui	s0,0x70
C:\MRS_DATA\workspace\CH592F_SSD1306\obj/../src/ssd1306/renderer.c:34
    I2C_SendData(command);
    11a0:	326010ef          	jal	ra,24c6 <I2C_SendData>
C:\MRS_DATA\workspace\CH592F_SSD1306\obj/../src/ssd1306/renderer.c:35
    while (!I2C_CheckEvent(I2C_EVENT_MASTER_BYTE_TRANSMITTED));
    11a4:	08440413          	addi	s0,s0,132 # 70084 <_data_lma+0x6928c>
    11a8:	8522                	mv	a0,s0
    11aa:	33e010ef          	jal	ra,24e8 <I2C_CheckEvent>
    11ae:	dd6d                	beqz	a0,11a8 <OLED_Init+0x8c6>
C:\MRS_DATA\workspace\CH592F_SSD1306\obj/../src/ssd1306/renderer.c:36
    I2C_GenerateSTOP(ENABLE);
    11b0:	4505                	li	a0,1
    11b2:	2ee010ef          	jal	ra,24a0 <I2C_GenerateSTOP>
C:\MRS_DATA\workspace\CH592F_SSD1306\obj/../src/ssd1306/renderer.c:28
    I2C_GenerateSTART(ENABLE);
    11b6:	4505                	li	a0,1
C:\MRS_DATA\workspace\CH592F_SSD1306\obj/../src/ssd1306/renderer.c:29
    while (!I2C_CheckEvent(I2C_EVENT_MASTER_MODE_SELECT));
    11b8:	00030437          	lui	s0,0x30
C:\MRS_DATA\workspace\CH592F_SSD1306\obj/../src/ssd1306/renderer.c:28
    I2C_GenerateSTART(ENABLE);
    11bc:	2be010ef          	jal	ra,247a <I2C_GenerateSTART>
C:\MRS_DATA\workspace\CH592F_SSD1306\obj/../src/ssd1306/renderer.c:29
    while (!I2C_CheckEvent(I2C_EVENT_MASTER_MODE_SELECT));
    11c0:	0405                	addi	s0,s0,1
    11c2:	8522                	mv	a0,s0
    11c4:	324010ef          	jal	ra,24e8 <I2C_CheckEvent>
    11c8:	dd6d                	beqz	a0,11c2 <OLED_Init+0x8e0>
C:\MRS_DATA\workspace\CH592F_SSD1306\obj/../src/ssd1306/renderer.c:30
    I2C_Send7bitAddress(OLED_I2C_ADDR << 1, I2C_Direction_Transmitter);
    11ca:	4581                	li	a1,0
    11cc:	07800513          	li	a0,120
C:\MRS_DATA\workspace\CH592F_SSD1306\obj/../src/ssd1306/renderer.c:31
    while (!I2C_CheckEvent(I2C_EVENT_MASTER_TRANSMITTER_MODE_SELECTED));
    11d0:	00070437          	lui	s0,0x70
C:\MRS_DATA\workspace\CH592F_SSD1306\obj/../src/ssd1306/renderer.c:30
    I2C_Send7bitAddress(OLED_I2C_ADDR << 1, I2C_Direction_Transmitter);
    11d4:	2fc010ef          	jal	ra,24d0 <I2C_Send7bitAddress>
C:\MRS_DATA\workspace\CH592F_SSD1306\obj/../src/ssd1306/renderer.c:31
    while (!I2C_CheckEvent(I2C_EVENT_MASTER_TRANSMITTER_MODE_SELECTED));
    11d8:	08240413          	addi	s0,s0,130 # 70082 <_data_lma+0x6928a>
    11dc:	8522                	mv	a0,s0
    11de:	30a010ef          	jal	ra,24e8 <I2C_CheckEvent>
    11e2:	dd6d                	beqz	a0,11dc <OLED_Init+0x8fa>
C:\MRS_DATA\workspace\CH592F_SSD1306\obj/../src/ssd1306/renderer.c:32
    I2C_SendData(0x00);     // Command mode
    11e4:	4501                	li	a0,0
C:\MRS_DATA\workspace\CH592F_SSD1306\obj/../src/ssd1306/renderer.c:33
    while (!I2C_CheckEvent(I2C_EVENT_MASTER_BYTE_TRANSMITTED));
    11e6:	00070437          	lui	s0,0x70
C:\MRS_DATA\workspace\CH592F_SSD1306\obj/../src/ssd1306/renderer.c:32
    I2C_SendData(0x00);     // Command mode
    11ea:	2dc010ef          	jal	ra,24c6 <I2C_SendData>
C:\MRS_DATA\workspace\CH592F_SSD1306\obj/../src/ssd1306/renderer.c:33
    while (!I2C_CheckEvent(I2C_EVENT_MASTER_BYTE_TRANSMITTED));
    11ee:	08440413          	addi	s0,s0,132 # 70084 <_data_lma+0x6928c>
    11f2:	8522                	mv	a0,s0
    11f4:	2f4010ef          	jal	ra,24e8 <I2C_CheckEvent>
    11f8:	dd6d                	beqz	a0,11f2 <OLED_Init+0x910>
C:\MRS_DATA\workspace\CH592F_SSD1306\obj/../src/ssd1306/renderer.c:34
    I2C_SendData(command);
    11fa:	0a600513          	li	a0,166
C:\MRS_DATA\workspace\CH592F_SSD1306\obj/../src/ssd1306/renderer.c:35
    while (!I2C_CheckEvent(I2C_EVENT_MASTER_BYTE_TRANSMITTED));
    11fe:	00070437          	lui	s0,0x70
C:\MRS_DATA\workspace\CH592F_SSD1306\obj/../src/ssd1306/renderer.c:34
    I2C_SendData(command);
    1202:	2c4010ef          	jal	ra,24c6 <I2C_SendData>
C:\MRS_DATA\workspace\CH592F_SSD1306\obj/../src/ssd1306/renderer.c:35
    while (!I2C_CheckEvent(I2C_EVENT_MASTER_BYTE_TRANSMITTED));
    1206:	08440413          	addi	s0,s0,132 # 70084 <_data_lma+0x6928c>
    120a:	8522                	mv	a0,s0
    120c:	2dc010ef          	jal	ra,24e8 <I2C_CheckEvent>
    1210:	dd6d                	beqz	a0,120a <OLED_Init+0x928>
C:\MRS_DATA\workspace\CH592F_SSD1306\obj/../src/ssd1306/renderer.c:36
    I2C_GenerateSTOP(ENABLE);
    1212:	4505                	li	a0,1
    1214:	28c010ef          	jal	ra,24a0 <I2C_GenerateSTOP>
C:\MRS_DATA\workspace\CH592F_SSD1306\obj/../src/ssd1306/renderer.c:28
    I2C_GenerateSTART(ENABLE);
    1218:	4505                	li	a0,1
C:\MRS_DATA\workspace\CH592F_SSD1306\obj/../src/ssd1306/renderer.c:29
    while (!I2C_CheckEvent(I2C_EVENT_MASTER_MODE_SELECT));
    121a:	00030437          	lui	s0,0x30
C:\MRS_DATA\workspace\CH592F_SSD1306\obj/../src/ssd1306/renderer.c:28
    I2C_GenerateSTART(ENABLE);
    121e:	25c010ef          	jal	ra,247a <I2C_GenerateSTART>
C:\MRS_DATA\workspace\CH592F_SSD1306\obj/../src/ssd1306/renderer.c:29
    while (!I2C_CheckEvent(I2C_EVENT_MASTER_MODE_SELECT));
    1222:	0405                	addi	s0,s0,1
    1224:	8522                	mv	a0,s0
    1226:	2c2010ef          	jal	ra,24e8 <I2C_CheckEvent>
    122a:	dd6d                	beqz	a0,1224 <OLED_Init+0x942>
C:\MRS_DATA\workspace\CH592F_SSD1306\obj/../src/ssd1306/renderer.c:30
    I2C_Send7bitAddress(OLED_I2C_ADDR << 1, I2C_Direction_Transmitter);
    122c:	4581                	li	a1,0
    122e:	07800513          	li	a0,120
C:\MRS_DATA\workspace\CH592F_SSD1306\obj/../src/ssd1306/renderer.c:31
    while (!I2C_CheckEvent(I2C_EVENT_MASTER_TRANSMITTER_MODE_SELECTED));
    1232:	00070437          	lui	s0,0x70
C:\MRS_DATA\workspace\CH592F_SSD1306\obj/../src/ssd1306/renderer.c:30
    I2C_Send7bitAddress(OLED_I2C_ADDR << 1, I2C_Direction_Transmitter);
    1236:	29a010ef          	jal	ra,24d0 <I2C_Send7bitAddress>
C:\MRS_DATA\workspace\CH592F_SSD1306\obj/../src/ssd1306/renderer.c:31
    while (!I2C_CheckEvent(I2C_EVENT_MASTER_TRANSMITTER_MODE_SELECTED));
    123a:	08240413          	addi	s0,s0,130 # 70082 <_data_lma+0x6928a>
    123e:	8522                	mv	a0,s0
    1240:	2a8010ef          	jal	ra,24e8 <I2C_CheckEvent>
    1244:	dd6d                	beqz	a0,123e <OLED_Init+0x95c>
C:\MRS_DATA\workspace\CH592F_SSD1306\obj/../src/ssd1306/renderer.c:32
    I2C_SendData(0x00);     // Command mode
    1246:	4501                	li	a0,0
C:\MRS_DATA\workspace\CH592F_SSD1306\obj/../src/ssd1306/renderer.c:33
    while (!I2C_CheckEvent(I2C_EVENT_MASTER_BYTE_TRANSMITTED));
    1248:	00070437          	lui	s0,0x70
C:\MRS_DATA\workspace\CH592F_SSD1306\obj/../src/ssd1306/renderer.c:32
    I2C_SendData(0x00);     // Command mode
    124c:	27a010ef          	jal	ra,24c6 <I2C_SendData>
C:\MRS_DATA\workspace\CH592F_SSD1306\obj/../src/ssd1306/renderer.c:33
    while (!I2C_CheckEvent(I2C_EVENT_MASTER_BYTE_TRANSMITTED));
    1250:	08440413          	addi	s0,s0,132 # 70084 <_data_lma+0x6928c>
    1254:	8522                	mv	a0,s0
    1256:	292010ef          	jal	ra,24e8 <I2C_CheckEvent>
    125a:	dd6d                	beqz	a0,1254 <OLED_Init+0x972>
C:\MRS_DATA\workspace\CH592F_SSD1306\obj/../src/ssd1306/renderer.c:34
    I2C_SendData(command);
    125c:	02e00513          	li	a0,46
C:\MRS_DATA\workspace\CH592F_SSD1306\obj/../src/ssd1306/renderer.c:35
    while (!I2C_CheckEvent(I2C_EVENT_MASTER_BYTE_TRANSMITTED));
    1260:	00070437          	lui	s0,0x70
C:\MRS_DATA\workspace\CH592F_SSD1306\obj/../src/ssd1306/renderer.c:34
    I2C_SendData(command);
    1264:	262010ef          	jal	ra,24c6 <I2C_SendData>
C:\MRS_DATA\workspace\CH592F_SSD1306\obj/../src/ssd1306/renderer.c:35
    while (!I2C_CheckEvent(I2C_EVENT_MASTER_BYTE_TRANSMITTED));
    1268:	08440413          	addi	s0,s0,132 # 70084 <_data_lma+0x6928c>
    126c:	8522                	mv	a0,s0
    126e:	27a010ef          	jal	ra,24e8 <I2C_CheckEvent>
    1272:	dd6d                	beqz	a0,126c <OLED_Init+0x98a>
C:\MRS_DATA\workspace\CH592F_SSD1306\obj/../src/ssd1306/renderer.c:36
    I2C_GenerateSTOP(ENABLE);
    1274:	4505                	li	a0,1
    1276:	22a010ef          	jal	ra,24a0 <I2C_GenerateSTOP>
C:\MRS_DATA\workspace\CH592F_SSD1306\obj/../src/ssd1306/renderer.c:28
    I2C_GenerateSTART(ENABLE);
    127a:	4505                	li	a0,1
C:\MRS_DATA\workspace\CH592F_SSD1306\obj/../src/ssd1306/renderer.c:29
    while (!I2C_CheckEvent(I2C_EVENT_MASTER_MODE_SELECT));
    127c:	00030437          	lui	s0,0x30
C:\MRS_DATA\workspace\CH592F_SSD1306\obj/../src/ssd1306/renderer.c:28
    I2C_GenerateSTART(ENABLE);
    1280:	1fa010ef          	jal	ra,247a <I2C_GenerateSTART>
C:\MRS_DATA\workspace\CH592F_SSD1306\obj/../src/ssd1306/renderer.c:29
    while (!I2C_CheckEvent(I2C_EVENT_MASTER_MODE_SELECT));
    1284:	0405                	addi	s0,s0,1
    1286:	8522                	mv	a0,s0
    1288:	260010ef          	jal	ra,24e8 <I2C_CheckEvent>
    128c:	dd6d                	beqz	a0,1286 <OLED_Init+0x9a4>
C:\MRS_DATA\workspace\CH592F_SSD1306\obj/../src/ssd1306/renderer.c:30
    I2C_Send7bitAddress(OLED_I2C_ADDR << 1, I2C_Direction_Transmitter);
    128e:	4581                	li	a1,0
    1290:	07800513          	li	a0,120
C:\MRS_DATA\workspace\CH592F_SSD1306\obj/../src/ssd1306/renderer.c:31
    while (!I2C_CheckEvent(I2C_EVENT_MASTER_TRANSMITTER_MODE_SELECTED));
    1294:	00070437          	lui	s0,0x70
C:\MRS_DATA\workspace\CH592F_SSD1306\obj/../src/ssd1306/renderer.c:30
    I2C_Send7bitAddress(OLED_I2C_ADDR << 1, I2C_Direction_Transmitter);
    1298:	238010ef          	jal	ra,24d0 <I2C_Send7bitAddress>
C:\MRS_DATA\workspace\CH592F_SSD1306\obj/../src/ssd1306/renderer.c:31
    while (!I2C_CheckEvent(I2C_EVENT_MASTER_TRANSMITTER_MODE_SELECTED));
    129c:	08240413          	addi	s0,s0,130 # 70082 <_data_lma+0x6928a>
    12a0:	8522                	mv	a0,s0
    12a2:	246010ef          	jal	ra,24e8 <I2C_CheckEvent>
    12a6:	dd6d                	beqz	a0,12a0 <OLED_Init+0x9be>
C:\MRS_DATA\workspace\CH592F_SSD1306\obj/../src/ssd1306/renderer.c:32
    I2C_SendData(0x00);     // Command mode
    12a8:	4501                	li	a0,0
C:\MRS_DATA\workspace\CH592F_SSD1306\obj/../src/ssd1306/renderer.c:33
    while (!I2C_CheckEvent(I2C_EVENT_MASTER_BYTE_TRANSMITTED));
    12aa:	00070437          	lui	s0,0x70
C:\MRS_DATA\workspace\CH592F_SSD1306\obj/../src/ssd1306/renderer.c:32
    I2C_SendData(0x00);     // Command mode
    12ae:	218010ef          	jal	ra,24c6 <I2C_SendData>
C:\MRS_DATA\workspace\CH592F_SSD1306\obj/../src/ssd1306/renderer.c:33
    while (!I2C_CheckEvent(I2C_EVENT_MASTER_BYTE_TRANSMITTED));
    12b2:	08440413          	addi	s0,s0,132 # 70084 <_data_lma+0x6928c>
    12b6:	8522                	mv	a0,s0
    12b8:	230010ef          	jal	ra,24e8 <I2C_CheckEvent>
    12bc:	dd6d                	beqz	a0,12b6 <OLED_Init+0x9d4>
C:\MRS_DATA\workspace\CH592F_SSD1306\obj/../src/ssd1306/renderer.c:34
    I2C_SendData(command);
    12be:	0af00513          	li	a0,175
C:\MRS_DATA\workspace\CH592F_SSD1306\obj/../src/ssd1306/renderer.c:35
    while (!I2C_CheckEvent(I2C_EVENT_MASTER_BYTE_TRANSMITTED));
    12c2:	00070437          	lui	s0,0x70
C:\MRS_DATA\workspace\CH592F_SSD1306\obj/../src/ssd1306/renderer.c:34
    I2C_SendData(command);
    12c6:	200010ef          	jal	ra,24c6 <I2C_SendData>
C:\MRS_DATA\workspace\CH592F_SSD1306\obj/../src/ssd1306/renderer.c:35
    while (!I2C_CheckEvent(I2C_EVENT_MASTER_BYTE_TRANSMITTED));
    12ca:	08440413          	addi	s0,s0,132 # 70084 <_data_lma+0x6928c>
    12ce:	8522                	mv	a0,s0
    12d0:	218010ef          	jal	ra,24e8 <I2C_CheckEvent>
    12d4:	dd6d                	beqz	a0,12ce <OLED_Init+0x9ec>
C:\MRS_DATA\workspace\CH592F_SSD1306\obj/../src/ssd1306/renderer.c:36
    I2C_GenerateSTOP(ENABLE);
    12d6:	4505                	li	a0,1
    12d8:	1c8010ef          	jal	ra,24a0 <I2C_GenerateSTOP>
OLED_Init():
C:\MRS_DATA\workspace\CH592F_SSD1306\obj/../src/ssd1306/renderer.c:103
    I2C_WriteCommand(0x40);
    I2C_WriteCommand(0xA4);         // Entire Display ON
    I2C_WriteCommand(0xA6);         // Set Normal Display
    I2C_WriteCommand(0x2E);         // Deactivate Scroll
    I2C_WriteCommand(0xAF);         // Display ON
    return 0;
    12dc:	4501                	li	a0,0
C:\MRS_DATA\workspace\CH592F_SSD1306\obj/../src/ssd1306/renderer.c:104
}
    12de:	40b2                	lw	ra,12(sp)
    12e0:	4422                	lw	s0,8(sp)
    12e2:	0141                	addi	sp,sp,16
    12e4:	8082                	ret
C:\MRS_DATA\workspace\CH592F_SSD1306\obj/../src/ssd1306/renderer.c:52 (discriminator 1)
    if ((!buffer) && !(buffer = (uint8_t *)malloc(OLED_WIDTH * ((OLED_HEIGHT + 7) / 8)))) {
    12e6:	20000513          	li	a0,512
    12ea:	2ae050ef          	jal	ra,6598 <malloc>
    12ee:	80a1a423          	sw	a0,-2040(gp) # 20000868 <_edata>
    12f2:	e0051063          	bnez	a0,8f2 <OLED_Init+0x10>
C:\MRS_DATA\workspace\CH592F_SSD1306\obj/../src/ssd1306/renderer.c:53
        return 1;
    12f6:	4505                	li	a0,1
    12f8:	b7dd                	j	12de <OLED_Init+0x9fc>

000012fa <OLED_UpdateScreen>:
OLED_UpdateScreen():
C:\MRS_DATA\workspace\CH592F_SSD1306\obj/../src/ssd1306/renderer.c:106

void OLED_UpdateScreen(void) {
    12fa:	7179                	addi	sp,sp,-48
    12fc:	d226                	sw	s1,36(sp)
    12fe:	ce4e                	sw	s3,28(sp)
I2C_WriteCommand():
C:\MRS_DATA\workspace\CH592F_SSD1306\obj/../src/ssd1306/renderer.c:31
    while (!I2C_CheckEvent(I2C_EVENT_MASTER_TRANSMITTER_MODE_SELECTED));
    1300:	000704b7          	lui	s1,0x70
C:\MRS_DATA\workspace\CH592F_SSD1306\obj/../src/ssd1306/renderer.c:29
    while (!I2C_CheckEvent(I2C_EVENT_MASTER_MODE_SELECT));
    1304:	000309b7          	lui	s3,0x30
OLED_UpdateScreen():
C:\MRS_DATA\workspace\CH592F_SSD1306\obj/../src/ssd1306/renderer.c:106
void OLED_UpdateScreen(void) {
    1308:	cc52                	sw	s4,24(sp)
    130a:	ca56                	sw	s5,20(sp)
    130c:	c85a                	sw	s6,16(sp)
    130e:	c65e                	sw	s7,12(sp)
    1310:	c462                	sw	s8,8(sp)
I2C_WriteCommand():
C:\MRS_DATA\workspace\CH592F_SSD1306\obj/../src/ssd1306/renderer.c:31
    while (!I2C_CheckEvent(I2C_EVENT_MASTER_TRANSMITTER_MODE_SELECTED));
    1312:	08248a13          	addi	s4,s1,130 # 70082 <_data_lma+0x6928a>
OLED_UpdateScreen():
C:\MRS_DATA\workspace\CH592F_SSD1306\obj/../src/ssd1306/renderer.c:106
void OLED_UpdateScreen(void) {
    1316:	d606                	sw	ra,44(sp)
    1318:	d422                	sw	s0,40(sp)
    131a:	d04a                	sw	s2,32(sp)
    131c:	0b000b93          	li	s7,176
    1320:	08000a93          	li	s5,128
    1324:	80818b13          	addi	s6,gp,-2040 # 20000868 <_edata>
I2C_WriteCommand():
C:\MRS_DATA\workspace\CH592F_SSD1306\obj/../src/ssd1306/renderer.c:29
    while (!I2C_CheckEvent(I2C_EVENT_MASTER_MODE_SELECT));
    1328:	0985                	addi	s3,s3,1
C:\MRS_DATA\workspace\CH592F_SSD1306\obj/../src/ssd1306/renderer.c:33
    while (!I2C_CheckEvent(I2C_EVENT_MASTER_BYTE_TRANSMITTED));
    132a:	08448493          	addi	s1,s1,132
OLED_UpdateScreen():
C:\MRS_DATA\workspace\CH592F_SSD1306\obj/../src/ssd1306/renderer.c:107
    for (uint8_t page = 0; page < (OLED_HEIGHT / 8); page++) {
    132e:	28000c13          	li	s8,640
I2C_WriteCommand():
C:\MRS_DATA\workspace\CH592F_SSD1306\obj/../src/ssd1306/renderer.c:28
    I2C_GenerateSTART(ENABLE);
    1332:	4505                	li	a0,1
    1334:	146010ef          	jal	ra,247a <I2C_GenerateSTART>
C:\MRS_DATA\workspace\CH592F_SSD1306\obj/../src/ssd1306/renderer.c:29
    while (!I2C_CheckEvent(I2C_EVENT_MASTER_MODE_SELECT));
    1338:	854e                	mv	a0,s3
    133a:	1ae010ef          	jal	ra,24e8 <I2C_CheckEvent>
    133e:	dd6d                	beqz	a0,1338 <OLED_UpdateScreen+0x3e>
C:\MRS_DATA\workspace\CH592F_SSD1306\obj/../src/ssd1306/renderer.c:30
    I2C_Send7bitAddress(OLED_I2C_ADDR << 1, I2C_Direction_Transmitter);
    1340:	4581                	li	a1,0
    1342:	07800513          	li	a0,120
    1346:	18a010ef          	jal	ra,24d0 <I2C_Send7bitAddress>
C:\MRS_DATA\workspace\CH592F_SSD1306\obj/../src/ssd1306/renderer.c:31
    while (!I2C_CheckEvent(I2C_EVENT_MASTER_TRANSMITTER_MODE_SELECTED));
    134a:	8552                	mv	a0,s4
    134c:	19c010ef          	jal	ra,24e8 <I2C_CheckEvent>
    1350:	dd6d                	beqz	a0,134a <OLED_UpdateScreen+0x50>
C:\MRS_DATA\workspace\CH592F_SSD1306\obj/../src/ssd1306/renderer.c:32
    I2C_SendData(0x00);     // Command mode
    1352:	4501                	li	a0,0
    1354:	172010ef          	jal	ra,24c6 <I2C_SendData>
C:\MRS_DATA\workspace\CH592F_SSD1306\obj/../src/ssd1306/renderer.c:33
    while (!I2C_CheckEvent(I2C_EVENT_MASTER_BYTE_TRANSMITTED));
    1358:	8526                	mv	a0,s1
    135a:	18e010ef          	jal	ra,24e8 <I2C_CheckEvent>
    135e:	dd6d                	beqz	a0,1358 <OLED_UpdateScreen+0x5e>
C:\MRS_DATA\workspace\CH592F_SSD1306\obj/../src/ssd1306/renderer.c:34
    I2C_SendData(command);
    1360:	855e                	mv	a0,s7
    1362:	164010ef          	jal	ra,24c6 <I2C_SendData>
C:\MRS_DATA\workspace\CH592F_SSD1306\obj/../src/ssd1306/renderer.c:35
    while (!I2C_CheckEvent(I2C_EVENT_MASTER_BYTE_TRANSMITTED));
    1366:	8526                	mv	a0,s1
    1368:	180010ef          	jal	ra,24e8 <I2C_CheckEvent>
    136c:	dd6d                	beqz	a0,1366 <OLED_UpdateScreen+0x6c>
C:\MRS_DATA\workspace\CH592F_SSD1306\obj/../src/ssd1306/renderer.c:36
    I2C_GenerateSTOP(ENABLE);
    136e:	4505                	li	a0,1
    1370:	130010ef          	jal	ra,24a0 <I2C_GenerateSTOP>
C:\MRS_DATA\workspace\CH592F_SSD1306\obj/../src/ssd1306/renderer.c:28
    I2C_GenerateSTART(ENABLE);
    1374:	4505                	li	a0,1
    1376:	104010ef          	jal	ra,247a <I2C_GenerateSTART>
C:\MRS_DATA\workspace\CH592F_SSD1306\obj/../src/ssd1306/renderer.c:29
    while (!I2C_CheckEvent(I2C_EVENT_MASTER_MODE_SELECT));
    137a:	854e                	mv	a0,s3
    137c:	16c010ef          	jal	ra,24e8 <I2C_CheckEvent>
    1380:	dd6d                	beqz	a0,137a <OLED_UpdateScreen+0x80>
C:\MRS_DATA\workspace\CH592F_SSD1306\obj/../src/ssd1306/renderer.c:30
    I2C_Send7bitAddress(OLED_I2C_ADDR << 1, I2C_Direction_Transmitter);
    1382:	4581                	li	a1,0
    1384:	07800513          	li	a0,120
    1388:	148010ef          	jal	ra,24d0 <I2C_Send7bitAddress>
C:\MRS_DATA\workspace\CH592F_SSD1306\obj/../src/ssd1306/renderer.c:31
    while (!I2C_CheckEvent(I2C_EVENT_MASTER_TRANSMITTER_MODE_SELECTED));
    138c:	8552                	mv	a0,s4
    138e:	15a010ef          	jal	ra,24e8 <I2C_CheckEvent>
    1392:	dd6d                	beqz	a0,138c <OLED_UpdateScreen+0x92>
C:\MRS_DATA\workspace\CH592F_SSD1306\obj/../src/ssd1306/renderer.c:32
    I2C_SendData(0x00);     // Command mode
    1394:	4501                	li	a0,0
    1396:	130010ef          	jal	ra,24c6 <I2C_SendData>
C:\MRS_DATA\workspace\CH592F_SSD1306\obj/../src/ssd1306/renderer.c:33
    while (!I2C_CheckEvent(I2C_EVENT_MASTER_BYTE_TRANSMITTED));
    139a:	8526                	mv	a0,s1
    139c:	14c010ef          	jal	ra,24e8 <I2C_CheckEvent>
    13a0:	dd6d                	beqz	a0,139a <OLED_UpdateScreen+0xa0>
C:\MRS_DATA\workspace\CH592F_SSD1306\obj/../src/ssd1306/renderer.c:34
    I2C_SendData(command);
    13a2:	4501                	li	a0,0
    13a4:	122010ef          	jal	ra,24c6 <I2C_SendData>
C:\MRS_DATA\workspace\CH592F_SSD1306\obj/../src/ssd1306/renderer.c:35
    while (!I2C_CheckEvent(I2C_EVENT_MASTER_BYTE_TRANSMITTED));
    13a8:	8526                	mv	a0,s1
    13aa:	13e010ef          	jal	ra,24e8 <I2C_CheckEvent>
    13ae:	dd6d                	beqz	a0,13a8 <OLED_UpdateScreen+0xae>
C:\MRS_DATA\workspace\CH592F_SSD1306\obj/../src/ssd1306/renderer.c:36
    I2C_GenerateSTOP(ENABLE);
    13b0:	4505                	li	a0,1
    13b2:	0ee010ef          	jal	ra,24a0 <I2C_GenerateSTOP>
C:\MRS_DATA\workspace\CH592F_SSD1306\obj/../src/ssd1306/renderer.c:28
    I2C_GenerateSTART(ENABLE);
    13b6:	4505                	li	a0,1
    13b8:	0c2010ef          	jal	ra,247a <I2C_GenerateSTART>
C:\MRS_DATA\workspace\CH592F_SSD1306\obj/../src/ssd1306/renderer.c:29
    while (!I2C_CheckEvent(I2C_EVENT_MASTER_MODE_SELECT));
    13bc:	854e                	mv	a0,s3
    13be:	12a010ef          	jal	ra,24e8 <I2C_CheckEvent>
    13c2:	dd6d                	beqz	a0,13bc <OLED_UpdateScreen+0xc2>
C:\MRS_DATA\workspace\CH592F_SSD1306\obj/../src/ssd1306/renderer.c:30
    I2C_Send7bitAddress(OLED_I2C_ADDR << 1, I2C_Direction_Transmitter);
    13c4:	4581                	li	a1,0
    13c6:	07800513          	li	a0,120
    13ca:	106010ef          	jal	ra,24d0 <I2C_Send7bitAddress>
C:\MRS_DATA\workspace\CH592F_SSD1306\obj/../src/ssd1306/renderer.c:31
    while (!I2C_CheckEvent(I2C_EVENT_MASTER_TRANSMITTER_MODE_SELECTED));
    13ce:	8552                	mv	a0,s4
    13d0:	118010ef          	jal	ra,24e8 <I2C_CheckEvent>
    13d4:	dd6d                	beqz	a0,13ce <OLED_UpdateScreen+0xd4>
C:\MRS_DATA\workspace\CH592F_SSD1306\obj/../src/ssd1306/renderer.c:32
    I2C_SendData(0x00);     // Command mode
    13d6:	4501                	li	a0,0
    13d8:	0ee010ef          	jal	ra,24c6 <I2C_SendData>
C:\MRS_DATA\workspace\CH592F_SSD1306\obj/../src/ssd1306/renderer.c:33
    while (!I2C_CheckEvent(I2C_EVENT_MASTER_BYTE_TRANSMITTED));
    13dc:	8526                	mv	a0,s1
    13de:	10a010ef          	jal	ra,24e8 <I2C_CheckEvent>
    13e2:	dd6d                	beqz	a0,13dc <OLED_UpdateScreen+0xe2>
C:\MRS_DATA\workspace\CH592F_SSD1306\obj/../src/ssd1306/renderer.c:34
    I2C_SendData(command);
    13e4:	4541                	li	a0,16
    13e6:	0e0010ef          	jal	ra,24c6 <I2C_SendData>
C:\MRS_DATA\workspace\CH592F_SSD1306\obj/../src/ssd1306/renderer.c:35
    while (!I2C_CheckEvent(I2C_EVENT_MASTER_BYTE_TRANSMITTED));
    13ea:	8526                	mv	a0,s1
    13ec:	0fc010ef          	jal	ra,24e8 <I2C_CheckEvent>
    13f0:	dd6d                	beqz	a0,13ea <OLED_UpdateScreen+0xf0>
C:\MRS_DATA\workspace\CH592F_SSD1306\obj/../src/ssd1306/renderer.c:36
    I2C_GenerateSTOP(ENABLE);
    13f2:	4505                	li	a0,1
    13f4:	0ac010ef          	jal	ra,24a0 <I2C_GenerateSTOP>
    13f8:	f80a8413          	addi	s0,s5,-128
OLED_UpdateScreen():
C:\MRS_DATA\workspace\CH592F_SSD1306\obj/../src/ssd1306/renderer.c:113 (discriminator 3)
        I2C_WriteCommand(0xB0 + page); // Set page address
        I2C_WriteCommand(0x00);        // Set lower column address
        I2C_WriteCommand(0x10);        // Set higher column address

        for (uint8_t col = 0; col < OLED_WIDTH; col++) {
            I2C_WriteData(buffer[page * OLED_WIDTH + col]);
    13fc:	000b2783          	lw	a5,0(s6) # 10000 <_data_lma+0x9208>
I2C_WriteData():
C:\MRS_DATA\workspace\CH592F_SSD1306\obj/../src/ssd1306/renderer.c:40 (discriminator 3)
    I2C_GenerateSTART(ENABLE);
    1400:	4505                	li	a0,1
OLED_UpdateScreen():
C:\MRS_DATA\workspace\CH592F_SSD1306\obj/../src/ssd1306/renderer.c:113 (discriminator 3)
            I2C_WriteData(buffer[page * OLED_WIDTH + col]);
    1402:	97a2                	add	a5,a5,s0
    1404:	0007c903          	lbu	s2,0(a5)
I2C_WriteData():
C:\MRS_DATA\workspace\CH592F_SSD1306\obj/../src/ssd1306/renderer.c:40 (discriminator 3)
    I2C_GenerateSTART(ENABLE);
    1408:	072010ef          	jal	ra,247a <I2C_GenerateSTART>
C:\MRS_DATA\workspace\CH592F_SSD1306\obj/../src/ssd1306/renderer.c:41
    while (!I2C_CheckEvent(I2C_EVENT_MASTER_MODE_SELECT));
    140c:	854e                	mv	a0,s3
    140e:	0da010ef          	jal	ra,24e8 <I2C_CheckEvent>
    1412:	dd6d                	beqz	a0,140c <OLED_UpdateScreen+0x112>
C:\MRS_DATA\workspace\CH592F_SSD1306\obj/../src/ssd1306/renderer.c:42
    I2C_Send7bitAddress(OLED_I2C_ADDR << 1, I2C_Direction_Transmitter);
    1414:	4581                	li	a1,0
    1416:	07800513          	li	a0,120
    141a:	0b6010ef          	jal	ra,24d0 <I2C_Send7bitAddress>
C:\MRS_DATA\workspace\CH592F_SSD1306\obj/../src/ssd1306/renderer.c:43
    while (!I2C_CheckEvent(I2C_EVENT_MASTER_TRANSMITTER_MODE_SELECTED));
    141e:	8552                	mv	a0,s4
    1420:	0c8010ef          	jal	ra,24e8 <I2C_CheckEvent>
    1424:	dd6d                	beqz	a0,141e <OLED_UpdateScreen+0x124>
C:\MRS_DATA\workspace\CH592F_SSD1306\obj/../src/ssd1306/renderer.c:44
    I2C_SendData(0x40);    // Data mode
    1426:	04000513          	li	a0,64
    142a:	09c010ef          	jal	ra,24c6 <I2C_SendData>
C:\MRS_DATA\workspace\CH592F_SSD1306\obj/../src/ssd1306/renderer.c:45
    while (!I2C_CheckEvent(I2C_EVENT_MASTER_BYTE_TRANSMITTED));
    142e:	8526                	mv	a0,s1
    1430:	0b8010ef          	jal	ra,24e8 <I2C_CheckEvent>
    1434:	dd6d                	beqz	a0,142e <OLED_UpdateScreen+0x134>
C:\MRS_DATA\workspace\CH592F_SSD1306\obj/../src/ssd1306/renderer.c:46
    I2C_SendData(data);
    1436:	854a                	mv	a0,s2
    1438:	08e010ef          	jal	ra,24c6 <I2C_SendData>
C:\MRS_DATA\workspace\CH592F_SSD1306\obj/../src/ssd1306/renderer.c:47
    while (!I2C_CheckEvent(I2C_EVENT_MASTER_BYTE_TRANSMITTED));
    143c:	8526                	mv	a0,s1
    143e:	0aa010ef          	jal	ra,24e8 <I2C_CheckEvent>
    1442:	dd6d                	beqz	a0,143c <OLED_UpdateScreen+0x142>
C:\MRS_DATA\workspace\CH592F_SSD1306\obj/../src/ssd1306/renderer.c:48
    I2C_GenerateSTOP(ENABLE);
    1444:	0405                	addi	s0,s0,1
    1446:	4505                	li	a0,1
    1448:	058010ef          	jal	ra,24a0 <I2C_GenerateSTOP>
OLED_UpdateScreen():
C:\MRS_DATA\workspace\CH592F_SSD1306\obj/../src/ssd1306/renderer.c:112
        for (uint8_t col = 0; col < OLED_WIDTH; col++) {
    144c:	fa8a98e3          	bne	s5,s0,13fc <OLED_UpdateScreen+0x102>
    1450:	0b85                	addi	s7,s7,1
    1452:	080a8a93          	addi	s5,s5,128
    1456:	0ffbfb93          	andi	s7,s7,255
C:\MRS_DATA\workspace\CH592F_SSD1306\obj/../src/ssd1306/renderer.c:107 (discriminator 2)
    for (uint8_t page = 0; page < (OLED_HEIGHT / 8); page++) {
    145a:	ed8a9ce3          	bne	s5,s8,1332 <OLED_UpdateScreen+0x38>
C:\MRS_DATA\workspace\CH592F_SSD1306\obj/../src/ssd1306/renderer.c:116
        }
    }
}
    145e:	50b2                	lw	ra,44(sp)
    1460:	5422                	lw	s0,40(sp)
    1462:	5492                	lw	s1,36(sp)
    1464:	5902                	lw	s2,32(sp)
    1466:	49f2                	lw	s3,28(sp)
    1468:	4a62                	lw	s4,24(sp)
    146a:	4ad2                	lw	s5,20(sp)
    146c:	4b42                	lw	s6,16(sp)
    146e:	4bb2                	lw	s7,12(sp)
    1470:	4c22                	lw	s8,8(sp)
    1472:	6145                	addi	sp,sp,48
    1474:	8082                	ret

00001476 <OLED_DrawLine>:
OLED_DrawLine():
C:\MRS_DATA\workspace\CH592F_SSD1306\obj/../src/ssd1306/renderer.c:205
    float y_new = *x * sina + *y * cosa;
    *x = x_new;
    *y = y_new;
}

void OLED_DrawLine(int x0, int y0, int x1, int y1) {
    1476:	1141                	addi	sp,sp,-16
C:\MRS_DATA\workspace\CH592F_SSD1306\obj/../src/ssd1306/renderer.c:206
    int dx = abs(x1 - x0), sx = x0 < x1 ? 1 : -1;
    1478:	40a60eb3          	sub	t4,a2,a0
C:\MRS_DATA\workspace\CH592F_SSD1306\obj/../src/ssd1306/renderer.c:207
    int dy = -abs(y1 - y0), sy = y0 < y1 ? 1 : -1;
    147c:	40b683b3          	sub	t2,a3,a1
C:\MRS_DATA\workspace\CH592F_SSD1306\obj/../src/ssd1306/renderer.c:206
    int dx = abs(x1 - x0), sx = x0 < x1 ? 1 : -1;
    1480:	41fed793          	srai	a5,t4,0x1f
C:\MRS_DATA\workspace\CH592F_SSD1306\obj/../src/ssd1306/renderer.c:207
    int dy = -abs(y1 - y0), sy = y0 < y1 ? 1 : -1;
    1484:	41f3d713          	srai	a4,t2,0x1f
C:\MRS_DATA\workspace\CH592F_SSD1306\obj/../src/ssd1306/renderer.c:205
void OLED_DrawLine(int x0, int y0, int x1, int y1) {
    1488:	c426                	sw	s1,8(sp)
    148a:	c24a                	sw	s2,4(sp)
C:\MRS_DATA\workspace\CH592F_SSD1306\obj/../src/ssd1306/renderer.c:207
    int dy = -abs(y1 - y0), sy = y0 < y1 ? 1 : -1;
    148c:	00d5a4b3          	slt	s1,a1,a3
C:\MRS_DATA\workspace\CH592F_SSD1306\obj/../src/ssd1306/renderer.c:206
    int dx = abs(x1 - x0), sx = x0 < x1 ? 1 : -1;
    1490:	00c52933          	slt	s2,a0,a2
OLED_draw_pixel():
C:\MRS_DATA\workspace\CH592F_SSD1306\obj/../src/ssd1306/renderer.c:170
    current_byte = buffer[page * OLED_WIDTH + x];
    1494:	80818813          	addi	a6,gp,-2040 # 20000868 <_edata>
OLED_DrawLine():
C:\MRS_DATA\workspace\CH592F_SSD1306\obj/../src/ssd1306/renderer.c:206
    int dx = abs(x1 - x0), sx = x0 < x1 ? 1 : -1;
    1498:	01d7ceb3          	xor	t4,a5,t4
    149c:	41200933          	neg	s2,s2
C:\MRS_DATA\workspace\CH592F_SSD1306\obj/../src/ssd1306/renderer.c:207
    int dy = -abs(y1 - y0), sy = y0 < y1 ? 1 : -1;
    14a0:	007743b3          	xor	t2,a4,t2
    14a4:	409004b3          	neg	s1,s1
OLED_draw_pixel():
C:\MRS_DATA\workspace\CH592F_SSD1306\obj/../src/ssd1306/renderer.c:170
    current_byte = buffer[page * OLED_WIDTH + x];
    14a8:	00082f83          	lw	t6,0(a6)
OLED_DrawLine():
C:\MRS_DATA\workspace\CH592F_SSD1306\obj/../src/ssd1306/renderer.c:207
    int dy = -abs(y1 - y0), sy = y0 < y1 ? 1 : -1;
    14ac:	40e383b3          	sub	t2,t2,a4
C:\MRS_DATA\workspace\CH592F_SSD1306\obj/../src/ssd1306/renderer.c:206
    int dx = abs(x1 - x0), sx = x0 < x1 ? 1 : -1;
    14b0:	40fe8eb3          	sub	t4,t4,a5
    14b4:	00297913          	andi	s2,s2,2
C:\MRS_DATA\workspace\CH592F_SSD1306\obj/../src/ssd1306/renderer.c:207
    int dy = -abs(y1 - y0), sy = y0 < y1 ? 1 : -1;
    14b8:	8889                	andi	s1,s1,2
    14ba:	01851e13          	slli	t3,a0,0x18
C:\MRS_DATA\workspace\CH592F_SSD1306\obj/../src/ssd1306/renderer.c:205
void OLED_DrawLine(int x0, int y0, int x1, int y1) {
    14be:	c622                	sw	s0,12(sp)
C:\MRS_DATA\workspace\CH592F_SSD1306\obj/../src/ssd1306/renderer.c:206
    int dx = abs(x1 - x0), sx = x0 < x1 ? 1 : -1;
    14c0:	197d                	addi	s2,s2,-1
C:\MRS_DATA\workspace\CH592F_SSD1306\obj/../src/ssd1306/renderer.c:207
    int dy = -abs(y1 - y0), sy = y0 < y1 ? 1 : -1;
    14c2:	407002b3          	neg	t0,t2
    14c6:	14fd                	addi	s1,s1,-1
C:\MRS_DATA\workspace\CH592F_SSD1306\obj/../src/ssd1306/renderer.c:208
    int err = dx + dy, e2;
    14c8:	407e88b3          	sub	a7,t4,t2
    14cc:	418e5e13          	srai	t3,t3,0x18
OLED_draw_pixel():
C:\MRS_DATA\workspace\CH592F_SSD1306\obj/../src/ssd1306/renderer.c:162
    if ((x >= OLED_WIDTH) || (y >= OLED_HEIGHT)) {
    14d0:	447d                	li	s0,31
C:\MRS_DATA\workspace\CH592F_SSD1306\obj/../src/ssd1306/renderer.c:173
    current_byte |= (1 << bit); // Set the bit to draw the pixel
    14d2:	4f05                	li	t5,1
OLED_DrawLine():
C:\MRS_DATA\workspace\CH592F_SSD1306\obj/../src/ssd1306/renderer.c:211

    while (1) {
        OLED_draw_pixel(x0, y0);
    14d4:	0ff5f813          	andi	a6,a1,255
OLED_draw_pixel():
C:\MRS_DATA\workspace\CH592F_SSD1306\obj/../src/ssd1306/renderer.c:170
    current_byte = buffer[page * OLED_WIDTH + x];
    14d8:	00385713          	srli	a4,a6,0x3
    14dc:	071e                	slli	a4,a4,0x7
    14de:	0ff57793          	andi	a5,a0,255
    14e2:	97ba                	add	a5,a5,a4
C:\MRS_DATA\workspace\CH592F_SSD1306\obj/../src/ssd1306/renderer.c:173
    current_byte |= (1 << bit); // Set the bit to draw the pixel
    14e4:	00787713          	andi	a4,a6,7
OLED_DrawLine():
C:\MRS_DATA\workspace\CH592F_SSD1306\obj/../src/ssd1306/renderer.c:213
        if (x0 == x1 && y0 == y1) { break; };
        e2 = 2 * err;
    14e8:	00189313          	slli	t1,a7,0x1
OLED_draw_pixel():
C:\MRS_DATA\workspace\CH592F_SSD1306\obj/../src/ssd1306/renderer.c:170
    current_byte = buffer[page * OLED_WIDTH + x];
    14ec:	97fe                	add	a5,a5,t6
C:\MRS_DATA\workspace\CH592F_SSD1306\obj/../src/ssd1306/renderer.c:173
    current_byte |= (1 << bit); // Set the bit to draw the pixel
    14ee:	00ef1733          	sll	a4,t5,a4
C:\MRS_DATA\workspace\CH592F_SSD1306\obj/../src/ssd1306/renderer.c:162
    if ((x >= OLED_WIDTH) || (y >= OLED_HEIGHT)) {
    14f2:	000e4a63          	bltz	t3,1506 <OLED_DrawLine+0x90>
    14f6:	01046863          	bltu	s0,a6,1506 <OLED_DrawLine+0x90>
C:\MRS_DATA\workspace\CH592F_SSD1306\obj/../src/ssd1306/renderer.c:173
    current_byte |= (1 << bit); // Set the bit to draw the pixel
    14fa:	0007c803          	lbu	a6,0(a5)
    14fe:	01076733          	or	a4,a4,a6
C:\MRS_DATA\workspace\CH592F_SSD1306\obj/../src/ssd1306/renderer.c:175
    buffer[page * OLED_WIDTH + x] = current_byte;
    1502:	00e78023          	sb	a4,0(a5)
OLED_DrawLine():
C:\MRS_DATA\workspace\CH592F_SSD1306\obj/../src/ssd1306/renderer.c:212
        if (x0 == x1 && y0 == y1) { break; };
    1506:	02c50063          	beq	a0,a2,1526 <OLED_DrawLine+0xb0>
C:\MRS_DATA\workspace\CH592F_SSD1306\obj/../src/ssd1306/renderer.c:214 (discriminator 3)
        if (e2 >= dy) { err += dy; x0 += sx; };
    150a:	00534b63          	blt	t1,t0,1520 <OLED_DrawLine+0xaa>
C:\MRS_DATA\workspace\CH592F_SSD1306\obj/../src/ssd1306/renderer.c:214 (discriminator 1)
    150e:	954a                	add	a0,a0,s2
    1510:	01851e13          	slli	t3,a0,0x18
    1514:	407888b3          	sub	a7,a7,t2
C:\MRS_DATA\workspace\CH592F_SSD1306\obj/../src/ssd1306/renderer.c:215 (discriminator 1)
        if (e2 <= dx) { err += dx; y0 += sy; };
    1518:	418e5e13          	srai	t3,t3,0x18
    151c:	fa6ecce3          	blt	t4,t1,14d4 <OLED_DrawLine+0x5e>
    1520:	98f6                	add	a7,a7,t4
    1522:	95a6                	add	a1,a1,s1
    1524:	bf45                	j	14d4 <OLED_DrawLine+0x5e>
C:\MRS_DATA\workspace\CH592F_SSD1306\obj/../src/ssd1306/renderer.c:212 (discriminator 1)
        if (x0 == x1 && y0 == y1) { break; };
    1526:	fed592e3          	bne	a1,a3,150a <OLED_DrawLine+0x94>
C:\MRS_DATA\workspace\CH592F_SSD1306\obj/../src/ssd1306/renderer.c:217
    }
}
    152a:	4432                	lw	s0,12(sp)
    152c:	44a2                	lw	s1,8(sp)
    152e:	4912                	lw	s2,4(sp)
    1530:	0141                	addi	sp,sp,16
    1532:	8082                	ret

00001534 <OLED_Draw3DCube>:
OLED_Draw3DCube():
C:\MRS_DATA\workspace\CH592F_SSD1306\obj/../src/ssd1306/renderer.c:226
//    viewer_distance = 4.0;
    *x2d = (int)(20.0 * x / (z + 4.0)) + OLED_WIDTH / 2 + offsetX;
    *y2d = (int)(20.0 * y / (z + 4.0)) + OLED_HEIGHT / 2 + offsetY;
}

void OLED_Draw3DCube(float angleX, float angleY, float angleZ, float scale, int offsetX, int offsetY) {
    1534:	7119                	addi	sp,sp,-128
    1536:	dca2                	sw	s0,120(sp)
    1538:	daa6                	sw	s1,116(sp)
    153a:	d6ce                	sw	s3,108(sp)
    153c:	dc3a                	sw	a4,56(sp)
    153e:	de3e                	sw	a5,60(sp)
    1540:	de86                	sw	ra,124(sp)
    1542:	d8ca                	sw	s2,112(sp)
    1544:	d4d2                	sw	s4,104(sp)
    1546:	d2d6                	sw	s5,100(sp)
    1548:	d0da                	sw	s6,96(sp)
    154a:	cede                	sw	s7,92(sp)
    154c:	cce2                	sw	s8,88(sp)
    154e:	cae6                	sw	s9,84(sp)
    1550:	c8ea                	sw	s10,80(sp)
    1552:	c6ee                	sw	s11,76(sp)
    1554:	84ae                	mv	s1,a1
    1556:	8432                	mv	s0,a2
    1558:	89b6                	mv	s3,a3
C:\MRS_DATA\workspace\CH592F_SSD1306\obj/../src/ssd1306/renderer.c:228

    memcpy(vertices, original_vertices, sizeof(original_vertices));
    155a:	00005797          	auipc	a5,0x5
    155e:	35678793          	addi	a5,a5,854 # 68b0 <original_vertices>
    1562:	85818713          	addi	a4,gp,-1960 # 200008b8 <vertices>
    1566:	00005897          	auipc	a7,0x5
    156a:	3aa88893          	addi	a7,a7,938 # 6910 <original_vertices+0x60>
    156e:	0007a803          	lw	a6,0(a5)
    1572:	43cc                	lw	a1,4(a5)
    1574:	4790                	lw	a2,8(a5)
    1576:	47d4                	lw	a3,12(a5)
    1578:	01072023          	sw	a6,0(a4)
    157c:	c34c                	sw	a1,4(a4)
    157e:	c710                	sw	a2,8(a4)
    1580:	c754                	sw	a3,12(a4)
    1582:	07c1                	addi	a5,a5,16
    1584:	0741                	addi	a4,a4,16
    1586:	ff1794e3          	bne	a5,a7,156e <OLED_Draw3DCube+0x3a>
C:\MRS_DATA\workspace\CH592F_SSD1306\obj/../src/ssd1306/renderer.c:229
    memset(projected, 0, 8*2);
    158a:	8001ac23          	sw	zero,-2024(gp) # 20000878 <projected>
    158e:	8001ae23          	sw	zero,-2020(gp) # 2000087c <projected+0x4>
    1592:	8201a023          	sw	zero,-2016(gp) # 20000880 <projected+0x8>
    1596:	8201a223          	sw	zero,-2012(gp) # 20000884 <projected+0xc>
RotateX():
C:\MRS_DATA\workspace\CH592F_SSD1306\obj/../src/ssd1306/renderer.c:179
    float cosa = cos(angle);
    159a:	573040ef          	jal	ra,630c <__extendsfdf2>
    159e:	8a2a                	mv	s4,a0
    15a0:	8aae                	mv	s5,a1
    15a2:	12a010ef          	jal	ra,26cc <cos>
    15a6:	613040ef          	jal	ra,63b8 <__truncdfsf2>
C:\MRS_DATA\workspace\CH592F_SSD1306\obj/../src/ssd1306/renderer.c:180
    float sina = sin(angle);
    15aa:	85d6                	mv	a1,s5
C:\MRS_DATA\workspace\CH592F_SSD1306\obj/../src/ssd1306/renderer.c:179
    float cosa = cos(angle);
    15ac:	8daa                	mv	s11,a0
C:\MRS_DATA\workspace\CH592F_SSD1306\obj/../src/ssd1306/renderer.c:180
    float sina = sin(angle);
    15ae:	8552                	mv	a0,s4
    15b0:	1a6010ef          	jal	ra,2756 <sin>
    15b4:	605040ef          	jal	ra,63b8 <__truncdfsf2>
    15b8:	c82a                	sw	a0,16(sp)
RotateY():
C:\MRS_DATA\workspace\CH592F_SSD1306\obj/../src/ssd1306/renderer.c:188
    float cosa = cos(angle);
    15ba:	8526                	mv	a0,s1
    15bc:	551040ef          	jal	ra,630c <__extendsfdf2>
    15c0:	8a2a                	mv	s4,a0
    15c2:	8aae                	mv	s5,a1
    15c4:	108010ef          	jal	ra,26cc <cos>
    15c8:	5f1040ef          	jal	ra,63b8 <__truncdfsf2>
    15cc:	8d2a                	mv	s10,a0
C:\MRS_DATA\workspace\CH592F_SSD1306\obj/../src/ssd1306/renderer.c:189
    float sina = sin(angle);
    15ce:	85d6                	mv	a1,s5
    15d0:	8552                	mv	a0,s4
    15d2:	184010ef          	jal	ra,2756 <sin>
    15d6:	5e3040ef          	jal	ra,63b8 <__truncdfsf2>
    15da:	8caa                	mv	s9,a0
RotateX():
C:\MRS_DATA\workspace\CH592F_SSD1306\obj/../src/ssd1306/renderer.c:179
    float cosa = cos(angle);
    15dc:	8522                	mv	a0,s0
    15de:	52f040ef          	jal	ra,630c <__extendsfdf2>
    15e2:	842a                	mv	s0,a0
    15e4:	84ae                	mv	s1,a1
    15e6:	0e6010ef          	jal	ra,26cc <cos>
    15ea:	5cf040ef          	jal	ra,63b8 <__truncdfsf2>
C:\MRS_DATA\workspace\CH592F_SSD1306\obj/../src/ssd1306/renderer.c:180
    float sina = sin(angle);
    15ee:	85a6                	mv	a1,s1
C:\MRS_DATA\workspace\CH592F_SSD1306\obj/../src/ssd1306/renderer.c:179
    float cosa = cos(angle);
    15f0:	8c2a                	mv	s8,a0
C:\MRS_DATA\workspace\CH592F_SSD1306\obj/../src/ssd1306/renderer.c:180
    float sina = sin(angle);
    15f2:	8522                	mv	a0,s0
    15f4:	162010ef          	jal	ra,2756 <sin>
    15f8:	5c1040ef          	jal	ra,63b8 <__truncdfsf2>
    15fc:	00005797          	auipc	a5,0x5
    1600:	22c78793          	addi	a5,a5,556 # 6828 <_sbrk+0x32>
Project3DTo2D():
C:\MRS_DATA\workspace\CH592F_SSD1306\obj/../src/ssd1306/renderer.c:222
    *x2d = (int)(20.0 * x / (z + 4.0)) + OLED_WIDTH / 2 + offsetX;
    1604:	4398                	lw	a4,0(a5)
    1606:	43d4                	lw	a3,4(a5)
    1608:	00005797          	auipc	a5,0x5
    160c:	21078793          	addi	a5,a5,528 # 6818 <_sbrk+0x22>
    1610:	0047a803          	lw	a6,4(a5)
    1614:	439c                	lw	a5,0(a5)
    1616:	81818913          	addi	s2,gp,-2024 # 20000878 <projected>
    161a:	ce42                	sw	a6,28(sp)
    161c:	cc3e                	sw	a5,24(sp)
    161e:	00005797          	auipc	a5,0x5
    1622:	20278793          	addi	a5,a5,514 # 6820 <_sbrk+0x2a>
    1626:	0047a803          	lw	a6,4(a5)
    162a:	439c                	lw	a5,0(a5)
RotateX():
C:\MRS_DATA\workspace\CH592F_SSD1306\obj/../src/ssd1306/renderer.c:180
    float sina = sin(angle);
    162c:	ca2a                	sw	a0,20(sp)
Project3DTo2D():
C:\MRS_DATA\workspace\CH592F_SSD1306\obj/../src/ssd1306/renderer.c:222
    *x2d = (int)(20.0 * x / (z + 4.0)) + OLED_WIDTH / 2 + offsetX;
    162e:	d43a                	sw	a4,40(sp)
    1630:	d636                	sw	a3,44(sp)
    1632:	d03e                	sw	a5,32(sp)
    1634:	d242                	sw	a6,36(sp)
    1636:	85818413          	addi	s0,gp,-1960 # 200008b8 <vertices>
    163a:	84ca                	mv	s1,s2
C:\MRS_DATA\workspace\CH592F_SSD1306\obj/../src/ssd1306/renderer.c:223
    *y2d = (int)(20.0 * y / (z + 4.0)) + OLED_HEIGHT / 2 + offsetY;
    163c:	d83a                	sw	a4,48(sp)
    163e:	da36                	sw	a3,52(sp)
OLED_Draw3DCube():
C:\MRS_DATA\workspace\CH592F_SSD1306\obj/../src/ssd1306/renderer.c:233 (discriminator 3)

    for (int i = 0; i < 8; i++) {
        // Scale vertices
        vertices[i][0] *= scale;
    1640:	400c                	lw	a1,0(s0)
    1642:	854e                	mv	a0,s3
    1644:	0431                	addi	s0,s0,12
    1646:	582040ef          	jal	ra,5bc8 <__mulsf3>
C:\MRS_DATA\workspace\CH592F_SSD1306\obj/../src/ssd1306/renderer.c:234 (discriminator 3)
        vertices[i][1] *= scale;
    164a:	ff842583          	lw	a1,-8(s0)
C:\MRS_DATA\workspace\CH592F_SSD1306\obj/../src/ssd1306/renderer.c:233 (discriminator 3)
        vertices[i][0] *= scale;
    164e:	8b2a                	mv	s6,a0
C:\MRS_DATA\workspace\CH592F_SSD1306\obj/../src/ssd1306/renderer.c:234 (discriminator 3)
        vertices[i][1] *= scale;
    1650:	854e                	mv	a0,s3
    1652:	576040ef          	jal	ra,5bc8 <__mulsf3>
C:\MRS_DATA\workspace\CH592F_SSD1306\obj/../src/ssd1306/renderer.c:235 (discriminator 3)
        vertices[i][2] *= scale;
    1656:	ffc42583          	lw	a1,-4(s0)
C:\MRS_DATA\workspace\CH592F_SSD1306\obj/../src/ssd1306/renderer.c:234 (discriminator 3)
        vertices[i][1] *= scale;
    165a:	8baa                	mv	s7,a0
C:\MRS_DATA\workspace\CH592F_SSD1306\obj/../src/ssd1306/renderer.c:235 (discriminator 3)
        vertices[i][2] *= scale;
    165c:	854e                	mv	a0,s3
    165e:	56a040ef          	jal	ra,5bc8 <__mulsf3>
    1662:	8aaa                	mv	s5,a0
RotateX():
C:\MRS_DATA\workspace\CH592F_SSD1306\obj/../src/ssd1306/renderer.c:181 (discriminator 3)
    float y_new = *y * cosa - *z * sina;
    1664:	85ee                	mv	a1,s11
    1666:	855e                	mv	a0,s7
    1668:	560040ef          	jal	ra,5bc8 <__mulsf3>
    166c:	45c2                	lw	a1,16(sp)
    166e:	8a2a                	mv	s4,a0
    1670:	8556                	mv	a0,s5
    1672:	556040ef          	jal	ra,5bc8 <__mulsf3>
    1676:	85aa                	mv	a1,a0
    1678:	8552                	mv	a0,s4
    167a:	7e2040ef          	jal	ra,5e5c <__subsf3>
C:\MRS_DATA\workspace\CH592F_SSD1306\obj/../src/ssd1306/renderer.c:182 (discriminator 3)
    float z_new = *y * sina + *z * cosa;
    167e:	45c2                	lw	a1,16(sp)
C:\MRS_DATA\workspace\CH592F_SSD1306\obj/../src/ssd1306/renderer.c:181 (discriminator 3)
    float y_new = *y * cosa - *z * sina;
    1680:	8a2a                	mv	s4,a0
C:\MRS_DATA\workspace\CH592F_SSD1306\obj/../src/ssd1306/renderer.c:182 (discriminator 3)
    float z_new = *y * sina + *z * cosa;
    1682:	855e                	mv	a0,s7
    1684:	544040ef          	jal	ra,5bc8 <__mulsf3>
    1688:	8baa                	mv	s7,a0
    168a:	85ee                	mv	a1,s11
    168c:	8556                	mv	a0,s5
    168e:	53a040ef          	jal	ra,5bc8 <__mulsf3>
    1692:	85aa                	mv	a1,a0
    1694:	855e                	mv	a0,s7
    1696:	0b6040ef          	jal	ra,574c <__addsf3>
    169a:	8baa                	mv	s7,a0
RotateY():
C:\MRS_DATA\workspace\CH592F_SSD1306\obj/../src/ssd1306/renderer.c:190 (discriminator 3)
    float x_new = *x * cosa + *z * sina;
    169c:	85ea                	mv	a1,s10
    169e:	855a                	mv	a0,s6
    16a0:	528040ef          	jal	ra,5bc8 <__mulsf3>
    16a4:	8aaa                	mv	s5,a0
    16a6:	85de                	mv	a1,s7
    16a8:	8566                	mv	a0,s9
    16aa:	51e040ef          	jal	ra,5bc8 <__mulsf3>
    16ae:	85aa                	mv	a1,a0
    16b0:	8556                	mv	a0,s5
    16b2:	09a040ef          	jal	ra,574c <__addsf3>
    16b6:	8aaa                	mv	s5,a0
C:\MRS_DATA\workspace\CH592F_SSD1306\obj/../src/ssd1306/renderer.c:191 (discriminator 3)
    float z_new = -*x * sina + *z * cosa;
    16b8:	85de                	mv	a1,s7
    16ba:	856a                	mv	a0,s10
    16bc:	50c040ef          	jal	ra,5bc8 <__mulsf3>
    16c0:	8baa                	mv	s7,a0
    16c2:	85e6                	mv	a1,s9
    16c4:	855a                	mv	a0,s6
    16c6:	502040ef          	jal	ra,5bc8 <__mulsf3>
    16ca:	85aa                	mv	a1,a0
    16cc:	855e                	mv	a0,s7
    16ce:	78e040ef          	jal	ra,5e5c <__subsf3>
RotateX():
C:\MRS_DATA\workspace\CH592F_SSD1306\obj/../src/ssd1306/renderer.c:181 (discriminator 3)
    float y_new = *y * cosa - *z * sina;
    16d2:	85d6                	mv	a1,s5
RotateY():
C:\MRS_DATA\workspace\CH592F_SSD1306\obj/../src/ssd1306/renderer.c:193 (discriminator 3)
    *z = z_new;
    16d4:	fea42e23          	sw	a0,-4(s0)
    16d8:	c42a                	sw	a0,8(sp)
RotateX():
C:\MRS_DATA\workspace\CH592F_SSD1306\obj/../src/ssd1306/renderer.c:181 (discriminator 3)
    float y_new = *y * cosa - *z * sina;
    16da:	8562                	mv	a0,s8
    16dc:	4ec040ef          	jal	ra,5bc8 <__mulsf3>
    16e0:	4bd2                	lw	s7,20(sp)
    16e2:	8b2a                	mv	s6,a0
    16e4:	85d2                	mv	a1,s4
    16e6:	855e                	mv	a0,s7
    16e8:	4e0040ef          	jal	ra,5bc8 <__mulsf3>
    16ec:	85aa                	mv	a1,a0
    16ee:	855a                	mv	a0,s6
    16f0:	76c040ef          	jal	ra,5e5c <__subsf3>
    16f4:	8b2a                	mv	s6,a0
C:\MRS_DATA\workspace\CH592F_SSD1306\obj/../src/ssd1306/renderer.c:182 (discriminator 3)
    float z_new = *y * sina + *z * cosa;
    16f6:	85d6                	mv	a1,s5
    16f8:	855e                	mv	a0,s7
    16fa:	4ce040ef          	jal	ra,5bc8 <__mulsf3>
    16fe:	8aaa                	mv	s5,a0
    1700:	85d2                	mv	a1,s4
    1702:	8562                	mv	a0,s8
    1704:	4c4040ef          	jal	ra,5bc8 <__mulsf3>
    1708:	85aa                	mv	a1,a0
    170a:	8556                	mv	a0,s5
    170c:	040040ef          	jal	ra,574c <__addsf3>
Project3DTo2D():
C:\MRS_DATA\workspace\CH592F_SSD1306\obj/../src/ssd1306/renderer.c:222 (discriminator 3)
    *x2d = (int)(20.0 * x / (z + 4.0)) + OLED_WIDTH / 2 + offsetX;
    1710:	47a2                	lw	a5,8(sp)
RotateX():
C:\MRS_DATA\workspace\CH592F_SSD1306\obj/../src/ssd1306/renderer.c:182 (discriminator 3)
    float z_new = *y * sina + *z * cosa;
    1712:	8baa                	mv	s7,a0
C:\MRS_DATA\workspace\CH592F_SSD1306\obj/../src/ssd1306/renderer.c:184 (discriminator 3)
    *z = z_new;
    1714:	fea42c23          	sw	a0,-8(s0)
C:\MRS_DATA\workspace\CH592F_SSD1306\obj/../src/ssd1306/renderer.c:183 (discriminator 3)
    *y = y_new;
    1718:	ff642a23          	sw	s6,-12(s0)
Project3DTo2D():
C:\MRS_DATA\workspace\CH592F_SSD1306\obj/../src/ssd1306/renderer.c:222 (discriminator 3)
    *x2d = (int)(20.0 * x / (z + 4.0)) + OLED_WIDTH / 2 + offsetX;
    171c:	853e                	mv	a0,a5
    171e:	3ef040ef          	jal	ra,630c <__extendsfdf2>
    1722:	4662                	lw	a2,24(sp)
    1724:	46f2                	lw	a3,28(sp)
    1726:	04a1                	addi	s1,s1,8
    1728:	558020ef          	jal	ra,3c80 <__adddf3>
    172c:	862a                	mv	a2,a0
    172e:	86ae                	mv	a3,a1
    1730:	5502                	lw	a0,32(sp)
    1732:	5592                	lw	a1,36(sp)
    1734:	47d020ef          	jal	ra,43b0 <__divdf3>
    1738:	5622                	lw	a2,40(sp)
    173a:	56b2                	lw	a3,44(sp)
    173c:	8a2a                	mv	s4,a0
    173e:	8aae                	mv	s5,a1
    1740:	33c030ef          	jal	ra,4a7c <__muldf3>
    1744:	c42a                	sw	a0,8(sp)
    1746:	855a                	mv	a0,s6
    1748:	c62e                	sw	a1,12(sp)
    174a:	3c3040ef          	jal	ra,630c <__extendsfdf2>
    174e:	4722                	lw	a4,8(sp)
    1750:	47b2                	lw	a5,12(sp)
    1752:	862a                	mv	a2,a0
    1754:	86ae                	mv	a3,a1
    1756:	853a                	mv	a0,a4
    1758:	85be                	mv	a1,a5
    175a:	322030ef          	jal	ra,4a7c <__muldf3>
    175e:	715030ef          	jal	ra,5672 <__fixdfsi>
    1762:	57e2                	lw	a5,56(sp)
    1764:	04050513          	addi	a0,a0,64
    1768:	953e                	add	a0,a0,a5
    176a:	fea4ac23          	sw	a0,-8(s1)
C:\MRS_DATA\workspace\CH592F_SSD1306\obj/../src/ssd1306/renderer.c:223 (discriminator 3)
    *y2d = (int)(20.0 * y / (z + 4.0)) + OLED_HEIGHT / 2 + offsetY;
    176e:	855e                	mv	a0,s7
    1770:	39d040ef          	jal	ra,630c <__extendsfdf2>
    1774:	8652                	mv	a2,s4
    1776:	86d6                	mv	a3,s5
    1778:	304030ef          	jal	ra,4a7c <__muldf3>
    177c:	5642                	lw	a2,48(sp)
    177e:	56d2                	lw	a3,52(sp)
    1780:	2fc030ef          	jal	ra,4a7c <__muldf3>
    1784:	6ef030ef          	jal	ra,5672 <__fixdfsi>
    1788:	57f2                	lw	a5,60(sp)
    178a:	0541                	addi	a0,a0,16
    178c:	953e                	add	a0,a0,a5
    178e:	fea4ae23          	sw	a0,-4(s1)
OLED_Draw3DCube():
C:\MRS_DATA\workspace\CH592F_SSD1306\obj/../src/ssd1306/renderer.c:231 (discriminator 3)
    for (int i = 0; i < 8; i++) {
    1792:	8b818793          	addi	a5,gp,-1864 # 20000918 <errno>
    1796:	eaf415e3          	bne	s0,a5,1640 <OLED_Draw3DCube+0x10c>
C:\MRS_DATA\workspace\CH592F_SSD1306\obj/../src/ssd1306/renderer.c:246

        // Project 3D coordinates to 2D with offsets
        Project3DTo2D(vertices[i][0], vertices[i][1], vertices[i][2], &projected[i][0], &projected[i][1], offsetX, offsetY);
    }

    memset(buffer, 0x00, OLED_WIDTH * ((OLED_HEIGHT + 7) / 8)); // Clear the buffer before drawing new frame
    179a:	80818793          	addi	a5,gp,-2040 # 20000868 <_edata>
    179e:	4388                	lw	a0,0(a5)
    17a0:	20000613          	li	a2,512
    17a4:	4581                	li	a1,0
    17a6:	894ff0ef          	jal	ra,83a <memset>
C:\MRS_DATA\workspace\CH592F_SSD1306\obj/../src/ssd1306/renderer.c:248

    for (int i = 0; i < 12; i++) {
    17aa:	00005417          	auipc	s0,0x5
    17ae:	0a640413          	addi	s0,s0,166 # 6850 <edges>
    17b2:	00005497          	auipc	s1,0x5
    17b6:	0fe48493          	addi	s1,s1,254 # 68b0 <original_vertices>
C:\MRS_DATA\workspace\CH592F_SSD1306\obj/../src/ssd1306/renderer.c:249 (discriminator 3)
        OLED_DrawLine(projected[edges[i][0]][0], projected[edges[i][0]][1], projected[edges[i][1]][0], projected[edges[i][1]][1]);
    17ba:	401c                	lw	a5,0(s0)
    17bc:	4058                	lw	a4,4(s0)
    17be:	0421                	addi	s0,s0,8
    17c0:	078e                	slli	a5,a5,0x3
    17c2:	070e                	slli	a4,a4,0x3
    17c4:	974a                	add	a4,a4,s2
    17c6:	97ca                	add	a5,a5,s2
    17c8:	4354                	lw	a3,4(a4)
    17ca:	4310                	lw	a2,0(a4)
    17cc:	43cc                	lw	a1,4(a5)
    17ce:	4388                	lw	a0,0(a5)
    17d0:	315d                	jal	1476 <OLED_DrawLine>
C:\MRS_DATA\workspace\CH592F_SSD1306\obj/../src/ssd1306/renderer.c:248 (discriminator 3)
    for (int i = 0; i < 12; i++) {
    17d2:	fe9414e3          	bne	s0,s1,17ba <OLED_Draw3DCube+0x286>
C:\MRS_DATA\workspace\CH592F_SSD1306\obj/../src/ssd1306/renderer.c:253
    }

    OLED_UpdateScreen();
}
    17d6:	5466                	lw	s0,120(sp)
    17d8:	50f6                	lw	ra,124(sp)
    17da:	54d6                	lw	s1,116(sp)
    17dc:	5946                	lw	s2,112(sp)
    17de:	59b6                	lw	s3,108(sp)
    17e0:	5a26                	lw	s4,104(sp)
    17e2:	5a96                	lw	s5,100(sp)
    17e4:	5b06                	lw	s6,96(sp)
    17e6:	4bf6                	lw	s7,92(sp)
    17e8:	4c66                	lw	s8,88(sp)
    17ea:	4cd6                	lw	s9,84(sp)
    17ec:	4d46                	lw	s10,80(sp)
    17ee:	4db6                	lw	s11,76(sp)
    17f0:	6109                	addi	sp,sp,128
C:\MRS_DATA\workspace\CH592F_SSD1306\obj/../src/ssd1306/renderer.c:252
    OLED_UpdateScreen();
    17f2:	b09ff06f          	j	12fa <OLED_UpdateScreen>

000017f6 <OLED_Test>:
OLED_Test():
C:\MRS_DATA\workspace\CH592F_SSD1306\obj/../src/ssd1306/renderer.c:255

void OLED_Test(void){
    17f6:	7179                	addi	sp,sp,-48
    17f8:	d422                	sw	s0,40(sp)
C:\MRS_DATA\workspace\CH592F_SSD1306\obj/../src/ssd1306/renderer.c:256
    memset(buffer, 0x00, OLED_WIDTH * ((OLED_HEIGHT + 7) / 8));
    17fa:	80818413          	addi	s0,gp,-2040 # 20000868 <_edata>
    17fe:	4008                	lw	a0,0(s0)
    1800:	20000613          	li	a2,512
    1804:	4581                	li	a1,0
C:\MRS_DATA\workspace\CH592F_SSD1306\obj/../src/ssd1306/renderer.c:255
void OLED_Test(void){
    1806:	d606                	sw	ra,44(sp)
    1808:	d226                	sw	s1,36(sp)
    180a:	d04a                	sw	s2,32(sp)
    180c:	ce4e                	sw	s3,28(sp)
    180e:	cc52                	sw	s4,24(sp)
    1810:	ca56                	sw	s5,20(sp)
    1812:	c85a                	sw	s6,16(sp)
    1814:	c65e                	sw	s7,12(sp)
    1816:	c462                	sw	s8,8(sp)
    1818:	c266                	sw	s9,4(sp)
    181a:	c06a                	sw	s10,0(sp)
C:\MRS_DATA\workspace\CH592F_SSD1306\obj/../src/ssd1306/renderer.c:256
    memset(buffer, 0x00, OLED_WIDTH * ((OLED_HEIGHT + 7) / 8));
    181c:	81eff0ef          	jal	ra,83a <memset>
C:\MRS_DATA\workspace\CH592F_SSD1306\obj/../src/ssd1306/renderer.c:257
    OLED_UpdateScreen();
    1820:	adbff0ef          	jal	ra,12fa <OLED_UpdateScreen>
OLED_Clear():
C:\MRS_DATA\workspace\CH592F_SSD1306\obj/../src/ssd1306/renderer.c:121
    memset(buffer, 0x00, OLED_WIDTH * ((OLED_HEIGHT + 7) / 8));
    1824:	4008                	lw	a0,0(s0)
    1826:	20000613          	li	a2,512
    182a:	4581                	li	a1,0
    182c:	80eff0ef          	jal	ra,83a <memset>
C:\MRS_DATA\workspace\CH592F_SSD1306\obj/../src/ssd1306/renderer.c:122
    OLED_UpdateScreen();
    1830:	acbff0ef          	jal	ra,12fa <OLED_UpdateScreen>
OLED_Test():
C:\MRS_DATA\workspace\CH592F_SSD1306\obj/../src/ssd1306/renderer.c:262

    OLED_Clear();
    for (uint16_t i = 0; i < OLED_WIDTH * ((OLED_HEIGHT + 7) / 8); i++) {
        if(i % 2 == 0)  {buffer[i] = 0x00;}
        else            {buffer[i] = 0xAA;}
    1834:	4014                	lw	a3,0(s0)
    1836:	4781                	li	a5,0
    1838:	faa00813          	li	a6,-86
C:\MRS_DATA\workspace\CH592F_SSD1306\obj/../src/ssd1306/renderer.c:260
    for (uint16_t i = 0; i < OLED_WIDTH * ((OLED_HEIGHT + 7) / 8); i++) {
    183c:	20000513          	li	a0,512
    1840:	a031                	j	184c <OLED_Test+0x56>
C:\MRS_DATA\workspace\CH592F_SSD1306\obj/../src/ssd1306/renderer.c:261
        if(i % 2 == 0)  {buffer[i] = 0x00;}
    1842:	00058023          	sb	zero,0(a1)
    1846:	0785                	addi	a5,a5,1
C:\MRS_DATA\workspace\CH592F_SSD1306\obj/../src/ssd1306/renderer.c:260
    for (uint16_t i = 0; i < OLED_WIDTH * ((OLED_HEIGHT + 7) / 8); i++) {
    1848:	00a78c63          	beq	a5,a0,1860 <OLED_Test+0x6a>
C:\MRS_DATA\workspace\CH592F_SSD1306\obj/../src/ssd1306/renderer.c:261
        if(i % 2 == 0)  {buffer[i] = 0x00;}
    184c:	0017f713          	andi	a4,a5,1
    1850:	00f685b3          	add	a1,a3,a5
    1854:	d77d                	beqz	a4,1842 <OLED_Test+0x4c>
C:\MRS_DATA\workspace\CH592F_SSD1306\obj/../src/ssd1306/renderer.c:262
        else            {buffer[i] = 0xAA;}
    1856:	01058023          	sb	a6,0(a1)
    185a:	0785                	addi	a5,a5,1
C:\MRS_DATA\workspace\CH592F_SSD1306\obj/../src/ssd1306/renderer.c:260
    for (uint16_t i = 0; i < OLED_WIDTH * ((OLED_HEIGHT + 7) / 8); i++) {
    185c:	fea798e3          	bne	a5,a0,184c <OLED_Test+0x56>
C:\MRS_DATA\workspace\CH592F_SSD1306\obj/../src/ssd1306/renderer.c:264
    }
    OLED_UpdateScreen();
    1860:	a9bff0ef          	jal	ra,12fa <OLED_UpdateScreen>
C:\MRS_DATA\workspace\CH592F_SSD1306\obj/../src/ssd1306/renderer.c:265
    DelayMs(2000);
    1864:	7d000513          	li	a0,2000
    1868:	1ffff097          	auipc	ra,0x1ffff
    186c:	ad2080e7          	jalr	-1326(ra) # 2000033a <mDelaymS>
C:\MRS_DATA\workspace\CH592F_SSD1306\obj/../src/ssd1306/renderer.c:267

    memset(buffer, 0xFF, OLED_WIDTH * ((OLED_HEIGHT + 7) / 8));
    1870:	4008                	lw	a0,0(s0)
    1872:	20000613          	li	a2,512
    1876:	0ff00593          	li	a1,255
    187a:	fc1fe0ef          	jal	ra,83a <memset>
C:\MRS_DATA\workspace\CH592F_SSD1306\obj/../src/ssd1306/renderer.c:268
    OLED_UpdateScreen();
    187e:	a7dff0ef          	jal	ra,12fa <OLED_UpdateScreen>
C:\MRS_DATA\workspace\CH592F_SSD1306\obj/../src/ssd1306/renderer.c:269
    DelayMs(2000);
    1882:	7d000513          	li	a0,2000
    1886:	1ffff097          	auipc	ra,0x1ffff
    188a:	ab4080e7          	jalr	-1356(ra) # 2000033a <mDelaymS>
OLED_Clear():
C:\MRS_DATA\workspace\CH592F_SSD1306\obj/../src/ssd1306/renderer.c:121
    memset(buffer, 0x00, OLED_WIDTH * ((OLED_HEIGHT + 7) / 8));
    188e:	4008                	lw	a0,0(s0)
    1890:	20000613          	li	a2,512
    1894:	4581                	li	a1,0
    1896:	fa5fe0ef          	jal	ra,83a <memset>
C:\MRS_DATA\workspace\CH592F_SSD1306\obj/../src/ssd1306/renderer.c:122
    OLED_UpdateScreen();
    189a:	a61ff0ef          	jal	ra,12fa <OLED_UpdateScreen>
OLED_Test():
C:\MRS_DATA\workspace\CH592F_SSD1306\obj/../src/ssd1306/renderer.c:273

    OLED_Clear();
    // Draw sine wave
    memset(buffer, 0x00, OLED_WIDTH * ((OLED_HEIGHT + 7) / 8));
    189e:	4000                	lw	s0,0(s0)
    18a0:	4581                	li	a1,0
    18a2:	20000613          	li	a2,512
    18a6:	8522                	mv	a0,s0
    18a8:	f93fe0ef          	jal	ra,83a <memset>
C:\MRS_DATA\workspace\CH592F_SSD1306\obj/../src/ssd1306/renderer.c:282
    float angle = 0.0;
    int y,page,bit;
    for (int x = 0; x < OLED_WIDTH; x++) {
        // Calculate the y position of the sine wave
        angle = x * frequency * 2 * M_PI; // Convert x to angle
        y = (int)(amplitude * sin(angle) + offset);
    18ac:	00005797          	auipc	a5,0x5
    18b0:	f8c78793          	addi	a5,a5,-116 # 6838 <_sbrk+0x42>
    18b4:	0007aa03          	lw	s4,0(a5)
    18b8:	0047aa83          	lw	s5,4(a5)
    18bc:	00005797          	auipc	a5,0x5
    18c0:	f8478793          	addi	a5,a5,-124 # 6840 <_sbrk+0x4a>
    18c4:	0007a903          	lw	s2,0(a5)
    18c8:	0047a983          	lw	s3,4(a5)
C:\MRS_DATA\workspace\CH592F_SSD1306\obj/../src/ssd1306/renderer.c:273
    memset(buffer, 0x00, OLED_WIDTH * ((OLED_HEIGHT + 7) / 8));
    18cc:	4501                	li	a0,0
    18ce:	4581                	li	a1,0
C:\MRS_DATA\workspace\CH592F_SSD1306\obj/../src/ssd1306/renderer.c:279
    for (int x = 0; x < OLED_WIDTH; x++) {
    18d0:	4d01                	li	s10,0
C:\MRS_DATA\workspace\CH592F_SSD1306\obj/../src/ssd1306/renderer.c:284

        if (y >= 0 && y < OLED_HEIGHT) {
    18d2:	4bfd                	li	s7,31
C:\MRS_DATA\workspace\CH592F_SSD1306\obj/../src/ssd1306/renderer.c:289
            page = y / 8; // Page in the buffer
            bit = y % 8;  // Bit position within the page

            // Set the pixel in the buffer
            buffer[page * OLED_WIDTH + x] |= (1 << bit);
    18d4:	4b05                	li	s6,1
C:\MRS_DATA\workspace\CH592F_SSD1306\obj/../src/ssd1306/renderer.c:279
    for (int x = 0; x < OLED_WIDTH; x++) {
    18d6:	08000493          	li	s1,128
    18da:	00005c97          	auipc	s9,0x5
    18de:	f56c8c93          	addi	s9,s9,-170 # 6830 <_sbrk+0x3a>
    18e2:	00005c17          	auipc	s8,0x5
    18e6:	f66c0c13          	addi	s8,s8,-154 # 6848 <_sbrk+0x52>
C:\MRS_DATA\workspace\CH592F_SSD1306\obj/../src/ssd1306/renderer.c:282
        y = (int)(amplitude * sin(angle) + offset);
    18ea:	8652                	mv	a2,s4
    18ec:	86d6                	mv	a3,s5
    18ee:	18e030ef          	jal	ra,4a7c <__muldf3>
    18f2:	86ce                	mv	a3,s3
    18f4:	864a                	mv	a2,s2
    18f6:	38a020ef          	jal	ra,3c80 <__adddf3>
    18fa:	579030ef          	jal	ra,5672 <__fixdfsi>
C:\MRS_DATA\workspace\CH592F_SSD1306\obj/../src/ssd1306/renderer.c:285
            page = y / 8; // Page in the buffer
    18fe:	40355793          	srai	a5,a0,0x3
C:\MRS_DATA\workspace\CH592F_SSD1306\obj/../src/ssd1306/renderer.c:289
            buffer[page * OLED_WIDTH + x] |= (1 << bit);
    1902:	079e                	slli	a5,a5,0x7
    1904:	97ea                	add	a5,a5,s10
C:\MRS_DATA\workspace\CH592F_SSD1306\obj/../src/ssd1306/renderer.c:286
            bit = y % 8;  // Bit position within the page
    1906:	00757713          	andi	a4,a0,7
C:\MRS_DATA\workspace\CH592F_SSD1306\obj/../src/ssd1306/renderer.c:282
        y = (int)(amplitude * sin(angle) + offset);
    190a:	86aa                	mv	a3,a0
C:\MRS_DATA\workspace\CH592F_SSD1306\obj/../src/ssd1306/renderer.c:279
    for (int x = 0; x < OLED_WIDTH; x++) {
    190c:	0d05                	addi	s10,s10,1
C:\MRS_DATA\workspace\CH592F_SSD1306\obj/../src/ssd1306/renderer.c:289
            buffer[page * OLED_WIDTH + x] |= (1 << bit);
    190e:	97a2                	add	a5,a5,s0
    1910:	00eb1733          	sll	a4,s6,a4
    1914:	856a                	mv	a0,s10
C:\MRS_DATA\workspace\CH592F_SSD1306\obj/../src/ssd1306/renderer.c:284
        if (y >= 0 && y < OLED_HEIGHT) {
    1916:	00dbe763          	bltu	s7,a3,1924 <OLED_Test+0x12e>
C:\MRS_DATA\workspace\CH592F_SSD1306\obj/../src/ssd1306/renderer.c:289
            buffer[page * OLED_WIDTH + x] |= (1 << bit);
    191a:	0007c683          	lbu	a3,0(a5)
    191e:	8f55                	or	a4,a4,a3
    1920:	00e78023          	sb	a4,0(a5)
C:\MRS_DATA\workspace\CH592F_SSD1306\obj/../src/ssd1306/renderer.c:279 (discriminator 2)
    for (int x = 0; x < OLED_WIDTH; x++) {
    1924:	029d0763          	beq	s10,s1,1952 <OLED_Test+0x15c>
    1928:	11f040ef          	jal	ra,6246 <__floatsisf>
    192c:	000ca583          	lw	a1,0(s9)
    1930:	298040ef          	jal	ra,5bc8 <__mulsf3>
    1934:	1d9040ef          	jal	ra,630c <__extendsfdf2>
    1938:	000c2603          	lw	a2,0(s8)
    193c:	004c2683          	lw	a3,4(s8)
    1940:	13c030ef          	jal	ra,4a7c <__muldf3>
    1944:	275040ef          	jal	ra,63b8 <__truncdfsf2>
    1948:	1c5040ef          	jal	ra,630c <__extendsfdf2>
    194c:	60b000ef          	jal	ra,2756 <sin>
    1950:	bf69                	j	18ea <OLED_Test+0xf4>
C:\MRS_DATA\workspace\CH592F_SSD1306\obj/../src/ssd1306/renderer.c:293
        }
    }

    OLED_UpdateScreen();
    1952:	9a9ff0ef          	jal	ra,12fa <OLED_UpdateScreen>
C:\MRS_DATA\workspace\CH592F_SSD1306\obj/../src/ssd1306/renderer.c:294
    DelayMs(2000);
    1956:	7d000513          	li	a0,2000
    195a:	1ffff097          	auipc	ra,0x1ffff
    195e:	9e0080e7          	jalr	-1568(ra) # 2000033a <mDelaymS>
I2C_WriteCommand():
C:\MRS_DATA\workspace\CH592F_SSD1306\obj/../src/ssd1306/renderer.c:28
    I2C_GenerateSTART(ENABLE);
    1962:	4505                	li	a0,1
C:\MRS_DATA\workspace\CH592F_SSD1306\obj/../src/ssd1306/renderer.c:29
    while (!I2C_CheckEvent(I2C_EVENT_MASTER_MODE_SELECT));
    1964:	00030437          	lui	s0,0x30
C:\MRS_DATA\workspace\CH592F_SSD1306\obj/../src/ssd1306/renderer.c:28
    I2C_GenerateSTART(ENABLE);
    1968:	313000ef          	jal	ra,247a <I2C_GenerateSTART>
C:\MRS_DATA\workspace\CH592F_SSD1306\obj/../src/ssd1306/renderer.c:29
    while (!I2C_CheckEvent(I2C_EVENT_MASTER_MODE_SELECT));
    196c:	0405                	addi	s0,s0,1
    196e:	8522                	mv	a0,s0
    1970:	379000ef          	jal	ra,24e8 <I2C_CheckEvent>
    1974:	dd6d                	beqz	a0,196e <OLED_Test+0x178>
C:\MRS_DATA\workspace\CH592F_SSD1306\obj/../src/ssd1306/renderer.c:30
    I2C_Send7bitAddress(OLED_I2C_ADDR << 1, I2C_Direction_Transmitter);
    1976:	4581                	li	a1,0
    1978:	07800513          	li	a0,120
C:\MRS_DATA\workspace\CH592F_SSD1306\obj/../src/ssd1306/renderer.c:31
    while (!I2C_CheckEvent(I2C_EVENT_MASTER_TRANSMITTER_MODE_SELECTED));
    197c:	00070437          	lui	s0,0x70
C:\MRS_DATA\workspace\CH592F_SSD1306\obj/../src/ssd1306/renderer.c:30
    I2C_Send7bitAddress(OLED_I2C_ADDR << 1, I2C_Direction_Transmitter);
    1980:	351000ef          	jal	ra,24d0 <I2C_Send7bitAddress>
C:\MRS_DATA\workspace\CH592F_SSD1306\obj/../src/ssd1306/renderer.c:31
    while (!I2C_CheckEvent(I2C_EVENT_MASTER_TRANSMITTER_MODE_SELECTED));
    1984:	08240413          	addi	s0,s0,130 # 70082 <_data_lma+0x6928a>
    1988:	8522                	mv	a0,s0
    198a:	35f000ef          	jal	ra,24e8 <I2C_CheckEvent>
    198e:	dd6d                	beqz	a0,1988 <OLED_Test+0x192>
C:\MRS_DATA\workspace\CH592F_SSD1306\obj/../src/ssd1306/renderer.c:32
    I2C_SendData(0x00);     // Command mode
    1990:	4501                	li	a0,0
C:\MRS_DATA\workspace\CH592F_SSD1306\obj/../src/ssd1306/renderer.c:33
    while (!I2C_CheckEvent(I2C_EVENT_MASTER_BYTE_TRANSMITTED));
    1992:	00070437          	lui	s0,0x70
C:\MRS_DATA\workspace\CH592F_SSD1306\obj/../src/ssd1306/renderer.c:32
    I2C_SendData(0x00);     // Command mode
    1996:	331000ef          	jal	ra,24c6 <I2C_SendData>
C:\MRS_DATA\workspace\CH592F_SSD1306\obj/../src/ssd1306/renderer.c:33
    while (!I2C_CheckEvent(I2C_EVENT_MASTER_BYTE_TRANSMITTED));
    199a:	08440413          	addi	s0,s0,132 # 70084 <_data_lma+0x6928c>
    199e:	8522                	mv	a0,s0
    19a0:	349000ef          	jal	ra,24e8 <I2C_CheckEvent>
    19a4:	dd6d                	beqz	a0,199e <OLED_Test+0x1a8>
C:\MRS_DATA\workspace\CH592F_SSD1306\obj/../src/ssd1306/renderer.c:34
    I2C_SendData(command);
    19a6:	02e00513          	li	a0,46
C:\MRS_DATA\workspace\CH592F_SSD1306\obj/../src/ssd1306/renderer.c:35
    while (!I2C_CheckEvent(I2C_EVENT_MASTER_BYTE_TRANSMITTED));
    19aa:	00070437          	lui	s0,0x70
C:\MRS_DATA\workspace\CH592F_SSD1306\obj/../src/ssd1306/renderer.c:34
    I2C_SendData(command);
    19ae:	319000ef          	jal	ra,24c6 <I2C_SendData>
C:\MRS_DATA\workspace\CH592F_SSD1306\obj/../src/ssd1306/renderer.c:35
    while (!I2C_CheckEvent(I2C_EVENT_MASTER_BYTE_TRANSMITTED));
    19b2:	08440413          	addi	s0,s0,132 # 70084 <_data_lma+0x6928c>
    19b6:	8522                	mv	a0,s0
    19b8:	331000ef          	jal	ra,24e8 <I2C_CheckEvent>
    19bc:	dd6d                	beqz	a0,19b6 <OLED_Test+0x1c0>
C:\MRS_DATA\workspace\CH592F_SSD1306\obj/../src/ssd1306/renderer.c:36
    I2C_GenerateSTOP(ENABLE);
    19be:	4505                	li	a0,1
    19c0:	2e1000ef          	jal	ra,24a0 <I2C_GenerateSTOP>
C:\MRS_DATA\workspace\CH592F_SSD1306\obj/../src/ssd1306/renderer.c:28
    I2C_GenerateSTART(ENABLE);
    19c4:	4505                	li	a0,1
C:\MRS_DATA\workspace\CH592F_SSD1306\obj/../src/ssd1306/renderer.c:29
    while (!I2C_CheckEvent(I2C_EVENT_MASTER_MODE_SELECT));
    19c6:	00030437          	lui	s0,0x30
C:\MRS_DATA\workspace\CH592F_SSD1306\obj/../src/ssd1306/renderer.c:28
    I2C_GenerateSTART(ENABLE);
    19ca:	2b1000ef          	jal	ra,247a <I2C_GenerateSTART>
C:\MRS_DATA\workspace\CH592F_SSD1306\obj/../src/ssd1306/renderer.c:29
    while (!I2C_CheckEvent(I2C_EVENT_MASTER_MODE_SELECT));
    19ce:	0405                	addi	s0,s0,1
    19d0:	8522                	mv	a0,s0
    19d2:	317000ef          	jal	ra,24e8 <I2C_CheckEvent>
    19d6:	dd6d                	beqz	a0,19d0 <OLED_Test+0x1da>
C:\MRS_DATA\workspace\CH592F_SSD1306\obj/../src/ssd1306/renderer.c:30
    I2C_Send7bitAddress(OLED_I2C_ADDR << 1, I2C_Direction_Transmitter);
    19d8:	4581                	li	a1,0
    19da:	07800513          	li	a0,120
C:\MRS_DATA\workspace\CH592F_SSD1306\obj/../src/ssd1306/renderer.c:31
    while (!I2C_CheckEvent(I2C_EVENT_MASTER_TRANSMITTER_MODE_SELECTED));
    19de:	00070437          	lui	s0,0x70
C:\MRS_DATA\workspace\CH592F_SSD1306\obj/../src/ssd1306/renderer.c:30
    I2C_Send7bitAddress(OLED_I2C_ADDR << 1, I2C_Direction_Transmitter);
    19e2:	2ef000ef          	jal	ra,24d0 <I2C_Send7bitAddress>
C:\MRS_DATA\workspace\CH592F_SSD1306\obj/../src/ssd1306/renderer.c:31
    while (!I2C_CheckEvent(I2C_EVENT_MASTER_TRANSMITTER_MODE_SELECTED));
    19e6:	08240413          	addi	s0,s0,130 # 70082 <_data_lma+0x6928a>
    19ea:	8522                	mv	a0,s0
    19ec:	2fd000ef          	jal	ra,24e8 <I2C_CheckEvent>
    19f0:	dd6d                	beqz	a0,19ea <OLED_Test+0x1f4>
C:\MRS_DATA\workspace\CH592F_SSD1306\obj/../src/ssd1306/renderer.c:32
    I2C_SendData(0x00);     // Command mode
    19f2:	4501                	li	a0,0
C:\MRS_DATA\workspace\CH592F_SSD1306\obj/../src/ssd1306/renderer.c:33
    while (!I2C_CheckEvent(I2C_EVENT_MASTER_BYTE_TRANSMITTED));
    19f4:	00070437          	lui	s0,0x70
C:\MRS_DATA\workspace\CH592F_SSD1306\obj/../src/ssd1306/renderer.c:32
    I2C_SendData(0x00);     // Command mode
    19f8:	2cf000ef          	jal	ra,24c6 <I2C_SendData>
C:\MRS_DATA\workspace\CH592F_SSD1306\obj/../src/ssd1306/renderer.c:33
    while (!I2C_CheckEvent(I2C_EVENT_MASTER_BYTE_TRANSMITTED));
    19fc:	08440413          	addi	s0,s0,132 # 70084 <_data_lma+0x6928c>
    1a00:	8522                	mv	a0,s0
    1a02:	2e7000ef          	jal	ra,24e8 <I2C_CheckEvent>
    1a06:	dd6d                	beqz	a0,1a00 <OLED_Test+0x20a>
C:\MRS_DATA\workspace\CH592F_SSD1306\obj/../src/ssd1306/renderer.c:34
    I2C_SendData(command);
    1a08:	02600513          	li	a0,38
C:\MRS_DATA\workspace\CH592F_SSD1306\obj/../src/ssd1306/renderer.c:35
    while (!I2C_CheckEvent(I2C_EVENT_MASTER_BYTE_TRANSMITTED));
    1a0c:	00070437          	lui	s0,0x70
C:\MRS_DATA\workspace\CH592F_SSD1306\obj/../src/ssd1306/renderer.c:34
    I2C_SendData(command);
    1a10:	2b7000ef          	jal	ra,24c6 <I2C_SendData>
C:\MRS_DATA\workspace\CH592F_SSD1306\obj/../src/ssd1306/renderer.c:35
    while (!I2C_CheckEvent(I2C_EVENT_MASTER_BYTE_TRANSMITTED));
    1a14:	08440413          	addi	s0,s0,132 # 70084 <_data_lma+0x6928c>
    1a18:	8522                	mv	a0,s0
    1a1a:	2cf000ef          	jal	ra,24e8 <I2C_CheckEvent>
    1a1e:	dd6d                	beqz	a0,1a18 <OLED_Test+0x222>
C:\MRS_DATA\workspace\CH592F_SSD1306\obj/../src/ssd1306/renderer.c:36
    I2C_GenerateSTOP(ENABLE);
    1a20:	4505                	li	a0,1
    1a22:	27f000ef          	jal	ra,24a0 <I2C_GenerateSTOP>
C:\MRS_DATA\workspace\CH592F_SSD1306\obj/../src/ssd1306/renderer.c:28
    I2C_GenerateSTART(ENABLE);
    1a26:	4505                	li	a0,1
C:\MRS_DATA\workspace\CH592F_SSD1306\obj/../src/ssd1306/renderer.c:29
    while (!I2C_CheckEvent(I2C_EVENT_MASTER_MODE_SELECT));
    1a28:	00030437          	lui	s0,0x30
C:\MRS_DATA\workspace\CH592F_SSD1306\obj/../src/ssd1306/renderer.c:28
    I2C_GenerateSTART(ENABLE);
    1a2c:	24f000ef          	jal	ra,247a <I2C_GenerateSTART>
C:\MRS_DATA\workspace\CH592F_SSD1306\obj/../src/ssd1306/renderer.c:29
    while (!I2C_CheckEvent(I2C_EVENT_MASTER_MODE_SELECT));
    1a30:	0405                	addi	s0,s0,1
    1a32:	8522                	mv	a0,s0
    1a34:	2b5000ef          	jal	ra,24e8 <I2C_CheckEvent>
    1a38:	dd6d                	beqz	a0,1a32 <OLED_Test+0x23c>
C:\MRS_DATA\workspace\CH592F_SSD1306\obj/../src/ssd1306/renderer.c:30
    I2C_Send7bitAddress(OLED_I2C_ADDR << 1, I2C_Direction_Transmitter);
    1a3a:	4581                	li	a1,0
    1a3c:	07800513          	li	a0,120
C:\MRS_DATA\workspace\CH592F_SSD1306\obj/../src/ssd1306/renderer.c:31
    while (!I2C_CheckEvent(I2C_EVENT_MASTER_TRANSMITTER_MODE_SELECTED));
    1a40:	00070437          	lui	s0,0x70
C:\MRS_DATA\workspace\CH592F_SSD1306\obj/../src/ssd1306/renderer.c:30
    I2C_Send7bitAddress(OLED_I2C_ADDR << 1, I2C_Direction_Transmitter);
    1a44:	28d000ef          	jal	ra,24d0 <I2C_Send7bitAddress>
C:\MRS_DATA\workspace\CH592F_SSD1306\obj/../src/ssd1306/renderer.c:31
    while (!I2C_CheckEvent(I2C_EVENT_MASTER_TRANSMITTER_MODE_SELECTED));
    1a48:	08240413          	addi	s0,s0,130 # 70082 <_data_lma+0x6928a>
    1a4c:	8522                	mv	a0,s0
    1a4e:	29b000ef          	jal	ra,24e8 <I2C_CheckEvent>
    1a52:	dd6d                	beqz	a0,1a4c <OLED_Test+0x256>
C:\MRS_DATA\workspace\CH592F_SSD1306\obj/../src/ssd1306/renderer.c:32
    I2C_SendData(0x00);     // Command mode
    1a54:	4501                	li	a0,0
C:\MRS_DATA\workspace\CH592F_SSD1306\obj/../src/ssd1306/renderer.c:33
    while (!I2C_CheckEvent(I2C_EVENT_MASTER_BYTE_TRANSMITTED));
    1a56:	00070437          	lui	s0,0x70
C:\MRS_DATA\workspace\CH592F_SSD1306\obj/../src/ssd1306/renderer.c:32
    I2C_SendData(0x00);     // Command mode
    1a5a:	26d000ef          	jal	ra,24c6 <I2C_SendData>
C:\MRS_DATA\workspace\CH592F_SSD1306\obj/../src/ssd1306/renderer.c:33
    while (!I2C_CheckEvent(I2C_EVENT_MASTER_BYTE_TRANSMITTED));
    1a5e:	08440413          	addi	s0,s0,132 # 70084 <_data_lma+0x6928c>
    1a62:	8522                	mv	a0,s0
    1a64:	285000ef          	jal	ra,24e8 <I2C_CheckEvent>
    1a68:	dd6d                	beqz	a0,1a62 <OLED_Test+0x26c>
C:\MRS_DATA\workspace\CH592F_SSD1306\obj/../src/ssd1306/renderer.c:34
    I2C_SendData(command);
    1a6a:	4501                	li	a0,0
C:\MRS_DATA\workspace\CH592F_SSD1306\obj/../src/ssd1306/renderer.c:35
    while (!I2C_CheckEvent(I2C_EVENT_MASTER_BYTE_TRANSMITTED));
    1a6c:	00070437          	lui	s0,0x70
C:\MRS_DATA\workspace\CH592F_SSD1306\obj/../src/ssd1306/renderer.c:34
    I2C_SendData(command);
    1a70:	257000ef          	jal	ra,24c6 <I2C_SendData>
C:\MRS_DATA\workspace\CH592F_SSD1306\obj/../src/ssd1306/renderer.c:35
    while (!I2C_CheckEvent(I2C_EVENT_MASTER_BYTE_TRANSMITTED));
    1a74:	08440413          	addi	s0,s0,132 # 70084 <_data_lma+0x6928c>
    1a78:	8522                	mv	a0,s0
    1a7a:	26f000ef          	jal	ra,24e8 <I2C_CheckEvent>
    1a7e:	dd6d                	beqz	a0,1a78 <OLED_Test+0x282>
C:\MRS_DATA\workspace\CH592F_SSD1306\obj/../src/ssd1306/renderer.c:36
    I2C_GenerateSTOP(ENABLE);
    1a80:	4505                	li	a0,1
    1a82:	21f000ef          	jal	ra,24a0 <I2C_GenerateSTOP>
C:\MRS_DATA\workspace\CH592F_SSD1306\obj/../src/ssd1306/renderer.c:28
    I2C_GenerateSTART(ENABLE);
    1a86:	4505                	li	a0,1
C:\MRS_DATA\workspace\CH592F_SSD1306\obj/../src/ssd1306/renderer.c:29
    while (!I2C_CheckEvent(I2C_EVENT_MASTER_MODE_SELECT));
    1a88:	00030437          	lui	s0,0x30
C:\MRS_DATA\workspace\CH592F_SSD1306\obj/../src/ssd1306/renderer.c:28
    I2C_GenerateSTART(ENABLE);
    1a8c:	1ef000ef          	jal	ra,247a <I2C_GenerateSTART>
C:\MRS_DATA\workspace\CH592F_SSD1306\obj/../src/ssd1306/renderer.c:29
    while (!I2C_CheckEvent(I2C_EVENT_MASTER_MODE_SELECT));
    1a90:	0405                	addi	s0,s0,1
    1a92:	8522                	mv	a0,s0
    1a94:	255000ef          	jal	ra,24e8 <I2C_CheckEvent>
    1a98:	dd6d                	beqz	a0,1a92 <OLED_Test+0x29c>
C:\MRS_DATA\workspace\CH592F_SSD1306\obj/../src/ssd1306/renderer.c:30
    I2C_Send7bitAddress(OLED_I2C_ADDR << 1, I2C_Direction_Transmitter);
    1a9a:	4581                	li	a1,0
    1a9c:	07800513          	li	a0,120
C:\MRS_DATA\workspace\CH592F_SSD1306\obj/../src/ssd1306/renderer.c:31
    while (!I2C_CheckEvent(I2C_EVENT_MASTER_TRANSMITTER_MODE_SELECTED));
    1aa0:	00070437          	lui	s0,0x70
C:\MRS_DATA\workspace\CH592F_SSD1306\obj/../src/ssd1306/renderer.c:30
    I2C_Send7bitAddress(OLED_I2C_ADDR << 1, I2C_Direction_Transmitter);
    1aa4:	22d000ef          	jal	ra,24d0 <I2C_Send7bitAddress>
C:\MRS_DATA\workspace\CH592F_SSD1306\obj/../src/ssd1306/renderer.c:31
    while (!I2C_CheckEvent(I2C_EVENT_MASTER_TRANSMITTER_MODE_SELECTED));
    1aa8:	08240413          	addi	s0,s0,130 # 70082 <_data_lma+0x6928a>
    1aac:	8522                	mv	a0,s0
    1aae:	23b000ef          	jal	ra,24e8 <I2C_CheckEvent>
    1ab2:	dd6d                	beqz	a0,1aac <OLED_Test+0x2b6>
C:\MRS_DATA\workspace\CH592F_SSD1306\obj/../src/ssd1306/renderer.c:32
    I2C_SendData(0x00);     // Command mode
    1ab4:	4501                	li	a0,0
C:\MRS_DATA\workspace\CH592F_SSD1306\obj/../src/ssd1306/renderer.c:33
    while (!I2C_CheckEvent(I2C_EVENT_MASTER_BYTE_TRANSMITTED));
    1ab6:	00070437          	lui	s0,0x70
C:\MRS_DATA\workspace\CH592F_SSD1306\obj/../src/ssd1306/renderer.c:32
    I2C_SendData(0x00);     // Command mode
    1aba:	20d000ef          	jal	ra,24c6 <I2C_SendData>
C:\MRS_DATA\workspace\CH592F_SSD1306\obj/../src/ssd1306/renderer.c:33
    while (!I2C_CheckEvent(I2C_EVENT_MASTER_BYTE_TRANSMITTED));
    1abe:	08440413          	addi	s0,s0,132 # 70084 <_data_lma+0x6928c>
    1ac2:	8522                	mv	a0,s0
    1ac4:	225000ef          	jal	ra,24e8 <I2C_CheckEvent>
    1ac8:	dd6d                	beqz	a0,1ac2 <OLED_Test+0x2cc>
C:\MRS_DATA\workspace\CH592F_SSD1306\obj/../src/ssd1306/renderer.c:34
    I2C_SendData(command);
    1aca:	4501                	li	a0,0
C:\MRS_DATA\workspace\CH592F_SSD1306\obj/../src/ssd1306/renderer.c:35
    while (!I2C_CheckEvent(I2C_EVENT_MASTER_BYTE_TRANSMITTED));
    1acc:	00070437          	lui	s0,0x70
C:\MRS_DATA\workspace\CH592F_SSD1306\obj/../src/ssd1306/renderer.c:34
    I2C_SendData(command);
    1ad0:	1f7000ef          	jal	ra,24c6 <I2C_SendData>
C:\MRS_DATA\workspace\CH592F_SSD1306\obj/../src/ssd1306/renderer.c:35
    while (!I2C_CheckEvent(I2C_EVENT_MASTER_BYTE_TRANSMITTED));
    1ad4:	08440413          	addi	s0,s0,132 # 70084 <_data_lma+0x6928c>
    1ad8:	8522                	mv	a0,s0
    1ada:	20f000ef          	jal	ra,24e8 <I2C_CheckEvent>
    1ade:	dd6d                	beqz	a0,1ad8 <OLED_Test+0x2e2>
C:\MRS_DATA\workspace\CH592F_SSD1306\obj/../src/ssd1306/renderer.c:36
    I2C_GenerateSTOP(ENABLE);
    1ae0:	4505                	li	a0,1
    1ae2:	1bf000ef          	jal	ra,24a0 <I2C_GenerateSTOP>
C:\MRS_DATA\workspace\CH592F_SSD1306\obj/../src/ssd1306/renderer.c:28
    I2C_GenerateSTART(ENABLE);
    1ae6:	4505                	li	a0,1
C:\MRS_DATA\workspace\CH592F_SSD1306\obj/../src/ssd1306/renderer.c:29
    while (!I2C_CheckEvent(I2C_EVENT_MASTER_MODE_SELECT));
    1ae8:	00030437          	lui	s0,0x30
C:\MRS_DATA\workspace\CH592F_SSD1306\obj/../src/ssd1306/renderer.c:28
    I2C_GenerateSTART(ENABLE);
    1aec:	18f000ef          	jal	ra,247a <I2C_GenerateSTART>
C:\MRS_DATA\workspace\CH592F_SSD1306\obj/../src/ssd1306/renderer.c:29
    while (!I2C_CheckEvent(I2C_EVENT_MASTER_MODE_SELECT));
    1af0:	0405                	addi	s0,s0,1
    1af2:	8522                	mv	a0,s0
    1af4:	1f5000ef          	jal	ra,24e8 <I2C_CheckEvent>
    1af8:	dd6d                	beqz	a0,1af2 <OLED_Test+0x2fc>
C:\MRS_DATA\workspace\CH592F_SSD1306\obj/../src/ssd1306/renderer.c:30
    I2C_Send7bitAddress(OLED_I2C_ADDR << 1, I2C_Direction_Transmitter);
    1afa:	4581                	li	a1,0
    1afc:	07800513          	li	a0,120
C:\MRS_DATA\workspace\CH592F_SSD1306\obj/../src/ssd1306/renderer.c:31
    while (!I2C_CheckEvent(I2C_EVENT_MASTER_TRANSMITTER_MODE_SELECTED));
    1b00:	00070437          	lui	s0,0x70
C:\MRS_DATA\workspace\CH592F_SSD1306\obj/../src/ssd1306/renderer.c:30
    I2C_Send7bitAddress(OLED_I2C_ADDR << 1, I2C_Direction_Transmitter);
    1b04:	1cd000ef          	jal	ra,24d0 <I2C_Send7bitAddress>
C:\MRS_DATA\workspace\CH592F_SSD1306\obj/../src/ssd1306/renderer.c:31
    while (!I2C_CheckEvent(I2C_EVENT_MASTER_TRANSMITTER_MODE_SELECTED));
    1b08:	08240413          	addi	s0,s0,130 # 70082 <_data_lma+0x6928a>
    1b0c:	8522                	mv	a0,s0
    1b0e:	1db000ef          	jal	ra,24e8 <I2C_CheckEvent>
    1b12:	dd6d                	beqz	a0,1b0c <OLED_Test+0x316>
C:\MRS_DATA\workspace\CH592F_SSD1306\obj/../src/ssd1306/renderer.c:32
    I2C_SendData(0x00);     // Command mode
    1b14:	4501                	li	a0,0
C:\MRS_DATA\workspace\CH592F_SSD1306\obj/../src/ssd1306/renderer.c:33
    while (!I2C_CheckEvent(I2C_EVENT_MASTER_BYTE_TRANSMITTED));
    1b16:	00070437          	lui	s0,0x70
C:\MRS_DATA\workspace\CH592F_SSD1306\obj/../src/ssd1306/renderer.c:32
    I2C_SendData(0x00);     // Command mode
    1b1a:	1ad000ef          	jal	ra,24c6 <I2C_SendData>
C:\MRS_DATA\workspace\CH592F_SSD1306\obj/../src/ssd1306/renderer.c:33
    while (!I2C_CheckEvent(I2C_EVENT_MASTER_BYTE_TRANSMITTED));
    1b1e:	08440413          	addi	s0,s0,132 # 70084 <_data_lma+0x6928c>
    1b22:	8522                	mv	a0,s0
    1b24:	1c5000ef          	jal	ra,24e8 <I2C_CheckEvent>
    1b28:	dd6d                	beqz	a0,1b22 <OLED_Test+0x32c>
C:\MRS_DATA\workspace\CH592F_SSD1306\obj/../src/ssd1306/renderer.c:34
    I2C_SendData(command);
    1b2a:	4501                	li	a0,0
C:\MRS_DATA\workspace\CH592F_SSD1306\obj/../src/ssd1306/renderer.c:35
    while (!I2C_CheckEvent(I2C_EVENT_MASTER_BYTE_TRANSMITTED));
    1b2c:	00070437          	lui	s0,0x70
C:\MRS_DATA\workspace\CH592F_SSD1306\obj/../src/ssd1306/renderer.c:34
    I2C_SendData(command);
    1b30:	197000ef          	jal	ra,24c6 <I2C_SendData>
C:\MRS_DATA\workspace\CH592F_SSD1306\obj/../src/ssd1306/renderer.c:35
    while (!I2C_CheckEvent(I2C_EVENT_MASTER_BYTE_TRANSMITTED));
    1b34:	08440413          	addi	s0,s0,132 # 70084 <_data_lma+0x6928c>
    1b38:	8522                	mv	a0,s0
    1b3a:	1af000ef          	jal	ra,24e8 <I2C_CheckEvent>
    1b3e:	dd6d                	beqz	a0,1b38 <OLED_Test+0x342>
C:\MRS_DATA\workspace\CH592F_SSD1306\obj/../src/ssd1306/renderer.c:36
    I2C_GenerateSTOP(ENABLE);
    1b40:	4505                	li	a0,1
    1b42:	15f000ef          	jal	ra,24a0 <I2C_GenerateSTOP>
C:\MRS_DATA\workspace\CH592F_SSD1306\obj/../src/ssd1306/renderer.c:28
    I2C_GenerateSTART(ENABLE);
    1b46:	4505                	li	a0,1
C:\MRS_DATA\workspace\CH592F_SSD1306\obj/../src/ssd1306/renderer.c:29
    while (!I2C_CheckEvent(I2C_EVENT_MASTER_MODE_SELECT));
    1b48:	00030437          	lui	s0,0x30
C:\MRS_DATA\workspace\CH592F_SSD1306\obj/../src/ssd1306/renderer.c:28
    I2C_GenerateSTART(ENABLE);
    1b4c:	12f000ef          	jal	ra,247a <I2C_GenerateSTART>
C:\MRS_DATA\workspace\CH592F_SSD1306\obj/../src/ssd1306/renderer.c:29
    while (!I2C_CheckEvent(I2C_EVENT_MASTER_MODE_SELECT));
    1b50:	0405                	addi	s0,s0,1
    1b52:	8522                	mv	a0,s0
    1b54:	195000ef          	jal	ra,24e8 <I2C_CheckEvent>
    1b58:	dd6d                	beqz	a0,1b52 <OLED_Test+0x35c>
C:\MRS_DATA\workspace\CH592F_SSD1306\obj/../src/ssd1306/renderer.c:30
    I2C_Send7bitAddress(OLED_I2C_ADDR << 1, I2C_Direction_Transmitter);
    1b5a:	4581                	li	a1,0
    1b5c:	07800513          	li	a0,120
C:\MRS_DATA\workspace\CH592F_SSD1306\obj/../src/ssd1306/renderer.c:31
    while (!I2C_CheckEvent(I2C_EVENT_MASTER_TRANSMITTER_MODE_SELECTED));
    1b60:	00070437          	lui	s0,0x70
C:\MRS_DATA\workspace\CH592F_SSD1306\obj/../src/ssd1306/renderer.c:30
    I2C_Send7bitAddress(OLED_I2C_ADDR << 1, I2C_Direction_Transmitter);
    1b64:	16d000ef          	jal	ra,24d0 <I2C_Send7bitAddress>
C:\MRS_DATA\workspace\CH592F_SSD1306\obj/../src/ssd1306/renderer.c:31
    while (!I2C_CheckEvent(I2C_EVENT_MASTER_TRANSMITTER_MODE_SELECTED));
    1b68:	08240413          	addi	s0,s0,130 # 70082 <_data_lma+0x6928a>
    1b6c:	8522                	mv	a0,s0
    1b6e:	17b000ef          	jal	ra,24e8 <I2C_CheckEvent>
    1b72:	dd6d                	beqz	a0,1b6c <OLED_Test+0x376>
C:\MRS_DATA\workspace\CH592F_SSD1306\obj/../src/ssd1306/renderer.c:32
    I2C_SendData(0x00);     // Command mode
    1b74:	4501                	li	a0,0
C:\MRS_DATA\workspace\CH592F_SSD1306\obj/../src/ssd1306/renderer.c:33
    while (!I2C_CheckEvent(I2C_EVENT_MASTER_BYTE_TRANSMITTED));
    1b76:	00070437          	lui	s0,0x70
C:\MRS_DATA\workspace\CH592F_SSD1306\obj/../src/ssd1306/renderer.c:32
    I2C_SendData(0x00);     // Command mode
    1b7a:	14d000ef          	jal	ra,24c6 <I2C_SendData>
C:\MRS_DATA\workspace\CH592F_SSD1306\obj/../src/ssd1306/renderer.c:33
    while (!I2C_CheckEvent(I2C_EVENT_MASTER_BYTE_TRANSMITTED));
    1b7e:	08440413          	addi	s0,s0,132 # 70084 <_data_lma+0x6928c>
    1b82:	8522                	mv	a0,s0
    1b84:	165000ef          	jal	ra,24e8 <I2C_CheckEvent>
    1b88:	dd6d                	beqz	a0,1b82 <OLED_Test+0x38c>
C:\MRS_DATA\workspace\CH592F_SSD1306\obj/../src/ssd1306/renderer.c:34
    I2C_SendData(command);
    1b8a:	450d                	li	a0,3
C:\MRS_DATA\workspace\CH592F_SSD1306\obj/../src/ssd1306/renderer.c:35
    while (!I2C_CheckEvent(I2C_EVENT_MASTER_BYTE_TRANSMITTED));
    1b8c:	00070437          	lui	s0,0x70
C:\MRS_DATA\workspace\CH592F_SSD1306\obj/../src/ssd1306/renderer.c:34
    I2C_SendData(command);
    1b90:	137000ef          	jal	ra,24c6 <I2C_SendData>
C:\MRS_DATA\workspace\CH592F_SSD1306\obj/../src/ssd1306/renderer.c:35
    while (!I2C_CheckEvent(I2C_EVENT_MASTER_BYTE_TRANSMITTED));
    1b94:	08440413          	addi	s0,s0,132 # 70084 <_data_lma+0x6928c>
    1b98:	8522                	mv	a0,s0
    1b9a:	14f000ef          	jal	ra,24e8 <I2C_CheckEvent>
    1b9e:	dd6d                	beqz	a0,1b98 <OLED_Test+0x3a2>
C:\MRS_DATA\workspace\CH592F_SSD1306\obj/../src/ssd1306/renderer.c:36
    I2C_GenerateSTOP(ENABLE);
    1ba0:	4505                	li	a0,1
    1ba2:	0ff000ef          	jal	ra,24a0 <I2C_GenerateSTOP>
C:\MRS_DATA\workspace\CH592F_SSD1306\obj/../src/ssd1306/renderer.c:28
    I2C_GenerateSTART(ENABLE);
    1ba6:	4505                	li	a0,1
C:\MRS_DATA\workspace\CH592F_SSD1306\obj/../src/ssd1306/renderer.c:29
    while (!I2C_CheckEvent(I2C_EVENT_MASTER_MODE_SELECT));
    1ba8:	00030437          	lui	s0,0x30
C:\MRS_DATA\workspace\CH592F_SSD1306\obj/../src/ssd1306/renderer.c:28
    I2C_GenerateSTART(ENABLE);
    1bac:	0cf000ef          	jal	ra,247a <I2C_GenerateSTART>
C:\MRS_DATA\workspace\CH592F_SSD1306\obj/../src/ssd1306/renderer.c:29
    while (!I2C_CheckEvent(I2C_EVENT_MASTER_MODE_SELECT));
    1bb0:	0405                	addi	s0,s0,1
    1bb2:	8522                	mv	a0,s0
    1bb4:	135000ef          	jal	ra,24e8 <I2C_CheckEvent>
    1bb8:	dd6d                	beqz	a0,1bb2 <OLED_Test+0x3bc>
C:\MRS_DATA\workspace\CH592F_SSD1306\obj/../src/ssd1306/renderer.c:30
    I2C_Send7bitAddress(OLED_I2C_ADDR << 1, I2C_Direction_Transmitter);
    1bba:	4581                	li	a1,0
    1bbc:	07800513          	li	a0,120
C:\MRS_DATA\workspace\CH592F_SSD1306\obj/../src/ssd1306/renderer.c:31
    while (!I2C_CheckEvent(I2C_EVENT_MASTER_TRANSMITTER_MODE_SELECTED));
    1bc0:	00070437          	lui	s0,0x70
C:\MRS_DATA\workspace\CH592F_SSD1306\obj/../src/ssd1306/renderer.c:30
    I2C_Send7bitAddress(OLED_I2C_ADDR << 1, I2C_Direction_Transmitter);
    1bc4:	10d000ef          	jal	ra,24d0 <I2C_Send7bitAddress>
C:\MRS_DATA\workspace\CH592F_SSD1306\obj/../src/ssd1306/renderer.c:31
    while (!I2C_CheckEvent(I2C_EVENT_MASTER_TRANSMITTER_MODE_SELECTED));
    1bc8:	08240413          	addi	s0,s0,130 # 70082 <_data_lma+0x6928a>
    1bcc:	8522                	mv	a0,s0
    1bce:	11b000ef          	jal	ra,24e8 <I2C_CheckEvent>
    1bd2:	dd6d                	beqz	a0,1bcc <OLED_Test+0x3d6>
C:\MRS_DATA\workspace\CH592F_SSD1306\obj/../src/ssd1306/renderer.c:32
    I2C_SendData(0x00);     // Command mode
    1bd4:	4501                	li	a0,0
C:\MRS_DATA\workspace\CH592F_SSD1306\obj/../src/ssd1306/renderer.c:33
    while (!I2C_CheckEvent(I2C_EVENT_MASTER_BYTE_TRANSMITTED));
    1bd6:	00070437          	lui	s0,0x70
C:\MRS_DATA\workspace\CH592F_SSD1306\obj/../src/ssd1306/renderer.c:32
    I2C_SendData(0x00);     // Command mode
    1bda:	0ed000ef          	jal	ra,24c6 <I2C_SendData>
C:\MRS_DATA\workspace\CH592F_SSD1306\obj/../src/ssd1306/renderer.c:33
    while (!I2C_CheckEvent(I2C_EVENT_MASTER_BYTE_TRANSMITTED));
    1bde:	08440413          	addi	s0,s0,132 # 70084 <_data_lma+0x6928c>
    1be2:	8522                	mv	a0,s0
    1be4:	105000ef          	jal	ra,24e8 <I2C_CheckEvent>
    1be8:	dd6d                	beqz	a0,1be2 <OLED_Test+0x3ec>
C:\MRS_DATA\workspace\CH592F_SSD1306\obj/../src/ssd1306/renderer.c:34
    I2C_SendData(command);
    1bea:	4501                	li	a0,0
C:\MRS_DATA\workspace\CH592F_SSD1306\obj/../src/ssd1306/renderer.c:35
    while (!I2C_CheckEvent(I2C_EVENT_MASTER_BYTE_TRANSMITTED));
    1bec:	00070437          	lui	s0,0x70
C:\MRS_DATA\workspace\CH592F_SSD1306\obj/../src/ssd1306/renderer.c:34
    I2C_SendData(command);
    1bf0:	0d7000ef          	jal	ra,24c6 <I2C_SendData>
C:\MRS_DATA\workspace\CH592F_SSD1306\obj/../src/ssd1306/renderer.c:35
    while (!I2C_CheckEvent(I2C_EVENT_MASTER_BYTE_TRANSMITTED));
    1bf4:	08440413          	addi	s0,s0,132 # 70084 <_data_lma+0x6928c>
    1bf8:	8522                	mv	a0,s0
    1bfa:	0ef000ef          	jal	ra,24e8 <I2C_CheckEvent>
    1bfe:	dd6d                	beqz	a0,1bf8 <OLED_Test+0x402>
C:\MRS_DATA\workspace\CH592F_SSD1306\obj/../src/ssd1306/renderer.c:36
    I2C_GenerateSTOP(ENABLE);
    1c00:	4505                	li	a0,1
    1c02:	09f000ef          	jal	ra,24a0 <I2C_GenerateSTOP>
C:\MRS_DATA\workspace\CH592F_SSD1306\obj/../src/ssd1306/renderer.c:28
    I2C_GenerateSTART(ENABLE);
    1c06:	4505                	li	a0,1
C:\MRS_DATA\workspace\CH592F_SSD1306\obj/../src/ssd1306/renderer.c:29
    while (!I2C_CheckEvent(I2C_EVENT_MASTER_MODE_SELECT));
    1c08:	00030437          	lui	s0,0x30
C:\MRS_DATA\workspace\CH592F_SSD1306\obj/../src/ssd1306/renderer.c:28
    I2C_GenerateSTART(ENABLE);
    1c0c:	06f000ef          	jal	ra,247a <I2C_GenerateSTART>
C:\MRS_DATA\workspace\CH592F_SSD1306\obj/../src/ssd1306/renderer.c:29
    while (!I2C_CheckEvent(I2C_EVENT_MASTER_MODE_SELECT));
    1c10:	0405                	addi	s0,s0,1
    1c12:	8522                	mv	a0,s0
    1c14:	0d5000ef          	jal	ra,24e8 <I2C_CheckEvent>
    1c18:	dd6d                	beqz	a0,1c12 <OLED_Test+0x41c>
C:\MRS_DATA\workspace\CH592F_SSD1306\obj/../src/ssd1306/renderer.c:30
    I2C_Send7bitAddress(OLED_I2C_ADDR << 1, I2C_Direction_Transmitter);
    1c1a:	4581                	li	a1,0
    1c1c:	07800513          	li	a0,120
C:\MRS_DATA\workspace\CH592F_SSD1306\obj/../src/ssd1306/renderer.c:31
    while (!I2C_CheckEvent(I2C_EVENT_MASTER_TRANSMITTER_MODE_SELECTED));
    1c20:	00070437          	lui	s0,0x70
C:\MRS_DATA\workspace\CH592F_SSD1306\obj/../src/ssd1306/renderer.c:30
    I2C_Send7bitAddress(OLED_I2C_ADDR << 1, I2C_Direction_Transmitter);
    1c24:	0ad000ef          	jal	ra,24d0 <I2C_Send7bitAddress>
C:\MRS_DATA\workspace\CH592F_SSD1306\obj/../src/ssd1306/renderer.c:31
    while (!I2C_CheckEvent(I2C_EVENT_MASTER_TRANSMITTER_MODE_SELECTED));
    1c28:	08240413          	addi	s0,s0,130 # 70082 <_data_lma+0x6928a>
    1c2c:	8522                	mv	a0,s0
    1c2e:	0bb000ef          	jal	ra,24e8 <I2C_CheckEvent>
    1c32:	dd6d                	beqz	a0,1c2c <OLED_Test+0x436>
C:\MRS_DATA\workspace\CH592F_SSD1306\obj/../src/ssd1306/renderer.c:32
    I2C_SendData(0x00);     // Command mode
    1c34:	4501                	li	a0,0
C:\MRS_DATA\workspace\CH592F_SSD1306\obj/../src/ssd1306/renderer.c:33
    while (!I2C_CheckEvent(I2C_EVENT_MASTER_BYTE_TRANSMITTED));
    1c36:	00070437          	lui	s0,0x70
C:\MRS_DATA\workspace\CH592F_SSD1306\obj/../src/ssd1306/renderer.c:32
    I2C_SendData(0x00);     // Command mode
    1c3a:	08d000ef          	jal	ra,24c6 <I2C_SendData>
C:\MRS_DATA\workspace\CH592F_SSD1306\obj/../src/ssd1306/renderer.c:33
    while (!I2C_CheckEvent(I2C_EVENT_MASTER_BYTE_TRANSMITTED));
    1c3e:	08440413          	addi	s0,s0,132 # 70084 <_data_lma+0x6928c>
    1c42:	8522                	mv	a0,s0
    1c44:	0a5000ef          	jal	ra,24e8 <I2C_CheckEvent>
    1c48:	dd6d                	beqz	a0,1c42 <OLED_Test+0x44c>
C:\MRS_DATA\workspace\CH592F_SSD1306\obj/../src/ssd1306/renderer.c:34
    I2C_SendData(command);
    1c4a:	0ff00513          	li	a0,255
C:\MRS_DATA\workspace\CH592F_SSD1306\obj/../src/ssd1306/renderer.c:35
    while (!I2C_CheckEvent(I2C_EVENT_MASTER_BYTE_TRANSMITTED));
    1c4e:	00070437          	lui	s0,0x70
C:\MRS_DATA\workspace\CH592F_SSD1306\obj/../src/ssd1306/renderer.c:34
    I2C_SendData(command);
    1c52:	075000ef          	jal	ra,24c6 <I2C_SendData>
C:\MRS_DATA\workspace\CH592F_SSD1306\obj/../src/ssd1306/renderer.c:35
    while (!I2C_CheckEvent(I2C_EVENT_MASTER_BYTE_TRANSMITTED));
    1c56:	08440413          	addi	s0,s0,132 # 70084 <_data_lma+0x6928c>
    1c5a:	8522                	mv	a0,s0
    1c5c:	08d000ef          	jal	ra,24e8 <I2C_CheckEvent>
    1c60:	dd6d                	beqz	a0,1c5a <OLED_Test+0x464>
C:\MRS_DATA\workspace\CH592F_SSD1306\obj/../src/ssd1306/renderer.c:36
    I2C_GenerateSTOP(ENABLE);
    1c62:	4505                	li	a0,1
    1c64:	03d000ef          	jal	ra,24a0 <I2C_GenerateSTOP>
C:\MRS_DATA\workspace\CH592F_SSD1306\obj/../src/ssd1306/renderer.c:28
    I2C_GenerateSTART(ENABLE);
    1c68:	4505                	li	a0,1
C:\MRS_DATA\workspace\CH592F_SSD1306\obj/../src/ssd1306/renderer.c:29
    while (!I2C_CheckEvent(I2C_EVENT_MASTER_MODE_SELECT));
    1c6a:	00030437          	lui	s0,0x30
C:\MRS_DATA\workspace\CH592F_SSD1306\obj/../src/ssd1306/renderer.c:28
    I2C_GenerateSTART(ENABLE);
    1c6e:	00d000ef          	jal	ra,247a <I2C_GenerateSTART>
C:\MRS_DATA\workspace\CH592F_SSD1306\obj/../src/ssd1306/renderer.c:29
    while (!I2C_CheckEvent(I2C_EVENT_MASTER_MODE_SELECT));
    1c72:	0405                	addi	s0,s0,1
    1c74:	8522                	mv	a0,s0
    1c76:	073000ef          	jal	ra,24e8 <I2C_CheckEvent>
    1c7a:	dd6d                	beqz	a0,1c74 <OLED_Test+0x47e>
C:\MRS_DATA\workspace\CH592F_SSD1306\obj/../src/ssd1306/renderer.c:30
    I2C_Send7bitAddress(OLED_I2C_ADDR << 1, I2C_Direction_Transmitter);
    1c7c:	4581                	li	a1,0
    1c7e:	07800513          	li	a0,120
C:\MRS_DATA\workspace\CH592F_SSD1306\obj/../src/ssd1306/renderer.c:31
    while (!I2C_CheckEvent(I2C_EVENT_MASTER_TRANSMITTER_MODE_SELECTED));
    1c82:	00070437          	lui	s0,0x70
C:\MRS_DATA\workspace\CH592F_SSD1306\obj/../src/ssd1306/renderer.c:30
    I2C_Send7bitAddress(OLED_I2C_ADDR << 1, I2C_Direction_Transmitter);
    1c86:	04b000ef          	jal	ra,24d0 <I2C_Send7bitAddress>
C:\MRS_DATA\workspace\CH592F_SSD1306\obj/../src/ssd1306/renderer.c:31
    while (!I2C_CheckEvent(I2C_EVENT_MASTER_TRANSMITTER_MODE_SELECTED));
    1c8a:	08240413          	addi	s0,s0,130 # 70082 <_data_lma+0x6928a>
    1c8e:	8522                	mv	a0,s0
    1c90:	059000ef          	jal	ra,24e8 <I2C_CheckEvent>
    1c94:	dd6d                	beqz	a0,1c8e <OLED_Test+0x498>
C:\MRS_DATA\workspace\CH592F_SSD1306\obj/../src/ssd1306/renderer.c:32
    I2C_SendData(0x00);     // Command mode
    1c96:	4501                	li	a0,0
C:\MRS_DATA\workspace\CH592F_SSD1306\obj/../src/ssd1306/renderer.c:33
    while (!I2C_CheckEvent(I2C_EVENT_MASTER_BYTE_TRANSMITTED));
    1c98:	00070437          	lui	s0,0x70
C:\MRS_DATA\workspace\CH592F_SSD1306\obj/../src/ssd1306/renderer.c:32
    I2C_SendData(0x00);     // Command mode
    1c9c:	02b000ef          	jal	ra,24c6 <I2C_SendData>
C:\MRS_DATA\workspace\CH592F_SSD1306\obj/../src/ssd1306/renderer.c:33
    while (!I2C_CheckEvent(I2C_EVENT_MASTER_BYTE_TRANSMITTED));
    1ca0:	08440413          	addi	s0,s0,132 # 70084 <_data_lma+0x6928c>
    1ca4:	8522                	mv	a0,s0
    1ca6:	043000ef          	jal	ra,24e8 <I2C_CheckEvent>
    1caa:	dd6d                	beqz	a0,1ca4 <OLED_Test+0x4ae>
C:\MRS_DATA\workspace\CH592F_SSD1306\obj/../src/ssd1306/renderer.c:34
    I2C_SendData(command);
    1cac:	02f00513          	li	a0,47
C:\MRS_DATA\workspace\CH592F_SSD1306\obj/../src/ssd1306/renderer.c:35
    while (!I2C_CheckEvent(I2C_EVENT_MASTER_BYTE_TRANSMITTED));
    1cb0:	00070437          	lui	s0,0x70
C:\MRS_DATA\workspace\CH592F_SSD1306\obj/../src/ssd1306/renderer.c:34
    I2C_SendData(command);
    1cb4:	013000ef          	jal	ra,24c6 <I2C_SendData>
C:\MRS_DATA\workspace\CH592F_SSD1306\obj/../src/ssd1306/renderer.c:35
    while (!I2C_CheckEvent(I2C_EVENT_MASTER_BYTE_TRANSMITTED));
    1cb8:	08440413          	addi	s0,s0,132 # 70084 <_data_lma+0x6928c>
    1cbc:	8522                	mv	a0,s0
    1cbe:	02b000ef          	jal	ra,24e8 <I2C_CheckEvent>
    1cc2:	dd6d                	beqz	a0,1cbc <OLED_Test+0x4c6>
C:\MRS_DATA\workspace\CH592F_SSD1306\obj/../src/ssd1306/renderer.c:36
    I2C_GenerateSTOP(ENABLE);
    1cc4:	4505                	li	a0,1
    1cc6:	7da000ef          	jal	ra,24a0 <I2C_GenerateSTOP>
OLED_Test():
C:\MRS_DATA\workspace\CH592F_SSD1306\obj/../src/ssd1306/renderer.c:297

    OLED_StartScrollLeft(0x00, 0x03);
    DelayMs(5000);
    1cca:	6505                	lui	a0,0x1
    1ccc:	38850513          	addi	a0,a0,904 # 1388 <OLED_UpdateScreen+0x8e>
    1cd0:	1fffe097          	auipc	ra,0x1fffe
    1cd4:	66a080e7          	jalr	1642(ra) # 2000033a <mDelaymS>
I2C_WriteCommand():
C:\MRS_DATA\workspace\CH592F_SSD1306\obj/../src/ssd1306/renderer.c:28
    I2C_GenerateSTART(ENABLE);
    1cd8:	4505                	li	a0,1
C:\MRS_DATA\workspace\CH592F_SSD1306\obj/../src/ssd1306/renderer.c:29
    while (!I2C_CheckEvent(I2C_EVENT_MASTER_MODE_SELECT));
    1cda:	00030437          	lui	s0,0x30
C:\MRS_DATA\workspace\CH592F_SSD1306\obj/../src/ssd1306/renderer.c:28
    I2C_GenerateSTART(ENABLE);
    1cde:	79c000ef          	jal	ra,247a <I2C_GenerateSTART>
C:\MRS_DATA\workspace\CH592F_SSD1306\obj/../src/ssd1306/renderer.c:29
    while (!I2C_CheckEvent(I2C_EVENT_MASTER_MODE_SELECT));
    1ce2:	0405                	addi	s0,s0,1
    1ce4:	8522                	mv	a0,s0
    1ce6:	003000ef          	jal	ra,24e8 <I2C_CheckEvent>
    1cea:	dd6d                	beqz	a0,1ce4 <OLED_Test+0x4ee>
C:\MRS_DATA\workspace\CH592F_SSD1306\obj/../src/ssd1306/renderer.c:30
    I2C_Send7bitAddress(OLED_I2C_ADDR << 1, I2C_Direction_Transmitter);
    1cec:	4581                	li	a1,0
    1cee:	07800513          	li	a0,120
C:\MRS_DATA\workspace\CH592F_SSD1306\obj/../src/ssd1306/renderer.c:31
    while (!I2C_CheckEvent(I2C_EVENT_MASTER_TRANSMITTER_MODE_SELECTED));
    1cf2:	00070437          	lui	s0,0x70
C:\MRS_DATA\workspace\CH592F_SSD1306\obj/../src/ssd1306/renderer.c:30
    I2C_Send7bitAddress(OLED_I2C_ADDR << 1, I2C_Direction_Transmitter);
    1cf6:	7da000ef          	jal	ra,24d0 <I2C_Send7bitAddress>
C:\MRS_DATA\workspace\CH592F_SSD1306\obj/../src/ssd1306/renderer.c:31
    while (!I2C_CheckEvent(I2C_EVENT_MASTER_TRANSMITTER_MODE_SELECTED));
    1cfa:	08240413          	addi	s0,s0,130 # 70082 <_data_lma+0x6928a>
    1cfe:	8522                	mv	a0,s0
    1d00:	7e8000ef          	jal	ra,24e8 <I2C_CheckEvent>
    1d04:	dd6d                	beqz	a0,1cfe <OLED_Test+0x508>
C:\MRS_DATA\workspace\CH592F_SSD1306\obj/../src/ssd1306/renderer.c:32
    I2C_SendData(0x00);     // Command mode
    1d06:	4501                	li	a0,0
C:\MRS_DATA\workspace\CH592F_SSD1306\obj/../src/ssd1306/renderer.c:33
    while (!I2C_CheckEvent(I2C_EVENT_MASTER_BYTE_TRANSMITTED));
    1d08:	00070437          	lui	s0,0x70
C:\MRS_DATA\workspace\CH592F_SSD1306\obj/../src/ssd1306/renderer.c:32
    I2C_SendData(0x00);     // Command mode
    1d0c:	7ba000ef          	jal	ra,24c6 <I2C_SendData>
C:\MRS_DATA\workspace\CH592F_SSD1306\obj/../src/ssd1306/renderer.c:33
    while (!I2C_CheckEvent(I2C_EVENT_MASTER_BYTE_TRANSMITTED));
    1d10:	08440413          	addi	s0,s0,132 # 70084 <_data_lma+0x6928c>
    1d14:	8522                	mv	a0,s0
    1d16:	7d2000ef          	jal	ra,24e8 <I2C_CheckEvent>
    1d1a:	dd6d                	beqz	a0,1d14 <OLED_Test+0x51e>
C:\MRS_DATA\workspace\CH592F_SSD1306\obj/../src/ssd1306/renderer.c:34
    I2C_SendData(command);
    1d1c:	02e00513          	li	a0,46
C:\MRS_DATA\workspace\CH592F_SSD1306\obj/../src/ssd1306/renderer.c:35
    while (!I2C_CheckEvent(I2C_EVENT_MASTER_BYTE_TRANSMITTED));
    1d20:	00070437          	lui	s0,0x70
C:\MRS_DATA\workspace\CH592F_SSD1306\obj/../src/ssd1306/renderer.c:34
    I2C_SendData(command);
    1d24:	7a2000ef          	jal	ra,24c6 <I2C_SendData>
C:\MRS_DATA\workspace\CH592F_SSD1306\obj/../src/ssd1306/renderer.c:35
    while (!I2C_CheckEvent(I2C_EVENT_MASTER_BYTE_TRANSMITTED));
    1d28:	08440413          	addi	s0,s0,132 # 70084 <_data_lma+0x6928c>
    1d2c:	8522                	mv	a0,s0
    1d2e:	7ba000ef          	jal	ra,24e8 <I2C_CheckEvent>
    1d32:	dd6d                	beqz	a0,1d2c <OLED_Test+0x536>
OLED_Test():
C:\MRS_DATA\workspace\CH592F_SSD1306\obj/../src/ssd1306/renderer.c:299
    OLED_StopScroll();
}
    1d34:	5422                	lw	s0,40(sp)
    1d36:	50b2                	lw	ra,44(sp)
    1d38:	5492                	lw	s1,36(sp)
    1d3a:	5902                	lw	s2,32(sp)
    1d3c:	49f2                	lw	s3,28(sp)
    1d3e:	4a62                	lw	s4,24(sp)
    1d40:	4ad2                	lw	s5,20(sp)
    1d42:	4b42                	lw	s6,16(sp)
    1d44:	4bb2                	lw	s7,12(sp)
    1d46:	4c22                	lw	s8,8(sp)
    1d48:	4c92                	lw	s9,4(sp)
    1d4a:	4d02                	lw	s10,0(sp)
I2C_WriteCommand():
C:\MRS_DATA\workspace\CH592F_SSD1306\obj/../src/ssd1306/renderer.c:36
    I2C_GenerateSTOP(ENABLE);
    1d4c:	4505                	li	a0,1
OLED_Test():
C:\MRS_DATA\workspace\CH592F_SSD1306\obj/../src/ssd1306/renderer.c:299
}
    1d4e:	6145                	addi	sp,sp,48
I2C_WriteCommand():
C:\MRS_DATA\workspace\CH592F_SSD1306\obj/../src/ssd1306/renderer.c:36
    I2C_GenerateSTOP(ENABLE);
    1d50:	7500006f          	j	24a0 <I2C_GenerateSTOP>

00001d54 <main>:
main():
C:\MRS_DATA\workspace\CH592F_SSD1306\obj/../src/Main.c:7
#include "CH59x_common.h"

#include "../src/board.h"
#include "../src/ssd1306/renderer.h"

int main(void) {
    1d54:	715d                	addi	sp,sp,-80
C:\MRS_DATA\workspace\CH592F_SSD1306\obj/../src/Main.c:10
#if 1
    // Enable Internal DC-DC Power
    PWR_DCDCCfg(ENABLE);
    1d56:	4505                	li	a0,1
C:\MRS_DATA\workspace\CH592F_SSD1306\obj/../src/Main.c:7
int main(void) {
    1d58:	c686                	sw	ra,76(sp)
    1d5a:	c4a2                	sw	s0,72(sp)
    1d5c:	c2a6                	sw	s1,68(sp)
    1d5e:	c0ca                	sw	s2,64(sp)
    1d60:	de4e                	sw	s3,60(sp)
    1d62:	dc52                	sw	s4,56(sp)
    1d64:	da56                	sw	s5,52(sp)
    1d66:	d85a                	sw	s6,48(sp)
    1d68:	d65e                	sw	s7,44(sp)
    1d6a:	d462                	sw	s8,40(sp)
    1d6c:	d266                	sw	s9,36(sp)
    1d6e:	d06a                	sw	s10,32(sp)
    1d70:	ce6e                	sw	s11,28(sp)
C:\MRS_DATA\workspace\CH592F_SSD1306\obj/../src/Main.c:10
    PWR_DCDCCfg(ENABLE);
    1d72:	798000ef          	jal	ra,250a <PWR_DCDCCfg>
C:\MRS_DATA\workspace\CH592F_SSD1306\obj/../src/Main.c:13
#endif

    SetSysClock(CLK_SOURCE_PLL_60MHz);
    1d76:	04800513          	li	a0,72
    1d7a:	1fffe097          	auipc	ra,0x1fffe
    1d7e:	326080e7          	jalr	806(ra) # 200000a0 <SetSysClock>
C:\MRS_DATA\workspace\CH592F_SSD1306\obj/../src/Main.c:17

    // Init UART
    // Default is UART 0 (TX-PB7, RX-PB4)
    DebugInit();
    1d82:	2e51                	jal	2116 <DebugInit>
C:\MRS_DATA\workspace\CH592F_SSD1306\obj/../src/Main.c:19

    led_init();
    1d84:	2e55                	jal	2138 <led_init>
C:\MRS_DATA\workspace\CH592F_SSD1306\obj/../src/Main.c:22

    // Initialize I2C
    I2C_Init(I2C_Mode_I2C, 400000, I2C_DutyCycle_2, I2C_Ack_Enable, I2C_AckAddr_7bit, 0x00);
    1d86:	000625b7          	lui	a1,0x62
    1d8a:	4781                	li	a5,0
    1d8c:	6711                	lui	a4,0x4
    1d8e:	40000693          	li	a3,1024
    1d92:	4601                	li	a2,0
    1d94:	a8058593          	addi	a1,a1,-1408 # 61a80 <_data_lma+0x5ac88>
    1d98:	4501                	li	a0,0
    1d9a:	2399                	jal	22e0 <I2C_Init>
C:\MRS_DATA\workspace\CH592F_SSD1306\obj/../src/Main.c:25

    // Initialize OLED
    if(OLED_Init()){
    1d9c:	b47fe0ef          	jal	ra,8e2 <OLED_Init>
    1da0:	c10d                	beqz	a0,1dc2 <main+0x6e>
C:\MRS_DATA\workspace\CH592F_SSD1306\obj/../src/Main.c:120
    while (1) {
        led_toggle();
        DelayMs(1000);
    }
    return 0;
}
    1da2:	40b6                	lw	ra,76(sp)
    1da4:	4426                	lw	s0,72(sp)
    1da6:	4496                	lw	s1,68(sp)
    1da8:	4906                	lw	s2,64(sp)
    1daa:	59f2                	lw	s3,60(sp)
    1dac:	5a62                	lw	s4,56(sp)
    1dae:	5ad2                	lw	s5,52(sp)
    1db0:	5b42                	lw	s6,48(sp)
    1db2:	5bb2                	lw	s7,44(sp)
    1db4:	5c22                	lw	s8,40(sp)
    1db6:	5c92                	lw	s9,36(sp)
    1db8:	5d02                	lw	s10,32(sp)
    1dba:	4df2                	lw	s11,28(sp)
    1dbc:	4501                	li	a0,0
    1dbe:	6161                	addi	sp,sp,80
    1dc0:	8082                	ret
C:\MRS_DATA\workspace\CH592F_SSD1306\obj/../src/Main.c:29
    OLED_Test();
    1dc2:	a35ff0ef          	jal	ra,17f6 <OLED_Test>
C:\MRS_DATA\workspace\CH592F_SSD1306\obj/../src/Main.c:43
    srand(time(NULL));
    1dc6:	4501                	li	a0,0
    1dc8:	1bf040ef          	jal	ra,6786 <time>
    1dcc:	0a9040ef          	jal	ra,6674 <srand>
C:\MRS_DATA\workspace\CH592F_SSD1306\obj/../src/Main.c:46
    float posX = (rand() % 101) - 50;
    1dd0:	103040ef          	jal	ra,66d2 <rand>
    1dd4:	06500793          	li	a5,101
    1dd8:	02f56533          	rem	a0,a0,a5
    1ddc:	fce50513          	addi	a0,a0,-50
    1de0:	466040ef          	jal	ra,6246 <__floatsisf>
    1de4:	89aa                	mv	s3,a0
C:\MRS_DATA\workspace\CH592F_SSD1306\obj/../src/Main.c:47
    float posY = (rand() % (int)(Ymax - Ymin + 1)) + Ymin;
    1de6:	0ed040ef          	jal	ra,66d2 <rand>
    1dea:	47c5                	li	a5,17
    1dec:	02f56533          	rem	a0,a0,a5
    1df0:	1561                	addi	a0,a0,-8
    1df2:	454040ef          	jal	ra,6246 <__floatsisf>
    1df6:	8a2a                	mv	s4,a0
C:\MRS_DATA\workspace\CH592F_SSD1306\obj/../src/Main.c:48
    float velocityX = ((rand() % 5) + 1) * (rand() % 2 ? 1 : -1);
    1df8:	0db040ef          	jal	ra,66d2 <rand>
    1dfc:	4795                	li	a5,5
    1dfe:	02f567b3          	rem	a5,a0,a5
    1e02:	00178413          	addi	s0,a5,1
    1e06:	0cd040ef          	jal	ra,66d2 <rand>
    1e0a:	8905                	andi	a0,a0,1
    1e0c:	4785                	li	a5,1
    1e0e:	e111                	bnez	a0,1e12 <main+0xbe>
    1e10:	57fd                	li	a5,-1
C:\MRS_DATA\workspace\CH592F_SSD1306\obj/../src/Main.c:48 (discriminator 4)
    1e12:	02f40533          	mul	a0,s0,a5
    1e16:	430040ef          	jal	ra,6246 <__floatsisf>
    1e1a:	842a                	mv	s0,a0
C:\MRS_DATA\workspace\CH592F_SSD1306\obj/../src/Main.c:49 (discriminator 4)
    float velocityY = ((rand() % 5) + 1) * (rand() % 2 ? 1 : -1);
    1e1c:	0b7040ef          	jal	ra,66d2 <rand>
    1e20:	4795                	li	a5,5
    1e22:	02f567b3          	rem	a5,a0,a5
    1e26:	00178493          	addi	s1,a5,1
    1e2a:	0a9040ef          	jal	ra,66d2 <rand>
    1e2e:	8905                	andi	a0,a0,1
    1e30:	4785                	li	a5,1
    1e32:	e111                	bnez	a0,1e36 <main+0xe2>
C:\MRS_DATA\workspace\CH592F_SSD1306\obj/../src/Main.c:49
    1e34:	57fd                	li	a5,-1
C:\MRS_DATA\workspace\CH592F_SSD1306\obj/../src/Main.c:49 (discriminator 4)
    1e36:	02f48533          	mul	a0,s1,a5
C:\MRS_DATA\workspace\CH592F_SSD1306\obj/../src/Main.c:32 (discriminator 4)
    float angleX = 0.0, angleY = 0.0, angleZ = 0.0;
    1e3a:	00000913          	li	s2,0
C:\MRS_DATA\workspace\CH592F_SSD1306\obj/../src/Main.c:61 (discriminator 4)
        if (++frictionChangeCounter >= 100) {
    1e3e:	4a85                	li	s5,1
    1e40:	00005d97          	auipc	s11,0x5
    1e44:	af0d8d93          	addi	s11,s11,-1296 # 6930 <original_vertices+0x80>
    1e48:	00005b97          	auipc	s7,0x5
    1e4c:	adcb8b93          	addi	s7,s7,-1316 # 6924 <original_vertices+0x74>
C:\MRS_DATA\workspace\CH592F_SSD1306\obj/../src/Main.c:49 (discriminator 4)
    float velocityY = ((rand() % 5) + 1) * (rand() % 2 ? 1 : -1);
    1e50:	3f6040ef          	jal	ra,6246 <__floatsisf>
C:\MRS_DATA\workspace\CH592F_SSD1306\obj/../src/Main.c:52 (discriminator 4)
    float friction = 0.99;             // Gradually reduce speed over time
    1e54:	00005797          	auipc	a5,0x5
    1e58:	abc78793          	addi	a5,a5,-1348 # 6910 <original_vertices+0x60>
    1e5c:	0007ad03          	lw	s10,0(a5)
C:\MRS_DATA\workspace\CH592F_SSD1306\obj/../src/Main.c:74 (discriminator 4)
        if (posY <= Ymin || posY >= Ymax) {
    1e60:	00005797          	auipc	a5,0x5
    1e64:	ab878793          	addi	a5,a5,-1352 # 6918 <original_vertices+0x68>
    1e68:	439c                	lw	a5,0(a5)
C:\MRS_DATA\workspace\CH592F_SSD1306\obj/../src/Main.c:49 (discriminator 4)
    float velocityY = ((rand() % 5) + 1) * (rand() % 2 ? 1 : -1);
    1e6a:	84aa                	mv	s1,a0
C:\MRS_DATA\workspace\CH592F_SSD1306\obj/../src/Main.c:74 (discriminator 4)
        if (posY <= Ymin || posY >= Ymax) {
    1e6c:	c63e                	sw	a5,12(sp)
C:\MRS_DATA\workspace\CH592F_SSD1306\obj/../src/Main.c:67
        if (abs(velocityX) > 0.1) { velocityX *= friction; };
    1e6e:	8522                	mv	a0,s0
    1e70:	374040ef          	jal	ra,61e4 <__fixsfsi>
    1e74:	c511                	beqz	a0,1e80 <main+0x12c>
C:\MRS_DATA\workspace\CH592F_SSD1306\obj/../src/Main.c:67 (discriminator 1)
    1e76:	8522                	mv	a0,s0
    1e78:	85ea                	mv	a1,s10
    1e7a:	54f030ef          	jal	ra,5bc8 <__mulsf3>
    1e7e:	842a                	mv	s0,a0
C:\MRS_DATA\workspace\CH592F_SSD1306\obj/../src/Main.c:68 (discriminator 3)
        if (abs(velocityY) > 0.1) { velocityY *= friction; };
    1e80:	8526                	mv	a0,s1
    1e82:	362040ef          	jal	ra,61e4 <__fixsfsi>
    1e86:	c511                	beqz	a0,1e92 <main+0x13e>
C:\MRS_DATA\workspace\CH592F_SSD1306\obj/../src/Main.c:68 (discriminator 1)
    1e88:	8526                	mv	a0,s1
    1e8a:	85ea                	mv	a1,s10
    1e8c:	53d030ef          	jal	ra,5bc8 <__mulsf3>
    1e90:	84aa                	mv	s1,a0
C:\MRS_DATA\workspace\CH592F_SSD1306\obj/../src/Main.c:70 (discriminator 3)
        posX += velocityX;
    1e92:	85a2                	mv	a1,s0
    1e94:	854e                	mv	a0,s3
    1e96:	0b7030ef          	jal	ra,574c <__addsf3>
C:\MRS_DATA\workspace\CH592F_SSD1306\obj/../src/Main.c:71 (discriminator 3)
        posY += velocityY;
    1e9a:	85a6                	mv	a1,s1
C:\MRS_DATA\workspace\CH592F_SSD1306\obj/../src/Main.c:70 (discriminator 3)
        posX += velocityX;
    1e9c:	89aa                	mv	s3,a0
C:\MRS_DATA\workspace\CH592F_SSD1306\obj/../src/Main.c:71 (discriminator 3)
        posY += velocityY;
    1e9e:	8552                	mv	a0,s4
    1ea0:	0ad030ef          	jal	ra,574c <__addsf3>
C:\MRS_DATA\workspace\CH592F_SSD1306\obj/../src/Main.c:74 (discriminator 3)
        if (posY <= Ymin || posY >= Ymax) {
    1ea4:	45b2                	lw	a1,12(sp)
C:\MRS_DATA\workspace\CH592F_SSD1306\obj/../src/Main.c:71 (discriminator 3)
        posY += velocityY;
    1ea6:	8a2a                	mv	s4,a0
C:\MRS_DATA\workspace\CH592F_SSD1306\obj/../src/Main.c:74 (discriminator 3)
        if (posY <= Ymin || posY >= Ymax) {
    1ea8:	495030ef          	jal	ra,5b3c <__lesf2>
    1eac:	1ea05063          	blez	a0,208c <main+0x338>
C:\MRS_DATA\workspace\CH592F_SSD1306\obj/../src/Main.c:74 (discriminator 1)
    1eb0:	00005797          	auipc	a5,0x5
    1eb4:	a6478793          	addi	a5,a5,-1436 # 6914 <original_vertices+0x64>
    1eb8:	0007ab03          	lw	s6,0(a5)
    1ebc:	8552                	mv	a0,s4
    1ebe:	85da                	mv	a1,s6
    1ec0:	3f7030ef          	jal	ra,5ab6 <__gesf2>
    1ec4:	22055d63          	bgez	a0,20fe <main+0x3aa>
    1ec8:	8552                	mv	a0,s4
    1eca:	31a040ef          	jal	ra,61e4 <__fixsfsi>
    1ece:	8c2a                	mv	s8,a0
C:\MRS_DATA\workspace\CH592F_SSD1306\obj/../src/Main.c:82
        if (posX <= Xmin || posX >= Xmax) {
    1ed0:	00005797          	auipc	a5,0x5
    1ed4:	a6478793          	addi	a5,a5,-1436 # 6934 <original_vertices+0x84>
    1ed8:	438c                	lw	a1,0(a5)
    1eda:	854e                	mv	a0,s3
    1edc:	461030ef          	jal	ra,5b3c <__lesf2>
    1ee0:	0ea05c63          	blez	a0,1fd8 <main+0x284>
C:\MRS_DATA\workspace\CH592F_SSD1306\obj/../src/Main.c:82 (discriminator 1)
    1ee4:	00005797          	auipc	a5,0x5
    1ee8:	a5478793          	addi	a5,a5,-1452 # 6938 <original_vertices+0x88>
    1eec:	438c                	lw	a1,0(a5)
    1eee:	854e                	mv	a0,s3
    1ef0:	3c7030ef          	jal	ra,5ab6 <__gesf2>
    1ef4:	0e055263          	bgez	a0,1fd8 <main+0x284>
    1ef8:	854e                	mv	a0,s3
    1efa:	2ea040ef          	jal	ra,61e4 <__fixsfsi>
    1efe:	8caa                	mv	s9,a0
C:\MRS_DATA\workspace\CH592F_SSD1306\obj/../src/Main.c:91
        if (velocityX > maxVelocity) { velocityX = maxVelocity; };
    1f00:	000bab03          	lw	s6,0(s7)
    1f04:	8522                	mv	a0,s0
    1f06:	85da                	mv	a1,s6
    1f08:	435030ef          	jal	ra,5b3c <__lesf2>
    1f0c:	00a05363          	blez	a0,1f12 <main+0x1be>
    1f10:	845a                	mv	s0,s6
C:\MRS_DATA\workspace\CH592F_SSD1306\obj/../src/Main.c:92
        if (velocityY > maxVelocity) { velocityY = maxVelocity; };
    1f12:	000bab03          	lw	s6,0(s7)
    1f16:	8526                	mv	a0,s1
    1f18:	85da                	mv	a1,s6
    1f1a:	39d030ef          	jal	ra,5ab6 <__gesf2>
C:\MRS_DATA\workspace\CH592F_SSD1306\obj/../src/Main.c:93
        if (velocityX < -maxVelocity) { velocityX = -maxVelocity; };
    1f1e:	00005797          	auipc	a5,0x5
    1f22:	a0a78793          	addi	a5,a5,-1526 # 6928 <original_vertices+0x78>
C:\MRS_DATA\workspace\CH592F_SSD1306\obj/../src/Main.c:92
        if (velocityY > maxVelocity) { velocityY = maxVelocity; };
    1f26:	12a04463          	bgtz	a0,204e <main+0x2fa>
C:\MRS_DATA\workspace\CH592F_SSD1306\obj/../src/Main.c:93 (discriminator 3)
        if (velocityX < -maxVelocity) { velocityX = -maxVelocity; };
    1f2a:	0007ab03          	lw	s6,0(a5)
    1f2e:	8522                	mv	a0,s0
    1f30:	85da                	mv	a1,s6
    1f32:	385030ef          	jal	ra,5ab6 <__gesf2>
    1f36:	00055363          	bgez	a0,1f3c <main+0x1e8>
    1f3a:	845a                	mv	s0,s6
    1f3c:	00005797          	auipc	a5,0x5
    1f40:	9ec78793          	addi	a5,a5,-1556 # 6928 <original_vertices+0x78>
    1f44:	0007ab03          	lw	s6,0(a5)
    1f48:	8526                	mv	a0,s1
    1f4a:	85da                	mv	a1,s6
    1f4c:	36b030ef          	jal	ra,5ab6 <__gesf2>
    1f50:	10054763          	bltz	a0,205e <main+0x30a>
C:\MRS_DATA\workspace\CH592F_SSD1306\obj/../src/Main.c:102 (discriminator 3)
        if (angleX >= angle_bound) { angleX -= angle_bound; }
    1f54:	00005797          	auipc	a5,0x5
    1f58:	9e878793          	addi	a5,a5,-1560 # 693c <original_vertices+0x8c>
    1f5c:	0007ab03          	lw	s6,0(a5)
    1f60:	854a                	mv	a0,s2
    1f62:	85da                	mv	a1,s6
    1f64:	353030ef          	jal	ra,5ab6 <__gesf2>
    1f68:	10054863          	bltz	a0,2078 <main+0x324>
C:\MRS_DATA\workspace\CH592F_SSD1306\obj/../src/Main.c:102 (discriminator 1)
    1f6c:	854a                	mv	a0,s2
    1f6e:	85da                	mv	a1,s6
    1f70:	6ed030ef          	jal	ra,5e5c <__subsf3>
    1f74:	892a                	mv	s2,a0
C:\MRS_DATA\workspace\CH592F_SSD1306\obj/../src/Main.c:107
        OLED_Draw3DCube(angleX, angleY, angleZ, scale, posX, posY);
    1f76:	00005797          	auipc	a5,0x5
    1f7a:	9ce78793          	addi	a5,a5,-1586 # 6944 <original_vertices+0x94>
    1f7e:	4394                	lw	a3,0(a5)
    1f80:	8766                	mv	a4,s9
    1f82:	87e2                	mv	a5,s8
    1f84:	864a                	mv	a2,s2
    1f86:	85ca                	mv	a1,s2
    1f88:	854a                	mv	a0,s2
    1f8a:	daaff0ef          	jal	ra,1534 <OLED_Draw3DCube>
C:\MRS_DATA\workspace\CH592F_SSD1306\obj/../src/Main.c:110
        DelayMs(1);
    1f8e:	4505                	li	a0,1
    1f90:	1fffe097          	auipc	ra,0x1fffe
    1f94:	3aa080e7          	jalr	938(ra) # 2000033a <mDelaymS>
C:\MRS_DATA\workspace\CH592F_SSD1306\obj/../src/Main.c:61
        if (++frictionChangeCounter >= 100) {
    1f98:	0a85                	addi	s5,s5,1
    1f9a:	06400793          	li	a5,100
    1f9e:	ecfa98e3          	bne	s5,a5,1e6e <main+0x11a>
C:\MRS_DATA\workspace\CH592F_SSD1306\obj/../src/Main.c:62
            friction = 0.99f + (rand() % 4) * 0.01f;
    1fa2:	730040ef          	jal	ra,66d2 <rand>
    1fa6:	41f55793          	srai	a5,a0,0x1f
    1faa:	83f9                	srli	a5,a5,0x1e
    1fac:	953e                	add	a0,a0,a5
    1fae:	890d                	andi	a0,a0,3
    1fb0:	8d1d                	sub	a0,a0,a5
    1fb2:	294040ef          	jal	ra,6246 <__floatsisf>
    1fb6:	00005797          	auipc	a5,0x5
    1fba:	97678793          	addi	a5,a5,-1674 # 692c <original_vertices+0x7c>
    1fbe:	438c                	lw	a1,0(a5)
C:\MRS_DATA\workspace\CH592F_SSD1306\obj/../src/Main.c:63
            frictionChangeCounter = 0;
    1fc0:	4a81                	li	s5,0
C:\MRS_DATA\workspace\CH592F_SSD1306\obj/../src/Main.c:62
            friction = 0.99f + (rand() % 4) * 0.01f;
    1fc2:	407030ef          	jal	ra,5bc8 <__mulsf3>
    1fc6:	00005797          	auipc	a5,0x5
    1fca:	94a78793          	addi	a5,a5,-1718 # 6910 <original_vertices+0x60>
    1fce:	438c                	lw	a1,0(a5)
    1fd0:	77c030ef          	jal	ra,574c <__addsf3>
    1fd4:	8d2a                	mv	s10,a0
C:\MRS_DATA\workspace\CH592F_SSD1306\obj/../src/Main.c:63
            frictionChangeCounter = 0;
    1fd6:	bd61                	j	1e6e <main+0x11a>
C:\MRS_DATA\workspace\CH592F_SSD1306\obj/../src/Main.c:84
            velocityX = -velocityX * accelerationFactor;
    1fd8:	000da583          	lw	a1,0(s11)
    1fdc:	8522                	mv	a0,s0
    1fde:	3eb030ef          	jal	ra,5bc8 <__mulsf3>
C:\MRS_DATA\workspace\CH592F_SSD1306\obj/../src/Main.c:85
            posX = (posX >= 50) ? 50 : -50;
    1fe2:	00005797          	auipc	a5,0x5
    1fe6:	93a78793          	addi	a5,a5,-1734 # 691c <original_vertices+0x6c>
    1fea:	0007ab03          	lw	s6,0(a5)
C:\MRS_DATA\workspace\CH592F_SSD1306\obj/../src/Main.c:84
            velocityX = -velocityX * accelerationFactor;
    1fee:	842a                	mv	s0,a0
C:\MRS_DATA\workspace\CH592F_SSD1306\obj/../src/Main.c:85
            posX = (posX >= 50) ? 50 : -50;
    1ff0:	854e                	mv	a0,s3
    1ff2:	85da                	mv	a1,s6
    1ff4:	2c3030ef          	jal	ra,5ab6 <__gesf2>
    1ff8:	0e055f63          	bgez	a0,20f6 <main+0x3a2>
    1ffc:	00005797          	auipc	a5,0x5
    2000:	92478793          	addi	a5,a5,-1756 # 6920 <original_vertices+0x70>
    2004:	0007a983          	lw	s3,0(a5)
    2008:	fce00c93          	li	s9,-50
C:\MRS_DATA\workspace\CH592F_SSD1306\obj/../src/Main.c:87 (discriminator 4)
            velocityY += (rand() % 3 - 1) * 0.5;  // Adjust Y velocity slightly
    200c:	6c6040ef          	jal	ra,66d2 <rand>
    2010:	478d                	li	a5,3
    2012:	02f56533          	rem	a0,a0,a5
    2016:	157d                	addi	a0,a0,-1
    2018:	6c2030ef          	jal	ra,56da <__floatsidf>
    201c:	00005797          	auipc	a5,0x5
    2020:	92c78793          	addi	a5,a5,-1748 # 6948 <original_vertices+0x98>
    2024:	4390                	lw	a2,0(a5)
    2026:	43d4                	lw	a3,4(a5)
    2028:	255020ef          	jal	ra,4a7c <__muldf3>
    202c:	c02a                	sw	a0,0(sp)
    202e:	8526                	mv	a0,s1
    2030:	c22e                	sw	a1,4(sp)
    2032:	2da040ef          	jal	ra,630c <__extendsfdf2>
    2036:	4702                	lw	a4,0(sp)
    2038:	4792                	lw	a5,4(sp)
    203a:	862a                	mv	a2,a0
    203c:	86ae                	mv	a3,a1
    203e:	853a                	mv	a0,a4
    2040:	85be                	mv	a1,a5
    2042:	43f010ef          	jal	ra,3c80 <__adddf3>
    2046:	372040ef          	jal	ra,63b8 <__truncdfsf2>
    204a:	84aa                	mv	s1,a0
    204c:	bd55                	j	1f00 <main+0x1ac>
C:\MRS_DATA\workspace\CH592F_SSD1306\obj/../src/Main.c:93
        if (velocityX < -maxVelocity) { velocityX = -maxVelocity; };
    204e:	4384                	lw	s1,0(a5)
    2050:	8522                	mv	a0,s0
    2052:	85a6                	mv	a1,s1
    2054:	2e9030ef          	jal	ra,5b3c <__lesf2>
    2058:	00055363          	bgez	a0,205e <main+0x30a>
    205c:	8426                	mv	s0,s1
C:\MRS_DATA\workspace\CH592F_SSD1306\obj/../src/Main.c:102
        if (angleX >= angle_bound) { angleX -= angle_bound; }
    205e:	00005797          	auipc	a5,0x5
    2062:	8de78793          	addi	a5,a5,-1826 # 693c <original_vertices+0x8c>
C:\MRS_DATA\workspace\CH592F_SSD1306\obj/../src/Main.c:92
        if (velocityY > maxVelocity) { velocityY = maxVelocity; };
    2066:	84da                	mv	s1,s6
C:\MRS_DATA\workspace\CH592F_SSD1306\obj/../src/Main.c:102
        if (angleX >= angle_bound) { angleX -= angle_bound; }
    2068:	0007ab03          	lw	s6,0(a5)
    206c:	854a                	mv	a0,s2
    206e:	85da                	mv	a1,s6
    2070:	247030ef          	jal	ra,5ab6 <__gesf2>
    2074:	ee055ce3          	bgez	a0,1f6c <main+0x218>
C:\MRS_DATA\workspace\CH592F_SSD1306\obj/../src/Main.c:97
        angleX += angleIncrementX;
    2078:	00005797          	auipc	a5,0x5
    207c:	8c878793          	addi	a5,a5,-1848 # 6940 <original_vertices+0x90>
    2080:	438c                	lw	a1,0(a5)
    2082:	854a                	mv	a0,s2
    2084:	6c8030ef          	jal	ra,574c <__addsf3>
    2088:	892a                	mv	s2,a0
    208a:	b5f5                	j	1f76 <main+0x222>
C:\MRS_DATA\workspace\CH592F_SSD1306\obj/../src/Main.c:76
            velocityY = -velocityY * accelerationFactor;
    208c:	000da583          	lw	a1,0(s11)
    2090:	8526                	mv	a0,s1
    2092:	337030ef          	jal	ra,5bc8 <__mulsf3>
C:\MRS_DATA\workspace\CH592F_SSD1306\obj/../src/Main.c:77
            posY = (posY >= Ymax) ? Ymax : Ymin;
    2096:	00005797          	auipc	a5,0x5
    209a:	87e78793          	addi	a5,a5,-1922 # 6914 <original_vertices+0x64>
    209e:	0007ab03          	lw	s6,0(a5)
C:\MRS_DATA\workspace\CH592F_SSD1306\obj/../src/Main.c:76
            velocityY = -velocityY * accelerationFactor;
    20a2:	84aa                	mv	s1,a0
C:\MRS_DATA\workspace\CH592F_SSD1306\obj/../src/Main.c:77
            posY = (posY >= Ymax) ? Ymax : Ymin;
    20a4:	8552                	mv	a0,s4
    20a6:	85da                	mv	a1,s6
    20a8:	20f030ef          	jal	ra,5ab6 <__gesf2>
    20ac:	06055263          	bgez	a0,2110 <main+0x3bc>
    20b0:	4a32                	lw	s4,12(sp)
    20b2:	5c61                	li	s8,-8
C:\MRS_DATA\workspace\CH592F_SSD1306\obj/../src/Main.c:79 (discriminator 4)
            velocityX += (rand() % 3 - 1) * 0.5;  // Adjust X velocity slightly
    20b4:	61e040ef          	jal	ra,66d2 <rand>
    20b8:	478d                	li	a5,3
    20ba:	02f56533          	rem	a0,a0,a5
    20be:	157d                	addi	a0,a0,-1
    20c0:	61a030ef          	jal	ra,56da <__floatsidf>
    20c4:	00005797          	auipc	a5,0x5
    20c8:	88478793          	addi	a5,a5,-1916 # 6948 <original_vertices+0x98>
    20cc:	4390                	lw	a2,0(a5)
    20ce:	43d4                	lw	a3,4(a5)
    20d0:	1ad020ef          	jal	ra,4a7c <__muldf3>
    20d4:	c02a                	sw	a0,0(sp)
    20d6:	8522                	mv	a0,s0
    20d8:	c22e                	sw	a1,4(sp)
    20da:	232040ef          	jal	ra,630c <__extendsfdf2>
    20de:	4702                	lw	a4,0(sp)
    20e0:	4792                	lw	a5,4(sp)
    20e2:	862a                	mv	a2,a0
    20e4:	86ae                	mv	a3,a1
    20e6:	853a                	mv	a0,a4
    20e8:	85be                	mv	a1,a5
    20ea:	397010ef          	jal	ra,3c80 <__adddf3>
    20ee:	2ca040ef          	jal	ra,63b8 <__truncdfsf2>
    20f2:	842a                	mv	s0,a0
    20f4:	bbf1                	j	1ed0 <main+0x17c>
    20f6:	03200c93          	li	s9,50
C:\MRS_DATA\workspace\CH592F_SSD1306\obj/../src/Main.c:85
            posX = (posX >= 50) ? 50 : -50;
    20fa:	89da                	mv	s3,s6
    20fc:	bf01                	j	200c <main+0x2b8>
C:\MRS_DATA\workspace\CH592F_SSD1306\obj/../src/Main.c:76
            velocityY = -velocityY * accelerationFactor;
    20fe:	000da583          	lw	a1,0(s11)
    2102:	8526                	mv	a0,s1
    2104:	4c21                	li	s8,8
    2106:	2c3030ef          	jal	ra,5bc8 <__mulsf3>
    210a:	84aa                	mv	s1,a0
C:\MRS_DATA\workspace\CH592F_SSD1306\obj/../src/Main.c:77
            posY = (posY >= Ymax) ? Ymax : Ymin;
    210c:	8a5a                	mv	s4,s6
    210e:	b75d                	j	20b4 <main+0x360>
    2110:	4c21                	li	s8,8
    2112:	8a5a                	mv	s4,s6
    2114:	b745                	j	20b4 <main+0x360>

00002116 <DebugInit>:
DebugInit():
C:\MRS_DATA\workspace\CH592F_SSD1306\obj/../src/board.c:9

void DebugInit(void)
{
#ifdef  DEBUG
#if DEBUG == Debug_UART0
    GPIOB_SetBits(GPIO_Pin_7);
    2116:	40001737          	lui	a4,0x40001
    211a:	0c872783          	lw	a5,200(a4) # 400010c8 <_eusrstack+0x1fffa8c8>
C:\MRS_DATA\workspace\CH592F_SSD1306\obj/../src/board.c:6
{
    211e:	1141                	addi	sp,sp,-16
    2120:	c606                	sw	ra,12(sp)
C:\MRS_DATA\workspace\CH592F_SSD1306\obj/../src/board.c:9
    GPIOB_SetBits(GPIO_Pin_7);
    2122:	0807e793          	ori	a5,a5,128
C:\MRS_DATA\workspace\CH592F_SSD1306\obj/../src/board.c:10
    GPIOB_ModeCfg(GPIO_Pin_7, GPIO_ModeOut_PP_5mA);
    2126:	458d                	li	a1,3
    2128:	08000513          	li	a0,128
C:\MRS_DATA\workspace\CH592F_SSD1306\obj/../src/board.c:9
    GPIOB_SetBits(GPIO_Pin_7);
    212c:	0cf72423          	sw	a5,200(a4)
C:\MRS_DATA\workspace\CH592F_SSD1306\obj/../src/board.c:10
    GPIOB_ModeCfg(GPIO_Pin_7, GPIO_ModeOut_PP_5mA);
    2130:	20e5                	jal	2218 <GPIOB_ModeCfg>
C:\MRS_DATA\workspace\CH592F_SSD1306\obj/../src/board.c:29
    GPIOB_SetBits(GPIO_Pin_21);
    GPIOB_ModeCfg(GPIO_Pin_21, GPIO_ModeOut_PP_5mA);
    UART3_DefInit();
#endif
#endif
}
    2132:	40b2                	lw	ra,12(sp)
    2134:	0141                	addi	sp,sp,16
C:\MRS_DATA\workspace\CH592F_SSD1306\obj/../src/board.c:11
    UART0_DefInit();
    2136:	a3a1                	j	267e <UART0_DefInit>

00002138 <led_init>:
led_init():
C:\MRS_DATA\workspace\CH592F_SSD1306\obj/../src/board.c:33

void led_init(void)
{
    GPIOA_SetBits(GPIO_Pin_8);
    2138:	40001737          	lui	a4,0x40001
    213c:	0a872783          	lw	a5,168(a4) # 400010a8 <_eusrstack+0x1fffa8a8>
C:\MRS_DATA\workspace\CH592F_SSD1306\obj/../src/board.c:34
    GPIOA_ModeCfg(GPIO_Pin_8, GPIO_ModeOut_PP_5mA);
    2140:	458d                	li	a1,3
    2142:	10000513          	li	a0,256
C:\MRS_DATA\workspace\CH592F_SSD1306\obj/../src/board.c:33
    GPIOA_SetBits(GPIO_Pin_8);
    2146:	1007e793          	ori	a5,a5,256
    214a:	0af72423          	sw	a5,168(a4)
C:\MRS_DATA\workspace\CH592F_SSD1306\obj/../src/board.c:34
    GPIOA_ModeCfg(GPIO_Pin_8, GPIO_ModeOut_PP_5mA);
    214e:	a009                	j	2150 <GPIOA_ModeCfg>

00002150 <GPIOA_ModeCfg>:
GPIOA_ModeCfg():
C:\MRS_DATA\workspace\CH592F_SSD1306\obj/../StdPeriphDriver/CH59x_gpio.c:27
 *
 * @return  none
 */
void GPIOA_ModeCfg(uint32_t pin, GPIOModeTypeDef mode)
{
    switch(mode)
    2150:	4791                	li	a5,4
    2152:	02b7e763          	bltu	a5,a1,2180 <GPIOA_ModeCfg+0x30>
    2156:	00004717          	auipc	a4,0x4
    215a:	7fa70713          	addi	a4,a4,2042 # 6950 <original_vertices+0xa0>
    215e:	058a                	slli	a1,a1,0x2
    2160:	95ba                	add	a1,a1,a4
    2162:	419c                	lw	a5,0(a1)
    2164:	97ba                	add	a5,a5,a4
    2166:	8782                	jr	a5
C:\MRS_DATA\workspace\CH592F_SSD1306\obj/../StdPeriphDriver/CH59x_gpio.c:53
            R32_PA_PD_DRV &= ~pin;
            R32_PA_DIR |= pin;
            break;

        case GPIO_ModeOut_PP_20mA:
            R32_PA_PD_DRV |= pin;
    2168:	400017b7          	lui	a5,0x40001
    216c:	0b47a703          	lw	a4,180(a5) # 400010b4 <_eusrstack+0x1fffa8b4>
    2170:	8f49                	or	a4,a4,a0
    2172:	0ae7aa23          	sw	a4,180(a5)
C:\MRS_DATA\workspace\CH592F_SSD1306\obj/../StdPeriphDriver/CH59x_gpio.c:54
            R32_PA_DIR |= pin;
    2176:	0a07a703          	lw	a4,160(a5)
    217a:	8d59                	or	a0,a0,a4
    217c:	0aa7a023          	sw	a0,160(a5)
C:\MRS_DATA\workspace\CH592F_SSD1306\obj/../StdPeriphDriver/CH59x_gpio.c:60
            break;

        default:
            break;
    }
}
    2180:	8082                	ret
C:\MRS_DATA\workspace\CH592F_SSD1306\obj/../StdPeriphDriver/CH59x_gpio.c:48
            R32_PA_PD_DRV &= ~pin;
    2182:	400017b7          	lui	a5,0x40001
    2186:	0b47a683          	lw	a3,180(a5) # 400010b4 <_eusrstack+0x1fffa8b4>
    218a:	fff54713          	not	a4,a0
    218e:	8f75                	and	a4,a4,a3
    2190:	0ae7aa23          	sw	a4,180(a5)
C:\MRS_DATA\workspace\CH592F_SSD1306\obj/../StdPeriphDriver/CH59x_gpio.c:49
            R32_PA_DIR |= pin;
    2194:	0a07a703          	lw	a4,160(a5)
    2198:	8d59                	or	a0,a0,a4
    219a:	0aa7a023          	sw	a0,160(a5)
C:\MRS_DATA\workspace\CH592F_SSD1306\obj/../StdPeriphDriver/CH59x_gpio.c:50
            break;
    219e:	8082                	ret
C:\MRS_DATA\workspace\CH592F_SSD1306\obj/../StdPeriphDriver/CH59x_gpio.c:30
            R32_PA_PD_DRV &= ~pin;
    21a0:	400017b7          	lui	a5,0x40001
    21a4:	0b47a703          	lw	a4,180(a5) # 400010b4 <_eusrstack+0x1fffa8b4>
    21a8:	fff54513          	not	a0,a0
    21ac:	8f69                	and	a4,a4,a0
    21ae:	0ae7aa23          	sw	a4,180(a5)
C:\MRS_DATA\workspace\CH592F_SSD1306\obj/../StdPeriphDriver/CH59x_gpio.c:31
            R32_PA_PU &= ~pin;
    21b2:	0b07a703          	lw	a4,176(a5)
    21b6:	8f69                	and	a4,a4,a0
    21b8:	0ae7a823          	sw	a4,176(a5)
C:\MRS_DATA\workspace\CH592F_SSD1306\obj/../StdPeriphDriver/CH59x_gpio.c:32
            R32_PA_DIR &= ~pin;
    21bc:	0a07a703          	lw	a4,160(a5)
    21c0:	8d79                	and	a0,a0,a4
    21c2:	0aa7a023          	sw	a0,160(a5)
C:\MRS_DATA\workspace\CH592F_SSD1306\obj/../StdPeriphDriver/CH59x_gpio.c:33
            break;
    21c6:	8082                	ret
C:\MRS_DATA\workspace\CH592F_SSD1306\obj/../StdPeriphDriver/CH59x_gpio.c:36
            R32_PA_PD_DRV &= ~pin;
    21c8:	400017b7          	lui	a5,0x40001
    21cc:	0b47a683          	lw	a3,180(a5) # 400010b4 <_eusrstack+0x1fffa8b4>
    21d0:	fff54713          	not	a4,a0
    21d4:	8ef9                	and	a3,a3,a4
    21d6:	0ad7aa23          	sw	a3,180(a5)
C:\MRS_DATA\workspace\CH592F_SSD1306\obj/../StdPeriphDriver/CH59x_gpio.c:37
            R32_PA_PU |= pin;
    21da:	0b07a683          	lw	a3,176(a5)
    21de:	8d55                	or	a0,a0,a3
    21e0:	0aa7a823          	sw	a0,176(a5)
C:\MRS_DATA\workspace\CH592F_SSD1306\obj/../StdPeriphDriver/CH59x_gpio.c:38
            R32_PA_DIR &= ~pin;
    21e4:	0a07a683          	lw	a3,160(a5)
    21e8:	8f75                	and	a4,a4,a3
    21ea:	0ae7a023          	sw	a4,160(a5)
C:\MRS_DATA\workspace\CH592F_SSD1306\obj/../StdPeriphDriver/CH59x_gpio.c:39
            break;
    21ee:	8082                	ret
C:\MRS_DATA\workspace\CH592F_SSD1306\obj/../StdPeriphDriver/CH59x_gpio.c:42
            R32_PA_PD_DRV |= pin;
    21f0:	400017b7          	lui	a5,0x40001
    21f4:	0b47a683          	lw	a3,180(a5) # 400010b4 <_eusrstack+0x1fffa8b4>
C:\MRS_DATA\workspace\CH592F_SSD1306\obj/../StdPeriphDriver/CH59x_gpio.c:43
            R32_PA_PU &= ~pin;
    21f8:	fff54713          	not	a4,a0
C:\MRS_DATA\workspace\CH592F_SSD1306\obj/../StdPeriphDriver/CH59x_gpio.c:42
            R32_PA_PD_DRV |= pin;
    21fc:	8d55                	or	a0,a0,a3
    21fe:	0aa7aa23          	sw	a0,180(a5)
C:\MRS_DATA\workspace\CH592F_SSD1306\obj/../StdPeriphDriver/CH59x_gpio.c:43
            R32_PA_PU &= ~pin;
    2202:	0b07a683          	lw	a3,176(a5)
    2206:	8ef9                	and	a3,a3,a4
    2208:	0ad7a823          	sw	a3,176(a5)
C:\MRS_DATA\workspace\CH592F_SSD1306\obj/../StdPeriphDriver/CH59x_gpio.c:44
            R32_PA_DIR &= ~pin;
    220c:	0a07a683          	lw	a3,160(a5)
    2210:	8f75                	and	a4,a4,a3
    2212:	0ae7a023          	sw	a4,160(a5)
C:\MRS_DATA\workspace\CH592F_SSD1306\obj/../StdPeriphDriver/CH59x_gpio.c:45
            break;
    2216:	8082                	ret

00002218 <GPIOB_ModeCfg>:
GPIOB_ModeCfg():
C:\MRS_DATA\workspace\CH592F_SSD1306\obj/../StdPeriphDriver/CH59x_gpio.c:74
 *
 * @return  none
 */
void GPIOB_ModeCfg(uint32_t pin, GPIOModeTypeDef mode)
{
    switch(mode)
    2218:	4791                	li	a5,4
    221a:	02b7e763          	bltu	a5,a1,2248 <GPIOB_ModeCfg+0x30>
    221e:	00004717          	auipc	a4,0x4
    2222:	74670713          	addi	a4,a4,1862 # 6964 <original_vertices+0xb4>
    2226:	058a                	slli	a1,a1,0x2
    2228:	95ba                	add	a1,a1,a4
    222a:	419c                	lw	a5,0(a1)
    222c:	97ba                	add	a5,a5,a4
    222e:	8782                	jr	a5
C:\MRS_DATA\workspace\CH592F_SSD1306\obj/../StdPeriphDriver/CH59x_gpio.c:100
            R32_PB_PD_DRV &= ~pin;
            R32_PB_DIR |= pin;
            break;

        case GPIO_ModeOut_PP_20mA:
            R32_PB_PD_DRV |= pin;
    2230:	400017b7          	lui	a5,0x40001
    2234:	0d47a703          	lw	a4,212(a5) # 400010d4 <_eusrstack+0x1fffa8d4>
    2238:	8f49                	or	a4,a4,a0
    223a:	0ce7aa23          	sw	a4,212(a5)
C:\MRS_DATA\workspace\CH592F_SSD1306\obj/../StdPeriphDriver/CH59x_gpio.c:101
            R32_PB_DIR |= pin;
    223e:	0c07a703          	lw	a4,192(a5)
    2242:	8d59                	or	a0,a0,a4
    2244:	0ca7a023          	sw	a0,192(a5)
C:\MRS_DATA\workspace\CH592F_SSD1306\obj/../StdPeriphDriver/CH59x_gpio.c:107
            break;

        default:
            break;
    }
}
    2248:	8082                	ret
C:\MRS_DATA\workspace\CH592F_SSD1306\obj/../StdPeriphDriver/CH59x_gpio.c:95
            R32_PB_PD_DRV &= ~pin;
    224a:	400017b7          	lui	a5,0x40001
    224e:	0d47a683          	lw	a3,212(a5) # 400010d4 <_eusrstack+0x1fffa8d4>
    2252:	fff54713          	not	a4,a0
    2256:	8f75                	and	a4,a4,a3
    2258:	0ce7aa23          	sw	a4,212(a5)
C:\MRS_DATA\workspace\CH592F_SSD1306\obj/../StdPeriphDriver/CH59x_gpio.c:96
            R32_PB_DIR |= pin;
    225c:	0c07a703          	lw	a4,192(a5)
    2260:	8d59                	or	a0,a0,a4
    2262:	0ca7a023          	sw	a0,192(a5)
C:\MRS_DATA\workspace\CH592F_SSD1306\obj/../StdPeriphDriver/CH59x_gpio.c:97
            break;
    2266:	8082                	ret
C:\MRS_DATA\workspace\CH592F_SSD1306\obj/../StdPeriphDriver/CH59x_gpio.c:77
            R32_PB_PD_DRV &= ~pin;
    2268:	400017b7          	lui	a5,0x40001
    226c:	0d47a703          	lw	a4,212(a5) # 400010d4 <_eusrstack+0x1fffa8d4>
    2270:	fff54513          	not	a0,a0
    2274:	8f69                	and	a4,a4,a0
    2276:	0ce7aa23          	sw	a4,212(a5)
C:\MRS_DATA\workspace\CH592F_SSD1306\obj/../StdPeriphDriver/CH59x_gpio.c:78
            R32_PB_PU &= ~pin;
    227a:	0d07a703          	lw	a4,208(a5)
    227e:	8f69                	and	a4,a4,a0
    2280:	0ce7a823          	sw	a4,208(a5)
C:\MRS_DATA\workspace\CH592F_SSD1306\obj/../StdPeriphDriver/CH59x_gpio.c:79
            R32_PB_DIR &= ~pin;
    2284:	0c07a703          	lw	a4,192(a5)
    2288:	8d79                	and	a0,a0,a4
    228a:	0ca7a023          	sw	a0,192(a5)
C:\MRS_DATA\workspace\CH592F_SSD1306\obj/../StdPeriphDriver/CH59x_gpio.c:80
            break;
    228e:	8082                	ret
C:\MRS_DATA\workspace\CH592F_SSD1306\obj/../StdPeriphDriver/CH59x_gpio.c:83
            R32_PB_PD_DRV &= ~pin;
    2290:	400017b7          	lui	a5,0x40001
    2294:	0d47a683          	lw	a3,212(a5) # 400010d4 <_eusrstack+0x1fffa8d4>
    2298:	fff54713          	not	a4,a0
    229c:	8ef9                	and	a3,a3,a4
    229e:	0cd7aa23          	sw	a3,212(a5)
C:\MRS_DATA\workspace\CH592F_SSD1306\obj/../StdPeriphDriver/CH59x_gpio.c:84
            R32_PB_PU |= pin;
    22a2:	0d07a683          	lw	a3,208(a5)
    22a6:	8d55                	or	a0,a0,a3
    22a8:	0ca7a823          	sw	a0,208(a5)
C:\MRS_DATA\workspace\CH592F_SSD1306\obj/../StdPeriphDriver/CH59x_gpio.c:85
            R32_PB_DIR &= ~pin;
    22ac:	0c07a683          	lw	a3,192(a5)
    22b0:	8f75                	and	a4,a4,a3
    22b2:	0ce7a023          	sw	a4,192(a5)
C:\MRS_DATA\workspace\CH592F_SSD1306\obj/../StdPeriphDriver/CH59x_gpio.c:86
            break;
    22b6:	8082                	ret
C:\MRS_DATA\workspace\CH592F_SSD1306\obj/../StdPeriphDriver/CH59x_gpio.c:89
            R32_PB_PD_DRV |= pin;
    22b8:	400017b7          	lui	a5,0x40001
    22bc:	0d47a683          	lw	a3,212(a5) # 400010d4 <_eusrstack+0x1fffa8d4>
C:\MRS_DATA\workspace\CH592F_SSD1306\obj/../StdPeriphDriver/CH59x_gpio.c:90
            R32_PB_PU &= ~pin;
    22c0:	fff54713          	not	a4,a0
C:\MRS_DATA\workspace\CH592F_SSD1306\obj/../StdPeriphDriver/CH59x_gpio.c:89
            R32_PB_PD_DRV |= pin;
    22c4:	8d55                	or	a0,a0,a3
    22c6:	0ca7aa23          	sw	a0,212(a5)
C:\MRS_DATA\workspace\CH592F_SSD1306\obj/../StdPeriphDriver/CH59x_gpio.c:90
            R32_PB_PU &= ~pin;
    22ca:	0d07a683          	lw	a3,208(a5)
    22ce:	8ef9                	and	a3,a3,a4
    22d0:	0cd7a823          	sw	a3,208(a5)
C:\MRS_DATA\workspace\CH592F_SSD1306\obj/../StdPeriphDriver/CH59x_gpio.c:91
            R32_PB_DIR &= ~pin;
    22d4:	0c07a683          	lw	a3,192(a5)
    22d8:	8f75                	and	a4,a4,a3
    22da:	0ce7a023          	sw	a4,192(a5)
C:\MRS_DATA\workspace\CH592F_SSD1306\obj/../StdPeriphDriver/CH59x_gpio.c:92
            break;
    22de:	8082                	ret

000022e0 <I2C_Init>:
I2C_Init():
C:\MRS_DATA\workspace\CH592F_SSD1306\obj/../StdPeriphDriver/CH59x_i2c.c:34
 *
 * @return  none
 */
void I2C_Init(I2C_ModeTypeDef I2C_Mode, UINT32 I2C_ClockSpeed, I2C_DutyTypeDef I2C_DutyCycle,
              I2C_AckTypeDef I2C_Ack, I2C_AckAddrTypeDef I2C_AckAddr, UINT16 I2C_OwnAddress1)
{
    22e0:	7179                	addi	sp,sp,-48
    22e2:	d422                	sw	s0,40(sp)
I2C_SoftwareResetCmd():
C:\MRS_DATA\workspace\CH592F_SSD1306\obj/../StdPeriphDriver/CH59x_i2c.c:286
 * @return  none
 */
void I2C_SoftwareResetCmd(FunctionalState NewState)
{
    if(NewState != DISABLE)
        R16_I2C_CTRL1 |= RB_I2C_SWRST;
    22e4:	40005437          	lui	s0,0x40005
    22e8:	80045803          	lhu	a6,-2048(s0) # 40004800 <_eusrstack+0x1fffe000>
I2C_Init():
C:\MRS_DATA\workspace\CH592F_SSD1306\obj/../StdPeriphDriver/CH59x_i2c.c:34
{
    22ec:	c65e                	sw	s7,12(sp)
I2C_SoftwareResetCmd():
C:\MRS_DATA\workspace\CH592F_SSD1306\obj/../StdPeriphDriver/CH59x_i2c.c:286
        R16_I2C_CTRL1 |= RB_I2C_SWRST;
    22ee:	7be1                	lui	s7,0xffff8
    22f0:	01786833          	or	a6,a6,s7
    22f4:	0842                	slli	a6,a6,0x10
I2C_Init():
C:\MRS_DATA\workspace\CH592F_SSD1306\obj/../StdPeriphDriver/CH59x_i2c.c:34
{
    22f6:	d226                	sw	s1,36(sp)
    22f8:	d04a                	sw	s2,32(sp)
    22fa:	ce4e                	sw	s3,28(sp)
    22fc:	cc52                	sw	s4,24(sp)
    22fe:	ca56                	sw	s5,20(sp)
    2300:	c85a                	sw	s6,16(sp)
    2302:	c462                	sw	s8,8(sp)
    2304:	d606                	sw	ra,44(sp)
I2C_SoftwareResetCmd():
C:\MRS_DATA\workspace\CH592F_SSD1306\obj/../StdPeriphDriver/CH59x_i2c.c:286
        R16_I2C_CTRL1 |= RB_I2C_SWRST;
    2306:	01085813          	srli	a6,a6,0x10
    230a:	81041023          	sh	a6,-2048(s0)
C:\MRS_DATA\workspace\CH592F_SSD1306\obj/../StdPeriphDriver/CH59x_i2c.c:288
    else
        R16_I2C_CTRL1 &= ~RB_I2C_SWRST;
    230e:	80045883          	lhu	a7,-2048(s0)
    2312:	6c21                	lui	s8,0x8
    2314:	fffc0813          	addi	a6,s8,-1 # 7fff <_data_lma+0x1207>
    2318:	01187833          	and	a6,a6,a7
    231c:	81041023          	sh	a6,-2048(s0)
I2C_Init():
C:\MRS_DATA\workspace\CH592F_SSD1306\obj/../StdPeriphDriver/CH59x_i2c.c:34
{
    2320:	893a                	mv	s2,a4
    2322:	8a3e                	mv	s4,a5
    2324:	84aa                	mv	s1,a0
    2326:	8b2e                	mv	s6,a1
    2328:	89b2                	mv	s3,a2
    232a:	8ab6                	mv	s5,a3
C:\MRS_DATA\workspace\CH592F_SSD1306\obj/../StdPeriphDriver/CH59x_i2c.c:41
    sysClock = GetSysClock();
    232c:	2639                	jal	263a <GetSysClock>
C:\MRS_DATA\workspace\CH592F_SSD1306\obj/../StdPeriphDriver/CH59x_i2c.c:44
    R16_I2C_CTRL2 |= (sysClock / 1000000);
    232e:	000f4837          	lui	a6,0xf4
    2332:	24080813          	addi	a6,a6,576 # f4240 <_data_lma+0xed448>
    2336:	03055833          	divu	a6,a0,a6
C:\MRS_DATA\workspace\CH592F_SSD1306\obj/../StdPeriphDriver/CH59x_i2c.c:43
    R16_I2C_CTRL2 &= ~RB_I2C_FREQ;
    233a:	80445883          	lhu	a7,-2044(s0)
C:\MRS_DATA\workspace\CH592F_SSD1306\obj/../StdPeriphDriver/CH59x_i2c.c:48
    if(I2C_ClockSpeed <= 100000)
    233e:	6761                	lui	a4,0x18
    2340:	6a070713          	addi	a4,a4,1696 # 186a0 <_data_lma+0x118a8>
C:\MRS_DATA\workspace\CH592F_SSD1306\obj/../StdPeriphDriver/CH59x_i2c.c:43
    R16_I2C_CTRL2 &= ~RB_I2C_FREQ;
    2344:	08c2                	slli	a7,a7,0x10
    2346:	0108d893          	srli	a7,a7,0x10
    234a:	fc08f893          	andi	a7,a7,-64
    234e:	08c2                	slli	a7,a7,0x10
    2350:	0108d893          	srli	a7,a7,0x10
    2354:	81141223          	sh	a7,-2044(s0)
C:\MRS_DATA\workspace\CH592F_SSD1306\obj/../StdPeriphDriver/CH59x_i2c.c:44
    R16_I2C_CTRL2 |= (sysClock / 1000000);
    2358:	80445783          	lhu	a5,-2044(s0)
    235c:	00f867b3          	or	a5,a6,a5
    2360:	07c2                	slli	a5,a5,0x10
    2362:	83c1                	srli	a5,a5,0x10
    2364:	80f41223          	sh	a5,-2044(s0)
C:\MRS_DATA\workspace\CH592F_SSD1306\obj/../StdPeriphDriver/CH59x_i2c.c:46
    R16_I2C_CTRL1 &= ~RB_I2C_PE;
    2368:	80045883          	lhu	a7,-2048(s0)
    236c:	08c2                	slli	a7,a7,0x10
    236e:	0108d893          	srli	a7,a7,0x10
    2372:	ffe8f893          	andi	a7,a7,-2
    2376:	08c2                	slli	a7,a7,0x10
    2378:	0108d893          	srli	a7,a7,0x10
    237c:	81141023          	sh	a7,-2048(s0)
C:\MRS_DATA\workspace\CH592F_SSD1306\obj/../StdPeriphDriver/CH59x_i2c.c:48
    if(I2C_ClockSpeed <= 100000)
    2380:	0b676663          	bltu	a4,s6,242c <I2C_Init+0x14c>
C:\MRS_DATA\workspace\CH592F_SSD1306\obj/../StdPeriphDriver/CH59x_i2c.c:50
        tmpreg = (sysClock / (I2C_ClockSpeed << 1)) & RB_I2C_CCR;
    2384:	0b06                	slli	s6,s6,0x1
    2386:	03655533          	divu	a0,a0,s6
C:\MRS_DATA\workspace\CH592F_SSD1306\obj/../StdPeriphDriver/CH59x_i2c.c:52
        if(tmpreg < 0x04)
    238a:	6685                	lui	a3,0x1
    238c:	ffc68713          	addi	a4,a3,-4 # ffc <OLED_Init+0x71a>
C:\MRS_DATA\workspace\CH592F_SSD1306\obj/../StdPeriphDriver/CH59x_i2c.c:53
            tmpreg = 0x04;
    2390:	4791                	li	a5,4
C:\MRS_DATA\workspace\CH592F_SSD1306\obj/../StdPeriphDriver/CH59x_i2c.c:50
        tmpreg = (sysClock / (I2C_ClockSpeed << 1)) & RB_I2C_CCR;
    2392:	0542                	slli	a0,a0,0x10
    2394:	8141                	srli	a0,a0,0x10
C:\MRS_DATA\workspace\CH592F_SSD1306\obj/../StdPeriphDriver/CH59x_i2c.c:52
        if(tmpreg < 0x04)
    2396:	8f69                	and	a4,a4,a0
    2398:	e751                	bnez	a4,2424 <I2C_Init+0x144>
C:\MRS_DATA\workspace\CH592F_SSD1306\obj/../StdPeriphDriver/CH59x_i2c.c:55
        R16_I2C_RTR = (((sysClock / 1000000) + 1) > 0x3F) ? 0x3F : ((sysClock / 1000000) + 1);
    239a:	0805                	addi	a6,a6,1
    239c:	03f00713          	li	a4,63
    23a0:	01077463          	bgeu	a4,a6,23a8 <I2C_Init+0xc8>
    23a4:	03f00813          	li	a6,63
C:\MRS_DATA\workspace\CH592F_SSD1306\obj/../StdPeriphDriver/CH59x_i2c.c:75
        R16_I2C_RTR = (uint16_t)((((sysClock / 1000000) * (uint16_t)300) / (uint16_t)1000) + (uint16_t)1);
    23a8:	0842                	slli	a6,a6,0x10
    23aa:	01085813          	srli	a6,a6,0x10
    23ae:	40005737          	lui	a4,0x40005
    23b2:	83071023          	sh	a6,-2016(a4) # 40004820 <_eusrstack+0x1fffe020>
C:\MRS_DATA\workspace\CH592F_SSD1306\obj/../StdPeriphDriver/CH59x_i2c.c:77
    R16_I2C_CKCFGR = tmpreg;
    23b6:	40005637          	lui	a2,0x40005
    23ba:	80f61e23          	sh	a5,-2020(a2) # 4000481c <_eusrstack+0x1fffe01c>
C:\MRS_DATA\workspace\CH592F_SSD1306\obj/../StdPeriphDriver/CH59x_i2c.c:79
    R16_I2C_CTRL1 |= RB_I2C_PE;
    23be:	80065783          	lhu	a5,-2048(a2)
C:\MRS_DATA\workspace\CH592F_SSD1306\obj/../StdPeriphDriver/CH59x_i2c.c:86
}
    23c2:	50b2                	lw	ra,44(sp)
    23c4:	5422                	lw	s0,40(sp)
C:\MRS_DATA\workspace\CH592F_SSD1306\obj/../StdPeriphDriver/CH59x_i2c.c:79
    R16_I2C_CTRL1 |= RB_I2C_PE;
    23c6:	0017e793          	ori	a5,a5,1
    23ca:	80f61023          	sh	a5,-2048(a2)
C:\MRS_DATA\workspace\CH592F_SSD1306\obj/../StdPeriphDriver/CH59x_i2c.c:81
    R16_I2C_CTRL1 &= ~(RB_I2C_SMBUS | RB_I2C_SMBTYPE | RB_I2C_ACK);
    23ce:	80065583          	lhu	a1,-2048(a2)
C:\MRS_DATA\workspace\CH592F_SSD1306\obj/../StdPeriphDriver/CH59x_i2c.c:86
}
    23d2:	49f2                	lw	s3,28(sp)
    23d4:	4b42                	lw	s6,16(sp)
C:\MRS_DATA\workspace\CH592F_SSD1306\obj/../StdPeriphDriver/CH59x_i2c.c:81
    R16_I2C_CTRL1 &= ~(RB_I2C_SMBUS | RB_I2C_SMBTYPE | RB_I2C_ACK);
    23d6:	05c2                	slli	a1,a1,0x10
    23d8:	81c1                	srli	a1,a1,0x10
    23da:	bf55f593          	andi	a1,a1,-1035
    23de:	05c2                	slli	a1,a1,0x10
    23e0:	81c1                	srli	a1,a1,0x10
    23e2:	80b61023          	sh	a1,-2048(a2)
C:\MRS_DATA\workspace\CH592F_SSD1306\obj/../StdPeriphDriver/CH59x_i2c.c:82
    R16_I2C_CTRL1 |= I2C_Mode | I2C_Ack;
    23e6:	80065683          	lhu	a3,-2048(a2)
C:\MRS_DATA\workspace\CH592F_SSD1306\obj/../StdPeriphDriver/CH59x_i2c.c:86
}
    23ea:	4bb2                	lw	s7,12(sp)
    23ec:	4c22                	lw	s8,8(sp)
C:\MRS_DATA\workspace\CH592F_SSD1306\obj/../StdPeriphDriver/CH59x_i2c.c:82
    R16_I2C_CTRL1 |= I2C_Mode | I2C_Ack;
    23ee:	00dae6b3          	or	a3,s5,a3
    23f2:	8ec5                	or	a3,a3,s1
    23f4:	06c2                	slli	a3,a3,0x10
    23f6:	82c1                	srli	a3,a3,0x10
    23f8:	80d61023          	sh	a3,-2048(a2)
C:\MRS_DATA\workspace\CH592F_SSD1306\obj/../StdPeriphDriver/CH59x_i2c.c:84
    R16_I2C_OADDR1 &= ~0xFFFF;
    23fc:	80865783          	lhu	a5,-2040(a2)
    2400:	80061423          	sh	zero,-2040(a2)
C:\MRS_DATA\workspace\CH592F_SSD1306\obj/../StdPeriphDriver/CH59x_i2c.c:85
    R16_I2C_OADDR1 |= I2C_AckAddr | I2C_OwnAddress1;
    2404:	80865783          	lhu	a5,-2040(a2)
C:\MRS_DATA\workspace\CH592F_SSD1306\obj/../StdPeriphDriver/CH59x_i2c.c:86
}
    2408:	5492                	lw	s1,36(sp)
    240a:	4ad2                	lw	s5,20(sp)
C:\MRS_DATA\workspace\CH592F_SSD1306\obj/../StdPeriphDriver/CH59x_i2c.c:85
    R16_I2C_OADDR1 |= I2C_AckAddr | I2C_OwnAddress1;
    240c:	00fa67b3          	or	a5,s4,a5
    2410:	0127e7b3          	or	a5,a5,s2
    2414:	07c2                	slli	a5,a5,0x10
    2416:	83c1                	srli	a5,a5,0x10
    2418:	80f61423          	sh	a5,-2040(a2)
C:\MRS_DATA\workspace\CH592F_SSD1306\obj/../StdPeriphDriver/CH59x_i2c.c:86
}
    241c:	5902                	lw	s2,32(sp)
    241e:	4a62                	lw	s4,24(sp)
    2420:	6145                	addi	sp,sp,48
    2422:	8082                	ret
C:\MRS_DATA\workspace\CH592F_SSD1306\obj/../StdPeriphDriver/CH59x_i2c.c:50
        tmpreg = (sysClock / (I2C_ClockSpeed << 1)) & RB_I2C_CCR;
    2424:	fff68793          	addi	a5,a3,-1
    2428:	8fe9                	and	a5,a5,a0
    242a:	bf85                	j	239a <I2C_Init+0xba>
C:\MRS_DATA\workspace\CH592F_SSD1306\obj/../StdPeriphDriver/CH59x_i2c.c:59
        if(I2C_DutyCycle == I2C_DutyCycle_2)
    242c:	02099663          	bnez	s3,2458 <I2C_Init+0x178>
C:\MRS_DATA\workspace\CH592F_SSD1306\obj/../StdPeriphDriver/CH59x_i2c.c:61
            tmpreg = (sysClock / (I2C_ClockSpeed * 3)) & RB_I2C_CCR;
    2430:	001b1593          	slli	a1,s6,0x1
    2434:	95da                	add	a1,a1,s6
    2436:	02b55533          	divu	a0,a0,a1
    243a:	001c0793          	addi	a5,s8,1
    243e:	0552                	slli	a0,a0,0x14
    2440:	8151                	srli	a0,a0,0x14
C:\MRS_DATA\workspace\CH592F_SSD1306\obj/../StdPeriphDriver/CH59x_i2c.c:69
        if(tmpreg == 0)
    2442:	e51d                	bnez	a0,2470 <I2C_Init+0x190>
C:\MRS_DATA\workspace\CH592F_SSD1306\obj/../StdPeriphDriver/CH59x_i2c.c:75
        R16_I2C_RTR = (uint16_t)((((sysClock / 1000000) * (uint16_t)300) / (uint16_t)1000) + (uint16_t)1);
    2444:	12c00713          	li	a4,300
    2448:	02e80833          	mul	a6,a6,a4
    244c:	3e800713          	li	a4,1000
    2450:	02e85833          	divu	a6,a6,a4
    2454:	0805                	addi	a6,a6,1
    2456:	bf89                	j	23a8 <I2C_Init+0xc8>
C:\MRS_DATA\workspace\CH592F_SSD1306\obj/../StdPeriphDriver/CH59x_i2c.c:65
            tmpreg = (sysClock / (I2C_ClockSpeed * 25)) & RB_I2C_CCR;
    2458:	001b1793          	slli	a5,s6,0x1
    245c:	97da                	add	a5,a5,s6
    245e:	078e                	slli	a5,a5,0x3
    2460:	97da                	add	a5,a5,s6
    2462:	02f557b3          	divu	a5,a0,a5
    2466:	6531                	lui	a0,0xc
    2468:	07d2                	slli	a5,a5,0x14
    246a:	83d1                	srli	a5,a5,0x14
    246c:	8fc9                	or	a5,a5,a0
    246e:	bfd9                	j	2444 <I2C_Init+0x164>
    2470:	017567b3          	or	a5,a0,s7
    2474:	07c2                	slli	a5,a5,0x10
    2476:	83c1                	srli	a5,a5,0x10
    2478:	b7f1                	j	2444 <I2C_Init+0x164>

0000247a <I2C_GenerateSTART>:
I2C_GenerateSTART():
C:\MRS_DATA\workspace\CH592F_SSD1306\obj/../StdPeriphDriver/CH59x_i2c.c:117
        R16_I2C_CTRL1 |= RB_I2C_START;
    247a:	40005737          	lui	a4,0x40005
    247e:	80075783          	lhu	a5,-2048(a4) # 40004800 <_eusrstack+0x1fffe000>
C:\MRS_DATA\workspace\CH592F_SSD1306\obj/../StdPeriphDriver/CH59x_i2c.c:116
    if(NewState != DISABLE)
    2482:	c511                	beqz	a0,248e <I2C_GenerateSTART+0x14>
C:\MRS_DATA\workspace\CH592F_SSD1306\obj/../StdPeriphDriver/CH59x_i2c.c:117
        R16_I2C_CTRL1 |= RB_I2C_START;
    2484:	1007e793          	ori	a5,a5,256
    2488:	80f71023          	sh	a5,-2048(a4)
    248c:	8082                	ret
C:\MRS_DATA\workspace\CH592F_SSD1306\obj/../StdPeriphDriver/CH59x_i2c.c:119
        R16_I2C_CTRL1 &= ~RB_I2C_START;
    248e:	07c2                	slli	a5,a5,0x10
    2490:	83c1                	srli	a5,a5,0x10
    2492:	eff7f793          	andi	a5,a5,-257
    2496:	07c2                	slli	a5,a5,0x10
    2498:	83c1                	srli	a5,a5,0x10
    249a:	80f71023          	sh	a5,-2048(a4)
C:\MRS_DATA\workspace\CH592F_SSD1306\obj/../StdPeriphDriver/CH59x_i2c.c:120
}
    249e:	8082                	ret

000024a0 <I2C_GenerateSTOP>:
I2C_GenerateSTOP():
C:\MRS_DATA\workspace\CH592F_SSD1306\obj/../StdPeriphDriver/CH59x_i2c.c:134
        R16_I2C_CTRL1 |= RB_I2C_STOP;
    24a0:	40005737          	lui	a4,0x40005
    24a4:	80075783          	lhu	a5,-2048(a4) # 40004800 <_eusrstack+0x1fffe000>
C:\MRS_DATA\workspace\CH592F_SSD1306\obj/../StdPeriphDriver/CH59x_i2c.c:133
    if(NewState != DISABLE)
    24a8:	c511                	beqz	a0,24b4 <I2C_GenerateSTOP+0x14>
C:\MRS_DATA\workspace\CH592F_SSD1306\obj/../StdPeriphDriver/CH59x_i2c.c:134
        R16_I2C_CTRL1 |= RB_I2C_STOP;
    24aa:	2007e793          	ori	a5,a5,512
    24ae:	80f71023          	sh	a5,-2048(a4)
    24b2:	8082                	ret
C:\MRS_DATA\workspace\CH592F_SSD1306\obj/../StdPeriphDriver/CH59x_i2c.c:136
        R16_I2C_CTRL1 &= ~RB_I2C_STOP;
    24b4:	07c2                	slli	a5,a5,0x10
    24b6:	83c1                	srli	a5,a5,0x10
    24b8:	dff7f793          	andi	a5,a5,-513
    24bc:	07c2                	slli	a5,a5,0x10
    24be:	83c1                	srli	a5,a5,0x10
    24c0:	80f71023          	sh	a5,-2048(a4)
C:\MRS_DATA\workspace\CH592F_SSD1306\obj/../StdPeriphDriver/CH59x_i2c.c:137
}
    24c4:	8082                	ret

000024c6 <I2C_SendData>:
I2C_SendData():
C:\MRS_DATA\workspace\CH592F_SSD1306\obj/../StdPeriphDriver/CH59x_i2c.c:237
    R16_I2C_DATAR = Data;
    24c6:	400057b7          	lui	a5,0x40005
    24ca:	80a79823          	sh	a0,-2032(a5) # 40004810 <_eusrstack+0x1fffe010>
C:\MRS_DATA\workspace\CH592F_SSD1306\obj/../StdPeriphDriver/CH59x_i2c.c:238
}
    24ce:	8082                	ret

000024d0 <I2C_Send7bitAddress>:
I2C_Send7bitAddress():
C:\MRS_DATA\workspace\CH592F_SSD1306\obj/../StdPeriphDriver/CH59x_i2c.c:269
        Address &= OADDR1_ADD0_Reset;
    24d0:	0fe57793          	andi	a5,a0,254
C:\MRS_DATA\workspace\CH592F_SSD1306\obj/../StdPeriphDriver/CH59x_i2c.c:266
    if(I2C_Direction != I2C_Direction_Transmitter)
    24d4:	c199                	beqz	a1,24da <I2C_Send7bitAddress+0xa>
C:\MRS_DATA\workspace\CH592F_SSD1306\obj/../StdPeriphDriver/CH59x_i2c.c:267
        Address |= OADDR1_ADD0_Set;
    24d6:	00156793          	ori	a5,a0,1
C:\MRS_DATA\workspace\CH592F_SSD1306\obj/../StdPeriphDriver/CH59x_i2c.c:271
    R16_I2C_DATAR = Address;
    24da:	07c2                	slli	a5,a5,0x10
    24dc:	83c1                	srli	a5,a5,0x10
    24de:	40005737          	lui	a4,0x40005
    24e2:	80f71823          	sh	a5,-2032(a4) # 40004810 <_eusrstack+0x1fffe010>
C:\MRS_DATA\workspace\CH592F_SSD1306\obj/../StdPeriphDriver/CH59x_i2c.c:272
}
    24e6:	8082                	ret

000024e8 <I2C_CheckEvent>:
I2C_CheckEvent():
C:\MRS_DATA\workspace\CH592F_SSD1306\obj/../StdPeriphDriver/CH59x_i2c.c:482
{
    uint32_t lastevent = 0;
    uint32_t flag1 = 0, flag2 = 0;
    uint8_t  status = 0;

    flag1 = R16_I2C_STAR1;
    24e8:	400056b7          	lui	a3,0x40005
    24ec:	8146d603          	lhu	a2,-2028(a3) # 40004814 <_eusrstack+0x1fffe014>
C:\MRS_DATA\workspace\CH592F_SSD1306\obj/../StdPeriphDriver/CH59x_i2c.c:483
    flag2 = R16_I2C_STAR2;
    24f0:	8186d703          	lhu	a4,-2024(a3)
C:\MRS_DATA\workspace\CH592F_SSD1306\obj/../StdPeriphDriver/CH59x_i2c.c:484
    flag2 = flag2 << 16;
    24f4:	01071793          	slli	a5,a4,0x10
C:\MRS_DATA\workspace\CH592F_SSD1306\obj/../StdPeriphDriver/CH59x_i2c.c:486

    lastevent = (flag1 | flag2) & FLAG_Mask;
    24f8:	8fd1                	or	a5,a5,a2
C:\MRS_DATA\workspace\CH592F_SSD1306\obj/../StdPeriphDriver/CH59x_i2c.c:488

    if((lastevent & I2C_EVENT) == I2C_EVENT)
    24fa:	8fe9                	and	a5,a5,a0
    24fc:	07a2                	slli	a5,a5,0x8
    24fe:	83a1                	srli	a5,a5,0x8
    2500:	40a78533          	sub	a0,a5,a0
C:\MRS_DATA\workspace\CH592F_SSD1306\obj/../StdPeriphDriver/CH59x_i2c.c:498
    {
        status = 0;
    }

    return status;
}
    2504:	00153513          	seqz	a0,a0
    2508:	8082                	ret

0000250a <PWR_DCDCCfg>:
PWR_DCDCCfg():
C:\MRS_DATA\workspace\CH592F_SSD1306\obj/../StdPeriphDriver/CH59x_pwr.c:25
 * @param   s       - 是否打开DCDC电源
 *
 * @return  none
 */
void PWR_DCDCCfg(FunctionalState s)
{
    250a:	7179                	addi	sp,sp,-48
    250c:	d422                	sw	s0,40(sp)
C:\MRS_DATA\workspace\CH592F_SSD1306\obj/../StdPeriphDriver/CH59x_pwr.c:26
    uint16_t adj = R16_AUX_POWER_ADJ;
    250e:	40001437          	lui	s0,0x40001
    2512:	02245703          	lhu	a4,34(s0) # 40001022 <_eusrstack+0x1fffa822>
C:\MRS_DATA\workspace\CH592F_SSD1306\obj/../StdPeriphDriver/CH59x_pwr.c:27
    uint16_t plan = R16_POWER_PLAN;
    2516:	02045783          	lhu	a5,32(s0)
C:\MRS_DATA\workspace\CH592F_SSD1306\obj/../StdPeriphDriver/CH59x_pwr.c:25
{
    251a:	d226                	sw	s1,36(sp)
    251c:	d04a                	sw	s2,32(sp)
C:\MRS_DATA\workspace\CH592F_SSD1306\obj/../StdPeriphDriver/CH59x_pwr.c:27
    uint16_t plan = R16_POWER_PLAN;
    251e:	01079493          	slli	s1,a5,0x10
C:\MRS_DATA\workspace\CH592F_SSD1306\obj/../StdPeriphDriver/CH59x_pwr.c:26
    uint16_t adj = R16_AUX_POWER_ADJ;
    2522:	01071913          	slli	s2,a4,0x10
C:\MRS_DATA\workspace\CH592F_SSD1306\obj/../StdPeriphDriver/CH59x_pwr.c:25
{
    2526:	d606                	sw	ra,44(sp)
    2528:	ce4e                	sw	s3,28(sp)
C:\MRS_DATA\workspace\CH592F_SSD1306\obj/../StdPeriphDriver/CH59x_pwr.c:26
    uint16_t adj = R16_AUX_POWER_ADJ;
    252a:	01095913          	srli	s2,s2,0x10
C:\MRS_DATA\workspace\CH592F_SSD1306\obj/../StdPeriphDriver/CH59x_pwr.c:27
    uint16_t plan = R16_POWER_PLAN;
    252e:	80c1                	srli	s1,s1,0x10
C:\MRS_DATA\workspace\CH592F_SSD1306\obj/../StdPeriphDriver/CH59x_pwr.c:29

    if(s == DISABLE)
    2530:	ed31                	bnez	a0,258c <PWR_DCDCCfg+0x82>
C:\MRS_DATA\workspace\CH592F_SSD1306\obj/../StdPeriphDriver/CH59x_pwr.c:32
    {
        
        adj &= ~RB_DCDC_CHARGE;
    2532:	f7f97713          	andi	a4,s2,-129
C:\MRS_DATA\workspace\CH592F_SSD1306\obj/../StdPeriphDriver/CH59x_pwr.c:33
        plan &= ~(RB_PWR_DCDC_EN | RB_PWR_DCDC_PRE); // 旁路 DC/DC
    2536:	9ff4f793          	andi	a5,s1,-1537
C:\MRS_DATA\workspace\CH592F_SSD1306\obj/../StdPeriphDriver/CH59x_pwr.c:32
        adj &= ~RB_DCDC_CHARGE;
    253a:	0742                	slli	a4,a4,0x10
C:\MRS_DATA\workspace\CH592F_SSD1306\obj/../StdPeriphDriver/CH59x_pwr.c:33
        plan &= ~(RB_PWR_DCDC_EN | RB_PWR_DCDC_PRE); // 旁路 DC/DC
    253c:	07c2                	slli	a5,a5,0x10
C:\MRS_DATA\workspace\CH592F_SSD1306\obj/../StdPeriphDriver/CH59x_pwr.c:32
        adj &= ~RB_DCDC_CHARGE;
    253e:	8341                	srli	a4,a4,0x10
C:\MRS_DATA\workspace\CH592F_SSD1306\obj/../StdPeriphDriver/CH59x_pwr.c:33
        plan &= ~(RB_PWR_DCDC_EN | RB_PWR_DCDC_PRE); // 旁路 DC/DC
    2540:	83c1                	srli	a5,a5,0x10
__risc_v_disable_irq():
C:\MRS_DATA\workspace\CH592F_SSD1306\RVMSIS/core_riscv.h:130
  __asm volatile ("csrrc %0, 0x800, %1" : \
    2542:	08800693          	li	a3,136
    2546:	8006b6f3          	csrrc	a3,0x800,a3
C:\MRS_DATA\workspace\CH592F_SSD1306\RVMSIS/core_riscv.h:132
  return result & 0x88;
    254a:	0886f693          	andi	a3,a3,136
PWR_DCDCCfg():
C:\MRS_DATA\workspace\CH592F_SSD1306\obj/../StdPeriphDriver/CH59x_pwr.c:34
        sys_safe_access_enable();
    254e:	c436                	sw	a3,8(sp)
    2550:	0001                	nop
    2552:	0001                	nop
    2554:	05700693          	li	a3,87
    2558:	04d40023          	sb	a3,64(s0)
    255c:	fa800693          	li	a3,-88
    2560:	04d40023          	sb	a3,64(s0)
    2564:	0001                	nop
    2566:	0001                	nop
C:\MRS_DATA\workspace\CH592F_SSD1306\obj/../StdPeriphDriver/CH59x_pwr.c:35
        R16_AUX_POWER_ADJ = adj;
    2568:	02e41123          	sh	a4,34(s0)
C:\MRS_DATA\workspace\CH592F_SSD1306\obj/../StdPeriphDriver/CH59x_pwr.c:36
        R16_POWER_PLAN = plan;
    256c:	02f41023          	sh	a5,32(s0)
C:\MRS_DATA\workspace\CH592F_SSD1306\obj/../StdPeriphDriver/CH59x_pwr.c:37
        sys_safe_access_disable();
    2570:	04040023          	sb	zero,64(s0)
    2574:	47a2                	lw	a5,8(sp)
__risc_v_enable_irq():
C:\MRS_DATA\workspace\CH592F_SSD1306\RVMSIS/core_riscv.h:114
  __asm volatile ("csrrs %0, 0x800, %1" : \
    2576:	8007a7f3          	csrrs	a5,0x800,a5
PWR_DCDCCfg():
C:\MRS_DATA\workspace\CH592F_SSD1306\obj/../StdPeriphDriver/CH59x_pwr.c:37
    257a:	0001                	nop
    257c:	0001                	nop
C:\MRS_DATA\workspace\CH592F_SSD1306\obj/../StdPeriphDriver/CH59x_pwr.c:58
        DelayUs(10);
        sys_safe_access_enable();
        R16_POWER_PLAN |= RB_PWR_DCDC_EN;
        sys_safe_access_disable();
    }
}
    257e:	50b2                	lw	ra,44(sp)
    2580:	5422                	lw	s0,40(sp)
    2582:	5492                	lw	s1,36(sp)
    2584:	5902                	lw	s2,32(sp)
    2586:	49f2                	lw	s3,28(sp)
    2588:	6145                	addi	sp,sp,48
    258a:	8082                	ret
C:\MRS_DATA\workspace\CH592F_SSD1306\obj/../StdPeriphDriver/CH59x_pwr.c:42
        FLASH_EEPROM_CMD(CMD_GET_ROM_INFO, ROM_CFG_ADR_HW, HW_Data, 0);
    258c:	0007f5b7          	lui	a1,0x7f
    2590:	4681                	li	a3,0
    2592:	0030                	addi	a2,sp,8
    2594:	05b1                	addi	a1,a1,12
    2596:	4519                	li	a0,6
    2598:	1fffe097          	auipc	ra,0x1fffe
    259c:	e84080e7          	jalr	-380(ra) # 2000041c <FLASH_EEPROM_CMD>
C:\MRS_DATA\workspace\CH592F_SSD1306\obj/../StdPeriphDriver/CH59x_pwr.c:43
        if((HW_Data[0]) & (1 << 13))
    25a0:	47a2                	lw	a5,8(sp)
    25a2:	01279713          	slli	a4,a5,0x12
    25a6:	fc074ce3          	bltz	a4,257e <PWR_DCDCCfg+0x74>
C:\MRS_DATA\workspace\CH592F_SSD1306\obj/../StdPeriphDriver/CH59x_pwr.c:48
        plan |= RB_PWR_DCDC_PRE;
    25aa:	4004e793          	ori	a5,s1,1024
C:\MRS_DATA\workspace\CH592F_SSD1306\obj/../StdPeriphDriver/CH59x_pwr.c:47
        adj |= RB_DCDC_CHARGE;
    25ae:	08096713          	ori	a4,s2,128
__risc_v_disable_irq():
C:\MRS_DATA\workspace\CH592F_SSD1306\RVMSIS/core_riscv.h:130
  __asm volatile ("csrrc %0, 0x800, %1" : \
    25b2:	08800493          	li	s1,136
    25b6:	8004b6f3          	csrrc	a3,0x800,s1
C:\MRS_DATA\workspace\CH592F_SSD1306\RVMSIS/core_riscv.h:132
  return result & 0x88;
    25ba:	0886f693          	andi	a3,a3,136
PWR_DCDCCfg():
C:\MRS_DATA\workspace\CH592F_SSD1306\obj/../StdPeriphDriver/CH59x_pwr.c:49
        sys_safe_access_enable();
    25be:	c036                	sw	a3,0(sp)
    25c0:	0001                	nop
    25c2:	0001                	nop
    25c4:	05700993          	li	s3,87
    25c8:	05340023          	sb	s3,64(s0)
    25cc:	fa800913          	li	s2,-88
    25d0:	05240023          	sb	s2,64(s0)
    25d4:	0001                	nop
    25d6:	0001                	nop
C:\MRS_DATA\workspace\CH592F_SSD1306\obj/../StdPeriphDriver/CH59x_pwr.c:50
        R16_AUX_POWER_ADJ = adj;
    25d8:	02e41123          	sh	a4,34(s0)
C:\MRS_DATA\workspace\CH592F_SSD1306\obj/../StdPeriphDriver/CH59x_pwr.c:51
        R16_POWER_PLAN = plan;
    25dc:	02f41023          	sh	a5,32(s0)
C:\MRS_DATA\workspace\CH592F_SSD1306\obj/../StdPeriphDriver/CH59x_pwr.c:52
        sys_safe_access_disable();
    25e0:	04040023          	sb	zero,64(s0)
    25e4:	4782                	lw	a5,0(sp)
__risc_v_enable_irq():
C:\MRS_DATA\workspace\CH592F_SSD1306\RVMSIS/core_riscv.h:114
  __asm volatile ("csrrs %0, 0x800, %1" : \
    25e6:	8007a7f3          	csrrs	a5,0x800,a5
PWR_DCDCCfg():
C:\MRS_DATA\workspace\CH592F_SSD1306\obj/../StdPeriphDriver/CH59x_pwr.c:52
    25ea:	0001                	nop
    25ec:	0001                	nop
C:\MRS_DATA\workspace\CH592F_SSD1306\obj/../StdPeriphDriver/CH59x_pwr.c:53
        DelayUs(10);
    25ee:	4529                	li	a0,10
    25f0:	1fffe097          	auipc	ra,0x1fffe
    25f4:	d3a080e7          	jalr	-710(ra) # 2000032a <mDelayuS>
__risc_v_disable_irq():
C:\MRS_DATA\workspace\CH592F_SSD1306\RVMSIS/core_riscv.h:130
  __asm volatile ("csrrc %0, 0x800, %1" : \
    25f8:	8004b4f3          	csrrc	s1,0x800,s1
C:\MRS_DATA\workspace\CH592F_SSD1306\RVMSIS/core_riscv.h:132
  return result & 0x88;
    25fc:	0884f493          	andi	s1,s1,136
PWR_DCDCCfg():
C:\MRS_DATA\workspace\CH592F_SSD1306\obj/../StdPeriphDriver/CH59x_pwr.c:54
        sys_safe_access_enable();
    2600:	c226                	sw	s1,4(sp)
    2602:	0001                	nop
    2604:	0001                	nop
    2606:	05340023          	sb	s3,64(s0)
    260a:	05240023          	sb	s2,64(s0)
    260e:	0001                	nop
    2610:	0001                	nop
C:\MRS_DATA\workspace\CH592F_SSD1306\obj/../StdPeriphDriver/CH59x_pwr.c:55
        R16_POWER_PLAN |= RB_PWR_DCDC_EN;
    2612:	02045783          	lhu	a5,32(s0)
    2616:	2007e793          	ori	a5,a5,512
    261a:	02f41023          	sh	a5,32(s0)
C:\MRS_DATA\workspace\CH592F_SSD1306\obj/../StdPeriphDriver/CH59x_pwr.c:56
        sys_safe_access_disable();
    261e:	04040023          	sb	zero,64(s0)
    2622:	4792                	lw	a5,4(sp)
__risc_v_enable_irq():
C:\MRS_DATA\workspace\CH592F_SSD1306\RVMSIS/core_riscv.h:114
  __asm volatile ("csrrs %0, 0x800, %1" : \
    2624:	8007a7f3          	csrrs	a5,0x800,a5
PWR_DCDCCfg():
C:\MRS_DATA\workspace\CH592F_SSD1306\obj/../StdPeriphDriver/CH59x_pwr.c:56
    2628:	0001                	nop
    262a:	0001                	nop
C:\MRS_DATA\workspace\CH592F_SSD1306\obj/../StdPeriphDriver/CH59x_pwr.c:58
}
    262c:	50b2                	lw	ra,44(sp)
    262e:	5422                	lw	s0,40(sp)
    2630:	5492                	lw	s1,36(sp)
    2632:	5902                	lw	s2,32(sp)
    2634:	49f2                	lw	s3,28(sp)
    2636:	6145                	addi	sp,sp,48
    2638:	8082                	ret

0000263a <GetSysClock>:
GetSysClock():
C:\MRS_DATA\workspace\CH592F_SSD1306\obj/../StdPeriphDriver/CH59x_sys.c:83
    rev = R32_CLK_SYS_CFG & 0xff;
    263a:	400017b7          	lui	a5,0x40001
    263e:	4788                	lw	a0,8(a5)
    2640:	0542                	slli	a0,a0,0x10
    2642:	8141                	srli	a0,a0,0x10
C:\MRS_DATA\workspace\CH592F_SSD1306\obj/../StdPeriphDriver/CH59x_sys.c:84
    if((rev & 0x40) == (0 << 6))
    2644:	04057793          	andi	a5,a0,64
    2648:	c39d                	beqz	a5,266e <GetSysClock+0x34>
C:\MRS_DATA\workspace\CH592F_SSD1306\obj/../StdPeriphDriver/CH59x_sys.c:88
    else if((rev & RB_CLK_SYS_MOD) == (1 << 6))
    264a:	0c057793          	andi	a5,a0,192
    264e:	04000713          	li	a4,64
    2652:	00e78663          	beq	a5,a4,265e <GetSysClock+0x24>
C:\MRS_DATA\workspace\CH592F_SSD1306\obj/../StdPeriphDriver/CH59x_sys.c:94
        return (32000);
    2656:	6521                	lui	a0,0x8
    2658:	d0050513          	addi	a0,a0,-768 # 7d00 <_data_lma+0xf08>
C:\MRS_DATA\workspace\CH592F_SSD1306\obj/../StdPeriphDriver/CH59x_sys.c:96
}
    265c:	8082                	ret
C:\MRS_DATA\workspace\CH592F_SSD1306\obj/../StdPeriphDriver/CH59x_sys.c:90
        return (480000000 / (rev & 0x1f));
    265e:	1c9c47b7          	lui	a5,0x1c9c4
    2662:	80078793          	addi	a5,a5,-2048 # 1c9c3800 <_data_lma+0x1c9bca08>
    2666:	897d                	andi	a0,a0,31
    2668:	02a7c533          	div	a0,a5,a0
    266c:	8082                	ret
C:\MRS_DATA\workspace\CH592F_SSD1306\obj/../StdPeriphDriver/CH59x_sys.c:86
        return (32000000 / (rev & 0x1f));
    266e:	01e857b7          	lui	a5,0x1e85
    2672:	80078793          	addi	a5,a5,-2048 # 1e84800 <_data_lma+0x1e7da08>
    2676:	897d                	andi	a0,a0,31
    2678:	02a7c533          	div	a0,a5,a0
    267c:	8082                	ret

0000267e <UART0_DefInit>:
UART0_DefInit():
C:\MRS_DATA\workspace\CH592F_SSD1306\obj/../StdPeriphDriver/CH59x_uart0.c:25
 * @param   none
 *
 * @return  none
 */
void UART0_DefInit(void)
{
    267e:	1141                	addi	sp,sp,-16
    2680:	c606                	sw	ra,12(sp)
UART0_BaudRateCfg():
C:\MRS_DATA\workspace\CH592F_SSD1306\obj/../StdPeriphDriver/CH59x_uart0.c:46
 */
void UART0_BaudRateCfg(uint32_t baudrate)
{
    uint32_t x;

    x = 10 * GetSysClock() / 8 / baudrate;
    2682:	fb9ff0ef          	jal	ra,263a <GetSysClock>
    2686:	00251793          	slli	a5,a0,0x2
    268a:	97aa                	add	a5,a5,a0
    268c:	0786                	slli	a5,a5,0x1
    268e:	000e1537          	lui	a0,0xe1
    2692:	02a7d7b3          	divu	a5,a5,a0
C:\MRS_DATA\workspace\CH592F_SSD1306\obj/../StdPeriphDriver/CH59x_uart0.c:47
    x = (x + 5) / 10;
    2696:	46a9                	li	a3,10
C:\MRS_DATA\workspace\CH592F_SSD1306\obj/../StdPeriphDriver/CH59x_uart0.c:48
    R16_UART0_DL = (uint16_t)x;
    2698:	40003737          	lui	a4,0x40003
C:\MRS_DATA\workspace\CH592F_SSD1306\obj/../StdPeriphDriver/CH59x_uart0.c:47
    x = (x + 5) / 10;
    269c:	0795                	addi	a5,a5,5
    269e:	02d7d7b3          	divu	a5,a5,a3
C:\MRS_DATA\workspace\CH592F_SSD1306\obj/../StdPeriphDriver/CH59x_uart0.c:48
    R16_UART0_DL = (uint16_t)x;
    26a2:	07c2                	slli	a5,a5,0x10
    26a4:	83c1                	srli	a5,a5,0x10
    26a6:	00f71623          	sh	a5,12(a4) # 4000300c <_eusrstack+0x1fffc80c>
UART0_DefInit():
C:\MRS_DATA\workspace\CH592F_SSD1306\obj/../StdPeriphDriver/CH59x_uart0.c:27
    R8_UART0_FCR = (2 << 6) | RB_FCR_TX_FIFO_CLR | RB_FCR_RX_FIFO_CLR | RB_FCR_FIFO_EN; // FIFO打开，触发点4字节
    26aa:	f8700793          	li	a5,-121
    26ae:	00f70123          	sb	a5,2(a4)
C:\MRS_DATA\workspace\CH592F_SSD1306\obj/../StdPeriphDriver/CH59x_uart0.c:28
    R8_UART0_LCR = RB_LCR_WORD_SZ;
    26b2:	478d                	li	a5,3
    26b4:	00f701a3          	sb	a5,3(a4)
C:\MRS_DATA\workspace\CH592F_SSD1306\obj/../StdPeriphDriver/CH59x_uart0.c:29
    R8_UART0_IER = RB_IER_TXD_EN;
    26b8:	04000793          	li	a5,64
    26bc:	00f700a3          	sb	a5,1(a4)
C:\MRS_DATA\workspace\CH592F_SSD1306\obj/../StdPeriphDriver/CH59x_uart0.c:30
    R8_UART0_DIV = 1;
    26c0:	4785                	li	a5,1
    26c2:	00f70723          	sb	a5,14(a4)
C:\MRS_DATA\workspace\CH592F_SSD1306\obj/../StdPeriphDriver/CH59x_uart0.c:31
}
    26c6:	40b2                	lw	ra,12(sp)
    26c8:	0141                	addi	sp,sp,16
    26ca:	8082                	ret

000026cc <cos>:
cos():
    26cc:	1101                	addi	sp,sp,-32
    26ce:	cc22                	sw	s0,24(sp)
    26d0:	80000437          	lui	s0,0x80000
    26d4:	fff44793          	not	a5,s0
    26d8:	3fe92737          	lui	a4,0x3fe92
    26dc:	ce06                	sw	ra,28(sp)
    26de:	8fed                	and	a5,a5,a1
    26e0:	1fb70713          	addi	a4,a4,507 # 3fe921fb <_eusrstack+0x1fe8b9fb>
    26e4:	04f75063          	bge	a4,a5,2724 <cos+0x58>
    26e8:	7ff00737          	lui	a4,0x7ff00
    26ec:	00e7ca63          	blt	a5,a4,2700 <cos+0x34>
    26f0:	86ae                	mv	a3,a1
    26f2:	862a                	mv	a2,a0
    26f4:	041020ef          	jal	ra,4f34 <__subdf3>
    26f8:	40f2                	lw	ra,28(sp)
    26fa:	4462                	lw	s0,24(sp)
    26fc:	6105                	addi	sp,sp,32
    26fe:	8082                	ret
    2700:	860a                	mv	a2,sp
    2702:	20cd                	jal	27e4 <__ieee754_rem_pio2>
    2704:	890d                	andi	a0,a0,3
    2706:	4785                	li	a5,1
    2708:	02f50563          	beq	a0,a5,2732 <cos+0x66>
    270c:	4789                	li	a5,2
    270e:	4622                	lw	a2,8(sp)
    2710:	46b2                	lw	a3,12(sp)
    2712:	02f50d63          	beq	a0,a5,274c <cos+0x80>
    2716:	c51d                	beqz	a0,2744 <cos+0x78>
    2718:	4502                	lw	a0,0(sp)
    271a:	4592                	lw	a1,4(sp)
    271c:	4705                	li	a4,1
    271e:	126010ef          	jal	ra,3844 <__kernel_sin>
    2722:	bfd9                	j	26f8 <cos+0x2c>
    2724:	4601                	li	a2,0
    2726:	4681                	li	a3,0
    2728:	2305                	jal	2c48 <__kernel_cos>
    272a:	40f2                	lw	ra,28(sp)
    272c:	4462                	lw	s0,24(sp)
    272e:	6105                	addi	sp,sp,32
    2730:	8082                	ret
    2732:	4622                	lw	a2,8(sp)
    2734:	46b2                	lw	a3,12(sp)
    2736:	4502                	lw	a0,0(sp)
    2738:	4592                	lw	a1,4(sp)
    273a:	4705                	li	a4,1
    273c:	108010ef          	jal	ra,3844 <__kernel_sin>
    2740:	8da1                	xor	a1,a1,s0
    2742:	bf5d                	j	26f8 <cos+0x2c>
    2744:	4502                	lw	a0,0(sp)
    2746:	4592                	lw	a1,4(sp)
    2748:	2301                	jal	2c48 <__kernel_cos>
    274a:	b77d                	j	26f8 <cos+0x2c>
    274c:	4502                	lw	a0,0(sp)
    274e:	4592                	lw	a1,4(sp)
    2750:	29e5                	jal	2c48 <__kernel_cos>
    2752:	8da1                	xor	a1,a1,s0
    2754:	b755                	j	26f8 <cos+0x2c>

00002756 <sin>:
sin():
    2756:	1101                	addi	sp,sp,-32
    2758:	cc22                	sw	s0,24(sp)
    275a:	80000437          	lui	s0,0x80000
    275e:	fff44793          	not	a5,s0
    2762:	3fe92737          	lui	a4,0x3fe92
    2766:	ce06                	sw	ra,28(sp)
    2768:	8fed                	and	a5,a5,a1
    276a:	1fb70713          	addi	a4,a4,507 # 3fe921fb <_eusrstack+0x1fe8b9fb>
    276e:	02f75f63          	bge	a4,a5,27ac <sin+0x56>
    2772:	7ff00737          	lui	a4,0x7ff00
    2776:	00e7ca63          	blt	a5,a4,278a <sin+0x34>
    277a:	86ae                	mv	a3,a1
    277c:	862a                	mv	a2,a0
    277e:	7b6020ef          	jal	ra,4f34 <__subdf3>
    2782:	40f2                	lw	ra,28(sp)
    2784:	4462                	lw	s0,24(sp)
    2786:	6105                	addi	sp,sp,32
    2788:	8082                	ret
    278a:	860a                	mv	a2,sp
    278c:	28a1                	jal	27e4 <__ieee754_rem_pio2>
    278e:	890d                	andi	a0,a0,3
    2790:	4785                	li	a5,1
    2792:	02f50663          	beq	a0,a5,27be <sin+0x68>
    2796:	4789                	li	a5,2
    2798:	4622                	lw	a2,8(sp)
    279a:	46b2                	lw	a3,12(sp)
    279c:	02f50d63          	beq	a0,a5,27d6 <sin+0x80>
    27a0:	c50d                	beqz	a0,27ca <sin+0x74>
    27a2:	4502                	lw	a0,0(sp)
    27a4:	4592                	lw	a1,4(sp)
    27a6:	214d                	jal	2c48 <__kernel_cos>
    27a8:	8da1                	xor	a1,a1,s0
    27aa:	bfe1                	j	2782 <sin+0x2c>
    27ac:	4701                	li	a4,0
    27ae:	4601                	li	a2,0
    27b0:	4681                	li	a3,0
    27b2:	092010ef          	jal	ra,3844 <__kernel_sin>
    27b6:	40f2                	lw	ra,28(sp)
    27b8:	4462                	lw	s0,24(sp)
    27ba:	6105                	addi	sp,sp,32
    27bc:	8082                	ret
    27be:	4622                	lw	a2,8(sp)
    27c0:	46b2                	lw	a3,12(sp)
    27c2:	4502                	lw	a0,0(sp)
    27c4:	4592                	lw	a1,4(sp)
    27c6:	2149                	jal	2c48 <__kernel_cos>
    27c8:	bf6d                	j	2782 <sin+0x2c>
    27ca:	4502                	lw	a0,0(sp)
    27cc:	4592                	lw	a1,4(sp)
    27ce:	4705                	li	a4,1
    27d0:	074010ef          	jal	ra,3844 <__kernel_sin>
    27d4:	b77d                	j	2782 <sin+0x2c>
    27d6:	4502                	lw	a0,0(sp)
    27d8:	4592                	lw	a1,4(sp)
    27da:	4705                	li	a4,1
    27dc:	068010ef          	jal	ra,3844 <__kernel_sin>
    27e0:	8da1                	xor	a1,a1,s0
    27e2:	b745                	j	2782 <sin+0x2c>

000027e4 <__ieee754_rem_pio2>:
__ieee754_rem_pio2():
    27e4:	7159                	addi	sp,sp,-112
    27e6:	d4a2                	sw	s0,104(sp)
    27e8:	3fe92737          	lui	a4,0x3fe92
    27ec:	00159413          	slli	s0,a1,0x1
    27f0:	d686                	sw	ra,108(sp)
    27f2:	d2a6                	sw	s1,100(sp)
    27f4:	d0ca                	sw	s2,96(sp)
    27f6:	cece                	sw	s3,92(sp)
    27f8:	ccd2                	sw	s4,88(sp)
    27fa:	cad6                	sw	s5,84(sp)
    27fc:	c8da                	sw	s6,80(sp)
    27fe:	c6de                	sw	s7,76(sp)
    2800:	c4e2                	sw	s8,72(sp)
    2802:	c2e6                	sw	s9,68(sp)
    2804:	c0ea                	sw	s10,64(sp)
    2806:	de6e                	sw	s11,60(sp)
    2808:	8005                	srli	s0,s0,0x1
    280a:	1fb70713          	addi	a4,a4,507 # 3fe921fb <_eusrstack+0x1fe8b9fb>
    280e:	14875b63          	bge	a4,s0,2964 <__ieee754_rem_pio2+0x180>
    2812:	4002e737          	lui	a4,0x4002e
    2816:	97b70713          	addi	a4,a4,-1669 # 4002d97b <_eusrstack+0x2002717b>
    281a:	89b2                	mv	s3,a2
    281c:	06874f63          	blt	a4,s0,289a <__ieee754_rem_pio2+0xb6>
    2820:	00004797          	auipc	a5,0x4
    2824:	15878793          	addi	a5,a5,344 # 6978 <original_vertices+0xc8>
    2828:	4390                	lw	a2,0(a5)
    282a:	43d4                	lw	a3,4(a5)
    282c:	3ab05663          	blez	a1,2bd8 <__ieee754_rem_pio2+0x3f4>
    2830:	704020ef          	jal	ra,4f34 <__subdf3>
    2834:	3ff927b7          	lui	a5,0x3ff92
    2838:	1fb78793          	addi	a5,a5,507 # 3ff921fb <_eusrstack+0x1ff8b9fb>
    283c:	8a2a                	mv	s4,a0
    283e:	8aae                	mv	s5,a1
    2840:	14f40863          	beq	s0,a5,2990 <__ieee754_rem_pio2+0x1ac>
    2844:	00004417          	auipc	s0,0x4
    2848:	13c40413          	addi	s0,s0,316 # 6980 <original_vertices+0xd0>
    284c:	4010                	lw	a2,0(s0)
    284e:	4054                	lw	a3,4(s0)
    2850:	4485                	li	s1,1
    2852:	6e2020ef          	jal	ra,4f34 <__subdf3>
    2856:	862a                	mv	a2,a0
    2858:	86ae                	mv	a3,a1
    285a:	00a9a023          	sw	a0,0(s3) # 30000 <_data_lma+0x29208>
    285e:	00b9a223          	sw	a1,4(s3)
    2862:	8552                	mv	a0,s4
    2864:	85d6                	mv	a1,s5
    2866:	6ce020ef          	jal	ra,4f34 <__subdf3>
    286a:	4010                	lw	a2,0(s0)
    286c:	4054                	lw	a3,4(s0)
    286e:	6c6020ef          	jal	ra,4f34 <__subdf3>
    2872:	00a9a423          	sw	a0,8(s3)
    2876:	00b9a623          	sw	a1,12(s3)
    287a:	50b6                	lw	ra,108(sp)
    287c:	5426                	lw	s0,104(sp)
    287e:	8526                	mv	a0,s1
    2880:	5906                	lw	s2,96(sp)
    2882:	5496                	lw	s1,100(sp)
    2884:	49f6                	lw	s3,92(sp)
    2886:	4a66                	lw	s4,88(sp)
    2888:	4ad6                	lw	s5,84(sp)
    288a:	4b46                	lw	s6,80(sp)
    288c:	4bb6                	lw	s7,76(sp)
    288e:	4c26                	lw	s8,72(sp)
    2890:	4c96                	lw	s9,68(sp)
    2892:	4d06                	lw	s10,64(sp)
    2894:	5df2                	lw	s11,60(sp)
    2896:	6165                	addi	sp,sp,112
    2898:	8082                	ret
    289a:	41392737          	lui	a4,0x41392
    289e:	1fb70713          	addi	a4,a4,507 # 413921fb <_eusrstack+0x2138b9fb>
    28a2:	892e                	mv	s2,a1
    28a4:	10875863          	bge	a4,s0,29b4 <__ieee754_rem_pio2+0x1d0>
    28a8:	7ff00737          	lui	a4,0x7ff00
    28ac:	0ce45463          	bge	s0,a4,2974 <__ieee754_rem_pio2+0x190>
    28b0:	41445a13          	srai	s4,s0,0x14
    28b4:	beaa0a13          	addi	s4,s4,-1046
    28b8:	014a1793          	slli	a5,s4,0x14
    28bc:	8c1d                	sub	s0,s0,a5
    28be:	85a2                	mv	a1,s0
    28c0:	84aa                	mv	s1,a0
    28c2:	5b1020ef          	jal	ra,5672 <__fixdfsi>
    28c6:	615020ef          	jal	ra,56da <__floatsidf>
    28ca:	872a                	mv	a4,a0
    28cc:	87ae                	mv	a5,a1
    28ce:	863a                	mv	a2,a4
    28d0:	86be                	mv	a3,a5
    28d2:	8526                	mv	a0,s1
    28d4:	85a2                	mv	a1,s0
    28d6:	cc3a                	sw	a4,24(sp)
    28d8:	ce3e                	sw	a5,28(sp)
    28da:	00004497          	auipc	s1,0x4
    28de:	0d648493          	addi	s1,s1,214 # 69b0 <original_vertices+0x100>
    28e2:	652020ef          	jal	ra,4f34 <__subdf3>
    28e6:	4090                	lw	a2,0(s1)
    28e8:	40d4                	lw	a3,4(s1)
    28ea:	192020ef          	jal	ra,4a7c <__muldf3>
    28ee:	8bae                	mv	s7,a1
    28f0:	8b2a                	mv	s6,a0
    28f2:	581020ef          	jal	ra,5672 <__fixdfsi>
    28f6:	842a                	mv	s0,a0
    28f8:	5e3020ef          	jal	ra,56da <__floatsidf>
    28fc:	872a                	mv	a4,a0
    28fe:	87ae                	mv	a5,a1
    2900:	862a                	mv	a2,a0
    2902:	86ae                	mv	a3,a1
    2904:	855a                	mv	a0,s6
    2906:	85de                	mv	a1,s7
    2908:	d03a                	sw	a4,32(sp)
    290a:	d23e                	sw	a5,36(sp)
    290c:	628020ef          	jal	ra,4f34 <__subdf3>
    2910:	4090                	lw	a2,0(s1)
    2912:	40d4                	lw	a3,4(s1)
    2914:	168020ef          	jal	ra,4a7c <__muldf3>
    2918:	4681                	li	a3,0
    291a:	4601                	li	a2,0
    291c:	d42a                	sw	a0,40(sp)
    291e:	d62e                	sw	a1,44(sp)
    2920:	044020ef          	jal	ra,4964 <__eqdf2>
    2924:	008036b3          	snez	a3,s0
    2928:	0685                	addi	a3,a3,1
    292a:	22051763          	bnez	a0,2b58 <__ieee754_rem_pio2+0x374>
    292e:	00004797          	auipc	a5,0x4
    2932:	10a78793          	addi	a5,a5,266 # 6a38 <two_over_pi>
    2936:	4709                	li	a4,2
    2938:	8652                	mv	a2,s4
    293a:	85ce                	mv	a1,s3
    293c:	0828                	addi	a0,sp,24
    293e:	23c9                	jal	2f00 <__kernel_rem_pio2>
    2940:	84aa                	mv	s1,a0
    2942:	f2095ce3          	bgez	s2,287a <__ieee754_rem_pio2+0x96>
    2946:	0049a703          	lw	a4,4(s3)
    294a:	00c9a783          	lw	a5,12(s3)
    294e:	800006b7          	lui	a3,0x80000
    2952:	8f35                	xor	a4,a4,a3
    2954:	8fb5                	xor	a5,a5,a3
    2956:	00e9a223          	sw	a4,4(s3)
    295a:	00f9a623          	sw	a5,12(s3)
    295e:	40a004b3          	neg	s1,a0
    2962:	bf21                	j	287a <__ieee754_rem_pio2+0x96>
    2964:	c208                	sw	a0,0(a2)
    2966:	c24c                	sw	a1,4(a2)
    2968:	00062423          	sw	zero,8(a2)
    296c:	00062623          	sw	zero,12(a2)
    2970:	4481                	li	s1,0
    2972:	b721                	j	287a <__ieee754_rem_pio2+0x96>
    2974:	862a                	mv	a2,a0
    2976:	86ae                	mv	a3,a1
    2978:	5bc020ef          	jal	ra,4f34 <__subdf3>
    297c:	00a9a423          	sw	a0,8(s3)
    2980:	00b9a623          	sw	a1,12(s3)
    2984:	00a9a023          	sw	a0,0(s3)
    2988:	00b9a223          	sw	a1,4(s3)
    298c:	4481                	li	s1,0
    298e:	b5f5                	j	287a <__ieee754_rem_pio2+0x96>
    2990:	00004797          	auipc	a5,0x4
    2994:	ff878793          	addi	a5,a5,-8 # 6988 <original_vertices+0xd8>
    2998:	4390                	lw	a2,0(a5)
    299a:	43d4                	lw	a3,4(a5)
    299c:	00004417          	auipc	s0,0x4
    29a0:	ff440413          	addi	s0,s0,-12 # 6990 <original_vertices+0xe0>
    29a4:	4485                	li	s1,1
    29a6:	58e020ef          	jal	ra,4f34 <__subdf3>
    29aa:	8a2a                	mv	s4,a0
    29ac:	8aae                	mv	s5,a1
    29ae:	4010                	lw	a2,0(s0)
    29b0:	4054                	lw	a3,4(s0)
    29b2:	b545                	j	2852 <__ieee754_rem_pio2+0x6e>
    29b4:	022010ef          	jal	ra,39d6 <fabs>
    29b8:	00004797          	auipc	a5,0x4
    29bc:	fe078793          	addi	a5,a5,-32 # 6998 <original_vertices+0xe8>
    29c0:	4390                	lw	a2,0(a5)
    29c2:	43d4                	lw	a3,4(a5)
    29c4:	8a2a                	mv	s4,a0
    29c6:	8aae                	mv	s5,a1
    29c8:	0b4020ef          	jal	ra,4a7c <__muldf3>
    29cc:	00004797          	auipc	a5,0x4
    29d0:	f7c78793          	addi	a5,a5,-132 # 6948 <original_vertices+0x98>
    29d4:	4390                	lw	a2,0(a5)
    29d6:	43d4                	lw	a3,4(a5)
    29d8:	2a8010ef          	jal	ra,3c80 <__adddf3>
    29dc:	497020ef          	jal	ra,5672 <__fixdfsi>
    29e0:	84aa                	mv	s1,a0
    29e2:	4f9020ef          	jal	ra,56da <__floatsidf>
    29e6:	00004797          	auipc	a5,0x4
    29ea:	f9278793          	addi	a5,a5,-110 # 6978 <original_vertices+0xc8>
    29ee:	4390                	lw	a2,0(a5)
    29f0:	43d4                	lw	a3,4(a5)
    29f2:	8b2a                	mv	s6,a0
    29f4:	8bae                	mv	s7,a1
    29f6:	086020ef          	jal	ra,4a7c <__muldf3>
    29fa:	862a                	mv	a2,a0
    29fc:	86ae                	mv	a3,a1
    29fe:	8552                	mv	a0,s4
    2a00:	85d6                	mv	a1,s5
    2a02:	532020ef          	jal	ra,4f34 <__subdf3>
    2a06:	00004797          	auipc	a5,0x4
    2a0a:	f7a78793          	addi	a5,a5,-134 # 6980 <original_vertices+0xd0>
    2a0e:	4390                	lw	a2,0(a5)
    2a10:	43d4                	lw	a3,4(a5)
    2a12:	8d2a                	mv	s10,a0
    2a14:	8cae                	mv	s9,a1
    2a16:	855a                	mv	a0,s6
    2a18:	85de                	mv	a1,s7
    2a1a:	062020ef          	jal	ra,4a7c <__muldf3>
    2a1e:	8a2a                	mv	s4,a0
    2a20:	8aae                	mv	s5,a1
    2a22:	47fd                	li	a5,31
    2a24:	856a                	mv	a0,s10
    2a26:	85e6                	mv	a1,s9
    2a28:	8652                	mv	a2,s4
    2a2a:	86d6                	mv	a3,s5
    2a2c:	0297c763          	blt	a5,s1,2a5a <__ieee754_rem_pio2+0x276>
    2a30:	504020ef          	jal	ra,4f34 <__subdf3>
    2a34:	fff48793          	addi	a5,s1,-1
    2a38:	00279713          	slli	a4,a5,0x2
    2a3c:	00004797          	auipc	a5,0x4
    2a40:	f7c78793          	addi	a5,a5,-132 # 69b8 <npio2_hw>
    2a44:	97ba                	add	a5,a5,a4
    2a46:	439c                	lw	a5,0(a5)
    2a48:	8daa                	mv	s11,a0
    2a4a:	8c2e                	mv	s8,a1
    2a4c:	00878b63          	beq	a5,s0,2a62 <__ieee754_rem_pio2+0x27e>
    2a50:	00a9a023          	sw	a0,0(s3)
    2a54:	00b9a223          	sw	a1,4(s3)
    2a58:	a025                	j	2a80 <__ieee754_rem_pio2+0x29c>
    2a5a:	4da020ef          	jal	ra,4f34 <__subdf3>
    2a5e:	8daa                	mv	s11,a0
    2a60:	8c2e                	mv	s8,a1
    2a62:	014c5793          	srli	a5,s8,0x14
    2a66:	41445813          	srai	a6,s0,0x14
    2a6a:	7ff7f793          	andi	a5,a5,2047
    2a6e:	40f807b3          	sub	a5,a6,a5
    2a72:	46c1                	li	a3,16
    2a74:	04f6c663          	blt	a3,a5,2ac0 <__ieee754_rem_pio2+0x2dc>
    2a78:	01b9a023          	sw	s11,0(s3)
    2a7c:	0189a223          	sw	s8,4(s3)
    2a80:	866e                	mv	a2,s11
    2a82:	86e2                	mv	a3,s8
    2a84:	856a                	mv	a0,s10
    2a86:	85e6                	mv	a1,s9
    2a88:	4ac020ef          	jal	ra,4f34 <__subdf3>
    2a8c:	8652                	mv	a2,s4
    2a8e:	86d6                	mv	a3,s5
    2a90:	4a4020ef          	jal	ra,4f34 <__subdf3>
    2a94:	00a9a423          	sw	a0,8(s3)
    2a98:	00b9a623          	sw	a1,12(s3)
    2a9c:	dc095fe3          	bgez	s2,287a <__ieee754_rem_pio2+0x96>
    2aa0:	800007b7          	lui	a5,0x80000
    2aa4:	0187cc33          	xor	s8,a5,s8
    2aa8:	8dbd                	xor	a1,a1,a5
    2aaa:	01b9a023          	sw	s11,0(s3)
    2aae:	0189a223          	sw	s8,4(s3)
    2ab2:	00a9a423          	sw	a0,8(s3)
    2ab6:	00b9a623          	sw	a1,12(s3)
    2aba:	409004b3          	neg	s1,s1
    2abe:	bb75                	j	287a <__ieee754_rem_pio2+0x96>
    2ac0:	00004797          	auipc	a5,0x4
    2ac4:	ec878793          	addi	a5,a5,-312 # 6988 <original_vertices+0xd8>
    2ac8:	4390                	lw	a2,0(a5)
    2aca:	43d4                	lw	a3,4(a5)
    2acc:	855a                	mv	a0,s6
    2ace:	85de                	mv	a1,s7
    2ad0:	c442                	sw	a6,8(sp)
    2ad2:	7ab010ef          	jal	ra,4a7c <__muldf3>
    2ad6:	8a2a                	mv	s4,a0
    2ad8:	8aae                	mv	s5,a1
    2ada:	862a                	mv	a2,a0
    2adc:	86ae                	mv	a3,a1
    2ade:	856a                	mv	a0,s10
    2ae0:	85e6                	mv	a1,s9
    2ae2:	452020ef          	jal	ra,4f34 <__subdf3>
    2ae6:	8c2e                	mv	s8,a1
    2ae8:	862a                	mv	a2,a0
    2aea:	86ae                	mv	a3,a1
    2aec:	842a                	mv	s0,a0
    2aee:	c62e                	sw	a1,12(sp)
    2af0:	856a                	mv	a0,s10
    2af2:	85e6                	mv	a1,s9
    2af4:	440020ef          	jal	ra,4f34 <__subdf3>
    2af8:	8652                	mv	a2,s4
    2afa:	86d6                	mv	a3,s5
    2afc:	438020ef          	jal	ra,4f34 <__subdf3>
    2b00:	00004797          	auipc	a5,0x4
    2b04:	e9078793          	addi	a5,a5,-368 # 6990 <original_vertices+0xe0>
    2b08:	4390                	lw	a2,0(a5)
    2b0a:	43d4                	lw	a3,4(a5)
    2b0c:	8a2a                	mv	s4,a0
    2b0e:	8aae                	mv	s5,a1
    2b10:	855a                	mv	a0,s6
    2b12:	85de                	mv	a1,s7
    2b14:	769010ef          	jal	ra,4a7c <__muldf3>
    2b18:	8652                	mv	a2,s4
    2b1a:	86d6                	mv	a3,s5
    2b1c:	418020ef          	jal	ra,4f34 <__subdf3>
    2b20:	862a                	mv	a2,a0
    2b22:	86ae                	mv	a3,a1
    2b24:	8a2a                	mv	s4,a0
    2b26:	8aae                	mv	s5,a1
    2b28:	8522                	mv	a0,s0
    2b2a:	85e2                	mv	a1,s8
    2b2c:	408020ef          	jal	ra,4f34 <__subdf3>
    2b30:	4822                	lw	a6,8(sp)
    2b32:	0145d793          	srli	a5,a1,0x14
    2b36:	7ff7f793          	andi	a5,a5,2047
    2b3a:	40f80833          	sub	a6,a6,a5
    2b3e:	03100793          	li	a5,49
    2b42:	8ce2                	mv	s9,s8
    2b44:	8daa                	mv	s11,a0
    2b46:	8c2e                	mv	s8,a1
    2b48:	0107ca63          	blt	a5,a6,2b5c <__ieee754_rem_pio2+0x378>
    2b4c:	00a9a023          	sw	a0,0(s3)
    2b50:	00b9a223          	sw	a1,4(s3)
    2b54:	8d22                	mv	s10,s0
    2b56:	b72d                	j	2a80 <__ieee754_rem_pio2+0x29c>
    2b58:	468d                	li	a3,3
    2b5a:	bbd1                	j	292e <__ieee754_rem_pio2+0x14a>
    2b5c:	00004797          	auipc	a5,0x4
    2b60:	e4478793          	addi	a5,a5,-444 # 69a0 <original_vertices+0xf0>
    2b64:	4390                	lw	a2,0(a5)
    2b66:	43d4                	lw	a3,4(a5)
    2b68:	855a                	mv	a0,s6
    2b6a:	85de                	mv	a1,s7
    2b6c:	711010ef          	jal	ra,4a7c <__muldf3>
    2b70:	4c32                	lw	s8,12(sp)
    2b72:	8a2a                	mv	s4,a0
    2b74:	8aae                	mv	s5,a1
    2b76:	862a                	mv	a2,a0
    2b78:	86ae                	mv	a3,a1
    2b7a:	8522                	mv	a0,s0
    2b7c:	85e2                	mv	a1,s8
    2b7e:	3b6020ef          	jal	ra,4f34 <__subdf3>
    2b82:	862a                	mv	a2,a0
    2b84:	86ae                	mv	a3,a1
    2b86:	8d2a                	mv	s10,a0
    2b88:	8cae                	mv	s9,a1
    2b8a:	8522                	mv	a0,s0
    2b8c:	85e2                	mv	a1,s8
    2b8e:	3a6020ef          	jal	ra,4f34 <__subdf3>
    2b92:	8652                	mv	a2,s4
    2b94:	86d6                	mv	a3,s5
    2b96:	39e020ef          	jal	ra,4f34 <__subdf3>
    2b9a:	00004797          	auipc	a5,0x4
    2b9e:	e0e78793          	addi	a5,a5,-498 # 69a8 <original_vertices+0xf8>
    2ba2:	4390                	lw	a2,0(a5)
    2ba4:	43d4                	lw	a3,4(a5)
    2ba6:	8a2a                	mv	s4,a0
    2ba8:	8aae                	mv	s5,a1
    2baa:	855a                	mv	a0,s6
    2bac:	85de                	mv	a1,s7
    2bae:	6cf010ef          	jal	ra,4a7c <__muldf3>
    2bb2:	8652                	mv	a2,s4
    2bb4:	86d6                	mv	a3,s5
    2bb6:	37e020ef          	jal	ra,4f34 <__subdf3>
    2bba:	862a                	mv	a2,a0
    2bbc:	86ae                	mv	a3,a1
    2bbe:	8a2a                	mv	s4,a0
    2bc0:	8aae                	mv	s5,a1
    2bc2:	856a                	mv	a0,s10
    2bc4:	85e6                	mv	a1,s9
    2bc6:	36e020ef          	jal	ra,4f34 <__subdf3>
    2bca:	8daa                	mv	s11,a0
    2bcc:	8c2e                	mv	s8,a1
    2bce:	00a9a023          	sw	a0,0(s3)
    2bd2:	00b9a223          	sw	a1,4(s3)
    2bd6:	b56d                	j	2a80 <__ieee754_rem_pio2+0x29c>
    2bd8:	0a8010ef          	jal	ra,3c80 <__adddf3>
    2bdc:	3ff927b7          	lui	a5,0x3ff92
    2be0:	1fb78793          	addi	a5,a5,507 # 3ff921fb <_eusrstack+0x1ff8b9fb>
    2be4:	8a2a                	mv	s4,a0
    2be6:	8aae                	mv	s5,a1
    2be8:	02f40e63          	beq	s0,a5,2c24 <__ieee754_rem_pio2+0x440>
    2bec:	00004417          	auipc	s0,0x4
    2bf0:	d9440413          	addi	s0,s0,-620 # 6980 <original_vertices+0xd0>
    2bf4:	4010                	lw	a2,0(s0)
    2bf6:	4054                	lw	a3,4(s0)
    2bf8:	54fd                	li	s1,-1
    2bfa:	086010ef          	jal	ra,3c80 <__adddf3>
    2bfe:	862a                	mv	a2,a0
    2c00:	86ae                	mv	a3,a1
    2c02:	00a9a023          	sw	a0,0(s3)
    2c06:	00b9a223          	sw	a1,4(s3)
    2c0a:	8552                	mv	a0,s4
    2c0c:	85d6                	mv	a1,s5
    2c0e:	326020ef          	jal	ra,4f34 <__subdf3>
    2c12:	4010                	lw	a2,0(s0)
    2c14:	4054                	lw	a3,4(s0)
    2c16:	06a010ef          	jal	ra,3c80 <__adddf3>
    2c1a:	00a9a423          	sw	a0,8(s3)
    2c1e:	00b9a623          	sw	a1,12(s3)
    2c22:	b9a1                	j	287a <__ieee754_rem_pio2+0x96>
    2c24:	00004797          	auipc	a5,0x4
    2c28:	d6478793          	addi	a5,a5,-668 # 6988 <original_vertices+0xd8>
    2c2c:	4390                	lw	a2,0(a5)
    2c2e:	43d4                	lw	a3,4(a5)
    2c30:	00004417          	auipc	s0,0x4
    2c34:	d6040413          	addi	s0,s0,-672 # 6990 <original_vertices+0xe0>
    2c38:	54fd                	li	s1,-1
    2c3a:	046010ef          	jal	ra,3c80 <__adddf3>
    2c3e:	8a2a                	mv	s4,a0
    2c40:	8aae                	mv	s5,a1
    2c42:	4010                	lw	a2,0(s0)
    2c44:	4054                	lw	a3,4(s0)
    2c46:	bf55                	j	2bfa <__ieee754_rem_pio2+0x416>

00002c48 <__kernel_cos>:
__kernel_cos():
    2c48:	7139                	addi	sp,sp,-64
    2c4a:	d05a                	sw	s6,32(sp)
    2c4c:	00159b13          	slli	s6,a1,0x1
    2c50:	d84a                	sw	s2,48(sp)
    2c52:	d64e                	sw	s3,44(sp)
    2c54:	cc62                	sw	s8,24(sp)
    2c56:	ca66                	sw	s9,20(sp)
    2c58:	de06                	sw	ra,60(sp)
    2c5a:	dc22                	sw	s0,56(sp)
    2c5c:	da26                	sw	s1,52(sp)
    2c5e:	d452                	sw	s4,40(sp)
    2c60:	d256                	sw	s5,36(sp)
    2c62:	ce5e                	sw	s7,28(sp)
    2c64:	c86a                	sw	s10,16(sp)
    2c66:	c66e                	sw	s11,12(sp)
    2c68:	001b5b13          	srli	s6,s6,0x1
    2c6c:	3e4007b7          	lui	a5,0x3e400
    2c70:	8c2e                	mv	s8,a1
    2c72:	8caa                	mv	s9,a0
    2c74:	8932                	mv	s2,a2
    2c76:	89b6                	mv	s3,a3
    2c78:	10fb5563          	bge	s6,a5,2d82 <__kernel_cos+0x13a>
    2c7c:	1f7020ef          	jal	ra,5672 <__fixdfsi>
    2c80:	26050963          	beqz	a0,2ef2 <__kernel_cos+0x2aa>
    2c84:	8666                	mv	a2,s9
    2c86:	86e2                	mv	a3,s8
    2c88:	8566                	mv	a0,s9
    2c8a:	85e2                	mv	a1,s8
    2c8c:	5f1010ef          	jal	ra,4a7c <__muldf3>
    2c90:	00004797          	auipc	a5,0x4
    2c94:	ec078793          	addi	a5,a5,-320 # 6b50 <two_over_pi+0x118>
    2c98:	4390                	lw	a2,0(a5)
    2c9a:	43d4                	lw	a3,4(a5)
    2c9c:	842a                	mv	s0,a0
    2c9e:	84ae                	mv	s1,a1
    2ca0:	5dd010ef          	jal	ra,4a7c <__muldf3>
    2ca4:	00004797          	auipc	a5,0x4
    2ca8:	eb478793          	addi	a5,a5,-332 # 6b58 <two_over_pi+0x120>
    2cac:	4390                	lw	a2,0(a5)
    2cae:	43d4                	lw	a3,4(a5)
    2cb0:	7d1000ef          	jal	ra,3c80 <__adddf3>
    2cb4:	8622                	mv	a2,s0
    2cb6:	86a6                	mv	a3,s1
    2cb8:	5c5010ef          	jal	ra,4a7c <__muldf3>
    2cbc:	00004797          	auipc	a5,0x4
    2cc0:	ea478793          	addi	a5,a5,-348 # 6b60 <two_over_pi+0x128>
    2cc4:	4390                	lw	a2,0(a5)
    2cc6:	43d4                	lw	a3,4(a5)
    2cc8:	26c020ef          	jal	ra,4f34 <__subdf3>
    2ccc:	8622                	mv	a2,s0
    2cce:	86a6                	mv	a3,s1
    2cd0:	5ad010ef          	jal	ra,4a7c <__muldf3>
    2cd4:	00004797          	auipc	a5,0x4
    2cd8:	e9478793          	addi	a5,a5,-364 # 6b68 <two_over_pi+0x130>
    2cdc:	4390                	lw	a2,0(a5)
    2cde:	43d4                	lw	a3,4(a5)
    2ce0:	7a1000ef          	jal	ra,3c80 <__adddf3>
    2ce4:	8622                	mv	a2,s0
    2ce6:	86a6                	mv	a3,s1
    2ce8:	595010ef          	jal	ra,4a7c <__muldf3>
    2cec:	00004797          	auipc	a5,0x4
    2cf0:	e8478793          	addi	a5,a5,-380 # 6b70 <two_over_pi+0x138>
    2cf4:	4390                	lw	a2,0(a5)
    2cf6:	43d4                	lw	a3,4(a5)
    2cf8:	23c020ef          	jal	ra,4f34 <__subdf3>
    2cfc:	8622                	mv	a2,s0
    2cfe:	86a6                	mv	a3,s1
    2d00:	57d010ef          	jal	ra,4a7c <__muldf3>
    2d04:	00004797          	auipc	a5,0x4
    2d08:	e7478793          	addi	a5,a5,-396 # 6b78 <two_over_pi+0x140>
    2d0c:	4390                	lw	a2,0(a5)
    2d0e:	43d4                	lw	a3,4(a5)
    2d10:	771000ef          	jal	ra,3c80 <__adddf3>
    2d14:	8622                	mv	a2,s0
    2d16:	86a6                	mv	a3,s1
    2d18:	565010ef          	jal	ra,4a7c <__muldf3>
    2d1c:	8a2a                	mv	s4,a0
    2d1e:	8aae                	mv	s5,a1
    2d20:	00004797          	auipc	a5,0x4
    2d24:	c2878793          	addi	a5,a5,-984 # 6948 <original_vertices+0x98>
    2d28:	4390                	lw	a2,0(a5)
    2d2a:	43d4                	lw	a3,4(a5)
    2d2c:	8522                	mv	a0,s0
    2d2e:	85a6                	mv	a1,s1
    2d30:	54d010ef          	jal	ra,4a7c <__muldf3>
    2d34:	8b2a                	mv	s6,a0
    2d36:	8bae                	mv	s7,a1
    2d38:	8652                	mv	a2,s4
    2d3a:	86d6                	mv	a3,s5
    2d3c:	8522                	mv	a0,s0
    2d3e:	85a6                	mv	a1,s1
    2d40:	53d010ef          	jal	ra,4a7c <__muldf3>
    2d44:	842a                	mv	s0,a0
    2d46:	84ae                	mv	s1,a1
    2d48:	864a                	mv	a2,s2
    2d4a:	86ce                	mv	a3,s3
    2d4c:	8566                	mv	a0,s9
    2d4e:	85e2                	mv	a1,s8
    2d50:	52d010ef          	jal	ra,4a7c <__muldf3>
    2d54:	862a                	mv	a2,a0
    2d56:	86ae                	mv	a3,a1
    2d58:	8522                	mv	a0,s0
    2d5a:	85a6                	mv	a1,s1
    2d5c:	1d8020ef          	jal	ra,4f34 <__subdf3>
    2d60:	862a                	mv	a2,a0
    2d62:	86ae                	mv	a3,a1
    2d64:	855a                	mv	a0,s6
    2d66:	85de                	mv	a1,s7
    2d68:	1cc020ef          	jal	ra,4f34 <__subdf3>
    2d6c:	00004797          	auipc	a5,0x4
    2d70:	ab478793          	addi	a5,a5,-1356 # 6820 <_sbrk+0x2a>
    2d74:	862a                	mv	a2,a0
    2d76:	86ae                	mv	a3,a1
    2d78:	4388                	lw	a0,0(a5)
    2d7a:	43cc                	lw	a1,4(a5)
    2d7c:	1b8020ef          	jal	ra,4f34 <__subdf3>
    2d80:	aa0d                	j	2eb2 <__kernel_cos+0x26a>
    2d82:	862a                	mv	a2,a0
    2d84:	86ae                	mv	a3,a1
    2d86:	4f7010ef          	jal	ra,4a7c <__muldf3>
    2d8a:	00004797          	auipc	a5,0x4
    2d8e:	dc678793          	addi	a5,a5,-570 # 6b50 <two_over_pi+0x118>
    2d92:	4390                	lw	a2,0(a5)
    2d94:	43d4                	lw	a3,4(a5)
    2d96:	842a                	mv	s0,a0
    2d98:	84ae                	mv	s1,a1
    2d9a:	4e3010ef          	jal	ra,4a7c <__muldf3>
    2d9e:	00004797          	auipc	a5,0x4
    2da2:	dba78793          	addi	a5,a5,-582 # 6b58 <two_over_pi+0x120>
    2da6:	4390                	lw	a2,0(a5)
    2da8:	43d4                	lw	a3,4(a5)
    2daa:	6d7000ef          	jal	ra,3c80 <__adddf3>
    2dae:	8622                	mv	a2,s0
    2db0:	86a6                	mv	a3,s1
    2db2:	4cb010ef          	jal	ra,4a7c <__muldf3>
    2db6:	00004797          	auipc	a5,0x4
    2dba:	daa78793          	addi	a5,a5,-598 # 6b60 <two_over_pi+0x128>
    2dbe:	4390                	lw	a2,0(a5)
    2dc0:	43d4                	lw	a3,4(a5)
    2dc2:	172020ef          	jal	ra,4f34 <__subdf3>
    2dc6:	8622                	mv	a2,s0
    2dc8:	86a6                	mv	a3,s1
    2dca:	4b3010ef          	jal	ra,4a7c <__muldf3>
    2dce:	00004797          	auipc	a5,0x4
    2dd2:	d9a78793          	addi	a5,a5,-614 # 6b68 <two_over_pi+0x130>
    2dd6:	4390                	lw	a2,0(a5)
    2dd8:	43d4                	lw	a3,4(a5)
    2dda:	6a7000ef          	jal	ra,3c80 <__adddf3>
    2dde:	8622                	mv	a2,s0
    2de0:	86a6                	mv	a3,s1
    2de2:	49b010ef          	jal	ra,4a7c <__muldf3>
    2de6:	00004797          	auipc	a5,0x4
    2dea:	d8a78793          	addi	a5,a5,-630 # 6b70 <two_over_pi+0x138>
    2dee:	4390                	lw	a2,0(a5)
    2df0:	43d4                	lw	a3,4(a5)
    2df2:	142020ef          	jal	ra,4f34 <__subdf3>
    2df6:	8622                	mv	a2,s0
    2df8:	86a6                	mv	a3,s1
    2dfa:	483010ef          	jal	ra,4a7c <__muldf3>
    2dfe:	00004797          	auipc	a5,0x4
    2e02:	d7a78793          	addi	a5,a5,-646 # 6b78 <two_over_pi+0x140>
    2e06:	4390                	lw	a2,0(a5)
    2e08:	43d4                	lw	a3,4(a5)
    2e0a:	677000ef          	jal	ra,3c80 <__adddf3>
    2e0e:	8622                	mv	a2,s0
    2e10:	86a6                	mv	a3,s1
    2e12:	46b010ef          	jal	ra,4a7c <__muldf3>
    2e16:	3fd337b7          	lui	a5,0x3fd33
    2e1a:	33278793          	addi	a5,a5,818 # 3fd33332 <_eusrstack+0x1fd2cb32>
    2e1e:	8a2a                	mv	s4,a0
    2e20:	8aae                	mv	s5,a1
    2e22:	ef67dfe3          	bge	a5,s6,2d20 <__kernel_cos+0xd8>
    2e26:	3fe907b7          	lui	a5,0x3fe90
    2e2a:	0b67c363          	blt	a5,s6,2ed0 <__kernel_cos+0x288>
    2e2e:	00004717          	auipc	a4,0x4
    2e32:	9f270713          	addi	a4,a4,-1550 # 6820 <_sbrk+0x2a>
    2e36:	ffe007b7          	lui	a5,0xffe00
    2e3a:	4308                	lw	a0,0(a4)
    2e3c:	434c                	lw	a1,4(a4)
    2e3e:	9b3e                	add	s6,s6,a5
    2e40:	4781                	li	a5,0
    2e42:	86da                	mv	a3,s6
    2e44:	863e                	mv	a2,a5
    2e46:	8d3e                	mv	s10,a5
    2e48:	0ec020ef          	jal	ra,4f34 <__subdf3>
    2e4c:	8dda                	mv	s11,s6
    2e4e:	8bae                	mv	s7,a1
    2e50:	8b2a                	mv	s6,a0
    2e52:	00004797          	auipc	a5,0x4
    2e56:	af678793          	addi	a5,a5,-1290 # 6948 <original_vertices+0x98>
    2e5a:	4390                	lw	a2,0(a5)
    2e5c:	43d4                	lw	a3,4(a5)
    2e5e:	8522                	mv	a0,s0
    2e60:	85a6                	mv	a1,s1
    2e62:	41b010ef          	jal	ra,4a7c <__muldf3>
    2e66:	866a                	mv	a2,s10
    2e68:	86ee                	mv	a3,s11
    2e6a:	0ca020ef          	jal	ra,4f34 <__subdf3>
    2e6e:	8d2a                	mv	s10,a0
    2e70:	8dae                	mv	s11,a1
    2e72:	8652                	mv	a2,s4
    2e74:	86d6                	mv	a3,s5
    2e76:	8522                	mv	a0,s0
    2e78:	85a6                	mv	a1,s1
    2e7a:	403010ef          	jal	ra,4a7c <__muldf3>
    2e7e:	842a                	mv	s0,a0
    2e80:	84ae                	mv	s1,a1
    2e82:	864a                	mv	a2,s2
    2e84:	86ce                	mv	a3,s3
    2e86:	8566                	mv	a0,s9
    2e88:	85e2                	mv	a1,s8
    2e8a:	3f3010ef          	jal	ra,4a7c <__muldf3>
    2e8e:	862a                	mv	a2,a0
    2e90:	86ae                	mv	a3,a1
    2e92:	8522                	mv	a0,s0
    2e94:	85a6                	mv	a1,s1
    2e96:	09e020ef          	jal	ra,4f34 <__subdf3>
    2e9a:	862a                	mv	a2,a0
    2e9c:	86ae                	mv	a3,a1
    2e9e:	856a                	mv	a0,s10
    2ea0:	85ee                	mv	a1,s11
    2ea2:	092020ef          	jal	ra,4f34 <__subdf3>
    2ea6:	862a                	mv	a2,a0
    2ea8:	86ae                	mv	a3,a1
    2eaa:	855a                	mv	a0,s6
    2eac:	85de                	mv	a1,s7
    2eae:	086020ef          	jal	ra,4f34 <__subdf3>
    2eb2:	50f2                	lw	ra,60(sp)
    2eb4:	5462                	lw	s0,56(sp)
    2eb6:	54d2                	lw	s1,52(sp)
    2eb8:	5942                	lw	s2,48(sp)
    2eba:	59b2                	lw	s3,44(sp)
    2ebc:	5a22                	lw	s4,40(sp)
    2ebe:	5a92                	lw	s5,36(sp)
    2ec0:	5b02                	lw	s6,32(sp)
    2ec2:	4bf2                	lw	s7,28(sp)
    2ec4:	4c62                	lw	s8,24(sp)
    2ec6:	4cd2                	lw	s9,20(sp)
    2ec8:	4d42                	lw	s10,16(sp)
    2eca:	4db2                	lw	s11,12(sp)
    2ecc:	6121                	addi	sp,sp,64
    2ece:	8082                	ret
    2ed0:	00004797          	auipc	a5,0x4
    2ed4:	c7078793          	addi	a5,a5,-912 # 6b40 <two_over_pi+0x108>
    2ed8:	0007ab03          	lw	s6,0(a5)
    2edc:	0047ab83          	lw	s7,4(a5)
    2ee0:	00004797          	auipc	a5,0x4
    2ee4:	c6878793          	addi	a5,a5,-920 # 6b48 <two_over_pi+0x110>
    2ee8:	0007ad03          	lw	s10,0(a5)
    2eec:	0047ad83          	lw	s11,4(a5)
    2ef0:	b78d                	j	2e52 <__kernel_cos+0x20a>
    2ef2:	00004797          	auipc	a5,0x4
    2ef6:	92e78793          	addi	a5,a5,-1746 # 6820 <_sbrk+0x2a>
    2efa:	4388                	lw	a0,0(a5)
    2efc:	43cc                	lw	a1,4(a5)
    2efe:	bf55                	j	2eb2 <__kernel_cos+0x26a>

00002f00 <__kernel_rem_pio2>:
__kernel_rem_pio2():
    2f00:	d5010113          	addi	sp,sp,-688
    2f04:	29312e23          	sw	s3,668(sp)
    2f08:	89b6                	mv	s3,a3
    2f0a:	00271813          	slli	a6,a4,0x2
    2f0e:	dc3a                	sw	a4,56(sp)
    2f10:	d43e                	sw	a5,40(sp)
    2f12:	00004717          	auipc	a4,0x4
    2f16:	cc670713          	addi	a4,a4,-826 # 6bd8 <init_jk>
    2f1a:	fff98793          	addi	a5,s3,-1
    2f1e:	27b12e23          	sw	s11,636(sp)
    2f22:	9742                	add	a4,a4,a6
    2f24:	2a112623          	sw	ra,684(sp)
    2f28:	2a812423          	sw	s0,680(sp)
    2f2c:	2a912223          	sw	s1,676(sp)
    2f30:	2b212023          	sw	s2,672(sp)
    2f34:	29412c23          	sw	s4,664(sp)
    2f38:	29512a23          	sw	s5,660(sp)
    2f3c:	29612823          	sw	s6,656(sp)
    2f40:	29712623          	sw	s7,652(sp)
    2f44:	29812423          	sw	s8,648(sp)
    2f48:	29912223          	sw	s9,644(sp)
    2f4c:	29a12023          	sw	s10,640(sp)
    2f50:	56b1                	li	a3,-20
    2f52:	d22a                	sw	a0,36(sp)
    2f54:	da2e                	sw	a1,52(sp)
    2f56:	c83e                	sw	a5,16(sp)
    2f58:	00072d83          	lw	s11,0(a4)
    2f5c:	7ed64f63          	blt	a2,a3,375a <__kernel_rem_pio2+0x85a>
    2f60:	ffd60713          	addi	a4,a2,-3
    2f64:	47e1                	li	a5,24
    2f66:	02f747b3          	div	a5,a4,a5
    2f6a:	d03e                	sw	a5,32(sp)
    2f6c:	0785                	addi	a5,a5,1
    2f6e:	00279713          	slli	a4,a5,0x2
    2f72:	8f99                	sub	a5,a5,a4
    2f74:	078e                	slli	a5,a5,0x3
    2f76:	5582                	lw	a1,32(sp)
    2f78:	fff98693          	addi	a3,s3,-1
    2f7c:	00dd8733          	add	a4,s11,a3
    2f80:	97b2                	add	a5,a5,a2
    2f82:	40d58433          	sub	s0,a1,a3
    2f86:	00170913          	addi	s2,a4,1
    2f8a:	ca3e                	sw	a5,20(sp)
    2f8c:	0904                	addi	s1,sp,144
    2f8e:	9922                	add	s2,s2,s0
    2f90:	02074363          	bltz	a4,2fb6 <__kernel_rem_pio2+0xb6>
    2f94:	5a22                	lw	s4,40(sp)
    2f96:	00241793          	slli	a5,s0,0x2
    2f9a:	97d2                	add	a5,a5,s4
    2f9c:	4501                	li	a0,0
    2f9e:	4581                	li	a1,0
    2fa0:	00044563          	bltz	s0,2faa <__kernel_rem_pio2+0xaa>
    2fa4:	4388                	lw	a0,0(a5)
    2fa6:	734020ef          	jal	ra,56da <__floatsidf>
    2faa:	c088                	sw	a0,0(s1)
    2fac:	c0cc                	sw	a1,4(s1)
    2fae:	0405                	addi	s0,s0,1
    2fb0:	04a1                	addi	s1,s1,8
    2fb2:	ff2412e3          	bne	s0,s2,2f96 <__kernel_rem_pio2+0x96>
    2fb6:	060dc463          	bltz	s11,301e <__kernel_rem_pio2+0x11e>
    2fba:	4bc2                	lw	s7,16(sp)
    2fbc:	5d12                	lw	s10,36(sp)
    2fbe:	091c                	addi	a5,sp,144
    2fc0:	003b9913          	slli	s2,s7,0x3
    2fc4:	00890413          	addi	s0,s2,8
    2fc8:	003d9a13          	slli	s4,s11,0x3
    2fcc:	993e                	add	s2,s2,a5
    2fce:	0bbc                	addi	a5,sp,472
    2fd0:	0b84                	addi	s1,sp,464
    2fd2:	9a3e                	add	s4,s4,a5
    2fd4:	946a                	add	s0,s0,s10
    2fd6:	8b4a                	mv	s6,s2
    2fd8:	8aea                	mv	s5,s10
    2fda:	4c01                	li	s8,0
    2fdc:	4c81                	li	s9,0
    2fde:	020bc863          	bltz	s7,300e <__kernel_rem_pio2+0x10e>
    2fe2:	000b2603          	lw	a2,0(s6)
    2fe6:	004b2683          	lw	a3,4(s6)
    2fea:	000aa503          	lw	a0,0(s5)
    2fee:	004aa583          	lw	a1,4(s5)
    2ff2:	0aa1                	addi	s5,s5,8
    2ff4:	1b61                	addi	s6,s6,-8
    2ff6:	287010ef          	jal	ra,4a7c <__muldf3>
    2ffa:	862a                	mv	a2,a0
    2ffc:	86ae                	mv	a3,a1
    2ffe:	8562                	mv	a0,s8
    3000:	85e6                	mv	a1,s9
    3002:	47f000ef          	jal	ra,3c80 <__adddf3>
    3006:	8c2a                	mv	s8,a0
    3008:	8cae                	mv	s9,a1
    300a:	fc8a9ce3          	bne	s5,s0,2fe2 <__kernel_rem_pio2+0xe2>
    300e:	0184a023          	sw	s8,0(s1)
    3012:	0194a223          	sw	s9,4(s1)
    3016:	04a1                	addi	s1,s1,8
    3018:	0921                	addi	s2,s2,8
    301a:	fb449ee3          	bne	s1,s4,2fd6 <__kernel_rem_pio2+0xd6>
    301e:	002d9713          	slli	a4,s11,0x2
    3022:	1870                	addi	a2,sp,60
    3024:	ff870693          	addi	a3,a4,-8
    3028:	00e60c33          	add	s8,a2,a4
    302c:	0098                	addi	a4,sp,64
    302e:	9736                	add	a4,a4,a3
    3030:	d83a                	sw	a4,48(sp)
    3032:	5712                	lw	a4,36(sp)
    3034:	00399413          	slli	s0,s3,0x3
    3038:	fffd8793          	addi	a5,s11,-1
    303c:	943a                	add	s0,s0,a4
    303e:	20000737          	lui	a4,0x20000
    3042:	177d                	addi	a4,a4,-1
    3044:	cc3a                	sw	a4,24(sp)
    3046:	00800737          	lui	a4,0x800
    304a:	177d                	addi	a4,a4,-1
    304c:	078a                	slli	a5,a5,0x2
    304e:	de3a                	sw	a4,60(sp)
    3050:	1c98                	addi	a4,sp,624
    3052:	97ba                	add	a5,a5,a4
    3054:	84ee                	mv	s1,s11
    3056:	1d010d13          	addi	s10,sp,464
    305a:	d63e                	sw	a5,44(sp)
    305c:	ce6e                	sw	s11,28(sp)
    305e:	00349793          	slli	a5,s1,0x3
    3062:	1c98                	addi	a4,sp,624
    3064:	97ba                	add	a5,a5,a4
    3066:	f607aa03          	lw	s4,-160(a5)
    306a:	f647aa83          	lw	s5,-156(a5)
    306e:	08905663          	blez	s1,30fa <__kernel_rem_pio2+0x1fa>
    3072:	47e2                	lw	a5,24(sp)
    3074:	04010993          	addi	s3,sp,64
    3078:	00f48933          	add	s2,s1,a5
    307c:	00004797          	auipc	a5,0x4
    3080:	b4c78793          	addi	a5,a5,-1204 # 6bc8 <PIo2+0x48>
    3084:	0047a803          	lw	a6,4(a5)
    3088:	439c                	lw	a5,0(a5)
    308a:	090e                	slli	s2,s2,0x3
    308c:	c242                	sw	a6,4(sp)
    308e:	c03e                	sw	a5,0(sp)
    3090:	00004797          	auipc	a5,0x4
    3094:	92078793          	addi	a5,a5,-1760 # 69b0 <original_vertices+0x100>
    3098:	0047a803          	lw	a6,4(a5)
    309c:	439c                	lw	a5,0(a5)
    309e:	996a                	add	s2,s2,s10
    30a0:	c642                	sw	a6,12(sp)
    30a2:	c43e                	sw	a5,8(sp)
    30a4:	a011                	j	30a8 <__kernel_rem_pio2+0x1a8>
    30a6:	893e                	mv	s2,a5
    30a8:	4602                	lw	a2,0(sp)
    30aa:	4692                	lw	a3,4(sp)
    30ac:	8552                	mv	a0,s4
    30ae:	85d6                	mv	a1,s5
    30b0:	1cd010ef          	jal	ra,4a7c <__muldf3>
    30b4:	5be020ef          	jal	ra,5672 <__fixdfsi>
    30b8:	622020ef          	jal	ra,56da <__floatsidf>
    30bc:	4622                	lw	a2,8(sp)
    30be:	46b2                	lw	a3,12(sp)
    30c0:	8b2a                	mv	s6,a0
    30c2:	8bae                	mv	s7,a1
    30c4:	1b9010ef          	jal	ra,4a7c <__muldf3>
    30c8:	862a                	mv	a2,a0
    30ca:	86ae                	mv	a3,a1
    30cc:	8552                	mv	a0,s4
    30ce:	85d6                	mv	a1,s5
    30d0:	665010ef          	jal	ra,4f34 <__subdf3>
    30d4:	59e020ef          	jal	ra,5672 <__fixdfsi>
    30d8:	00092603          	lw	a2,0(s2)
    30dc:	00492683          	lw	a3,4(s2)
    30e0:	00a9a023          	sw	a0,0(s3)
    30e4:	85de                	mv	a1,s7
    30e6:	855a                	mv	a0,s6
    30e8:	399000ef          	jal	ra,3c80 <__adddf3>
    30ec:	8a2a                	mv	s4,a0
    30ee:	8aae                	mv	s5,a1
    30f0:	ff890793          	addi	a5,s2,-8
    30f4:	0991                	addi	s3,s3,4
    30f6:	fb2d18e3          	bne	s10,s2,30a6 <__kernel_rem_pio2+0x1a6>
    30fa:	4b52                	lw	s6,20(sp)
    30fc:	85d6                	mv	a1,s5
    30fe:	8552                	mv	a0,s4
    3100:	865a                	mv	a2,s6
    3102:	22b000ef          	jal	ra,3b2c <scalbn>
    3106:	00004797          	auipc	a5,0x4
    310a:	aca78793          	addi	a5,a5,-1334 # 6bd0 <PIo2+0x50>
    310e:	4390                	lw	a2,0(a5)
    3110:	43d4                	lw	a3,4(a5)
    3112:	892a                	mv	s2,a0
    3114:	89ae                	mv	s3,a1
    3116:	167010ef          	jal	ra,4a7c <__muldf3>
    311a:	0c3000ef          	jal	ra,39dc <floor>
    311e:	00003797          	auipc	a5,0x3
    3122:	71a78793          	addi	a5,a5,1818 # 6838 <_sbrk+0x42>
    3126:	4390                	lw	a2,0(a5)
    3128:	43d4                	lw	a3,4(a5)
    312a:	153010ef          	jal	ra,4a7c <__muldf3>
    312e:	862a                	mv	a2,a0
    3130:	86ae                	mv	a3,a1
    3132:	854a                	mv	a0,s2
    3134:	85ce                	mv	a1,s3
    3136:	5ff010ef          	jal	ra,4f34 <__subdf3>
    313a:	89ae                	mv	s3,a1
    313c:	892a                	mv	s2,a0
    313e:	534020ef          	jal	ra,5672 <__fixdfsi>
    3142:	8aaa                	mv	s5,a0
    3144:	596020ef          	jal	ra,56da <__floatsidf>
    3148:	862a                	mv	a2,a0
    314a:	86ae                	mv	a3,a1
    314c:	854a                	mv	a0,s2
    314e:	85ce                	mv	a1,s3
    3150:	5e5010ef          	jal	ra,4f34 <__subdf3>
    3154:	892a                	mv	s2,a0
    3156:	89ae                	mv	s3,a1
    3158:	13605763          	blez	s6,3286 <__kernel_rem_pio2+0x386>
    315c:	fff48793          	addi	a5,s1,-1
    3160:	1c98                	addi	a4,sp,624
    3162:	078a                	slli	a5,a5,0x2
    3164:	97ba                	add	a5,a5,a4
    3166:	dd07aa03          	lw	s4,-560(a5)
    316a:	4761                	li	a4,24
    316c:	41670733          	sub	a4,a4,s6
    3170:	40ea56b3          	sra	a3,s4,a4
    3174:	00e69733          	sll	a4,a3,a4
    3178:	40ea0733          	sub	a4,s4,a4
    317c:	4a5d                	li	s4,23
    317e:	416a0a33          	sub	s4,s4,s6
    3182:	dce7a823          	sw	a4,-560(a5)
    3186:	41475a33          	sra	s4,a4,s4
    318a:	9ab6                	add	s5,s5,a3
    318c:	11404b63          	bgtz	s4,32a2 <__kernel_rem_pio2+0x3a2>
    3190:	4601                	li	a2,0
    3192:	4681                	li	a3,0
    3194:	854a                	mv	a0,s2
    3196:	85ce                	mv	a1,s3
    3198:	7cc010ef          	jal	ra,4964 <__eqdf2>
    319c:	1a051863          	bnez	a0,334c <__kernel_rem_pio2+0x44c>
    31a0:	47f2                	lw	a5,28(sp)
    31a2:	fff48613          	addi	a2,s1,-1
    31a6:	00f64f63          	blt	a2,a5,31c4 <__kernel_rem_pio2+0x2c4>
    31aa:	00249793          	slli	a5,s1,0x2
    31ae:	0098                	addi	a4,sp,64
    31b0:	17f1                	addi	a5,a5,-4
    31b2:	97ba                	add	a5,a5,a4
    31b4:	4701                	li	a4,0
    31b6:	4394                	lw	a3,0(a5)
    31b8:	17f1                	addi	a5,a5,-4
    31ba:	8f55                	or	a4,a4,a3
    31bc:	ff879de3          	bne	a5,s8,31b6 <__kernel_rem_pio2+0x2b6>
    31c0:	28071d63          	bnez	a4,345a <__kernel_rem_pio2+0x55a>
    31c4:	57b2                	lw	a5,44(sp)
    31c6:	dd07a783          	lw	a5,-560(a5)
    31ca:	28079363          	bnez	a5,3450 <__kernel_rem_pio2+0x550>
    31ce:	57c2                	lw	a5,48(sp)
    31d0:	4705                	li	a4,1
    31d2:	17f1                	addi	a5,a5,-4
    31d4:	43d4                	lw	a3,4(a5)
    31d6:	0705                	addi	a4,a4,1
    31d8:	deed                	beqz	a3,31d2 <__kernel_rem_pio2+0x2d2>
    31da:	00148793          	addi	a5,s1,1
    31de:	8abe                	mv	s5,a5
    31e0:	94ba                	add	s1,s1,a4
    31e2:	4742                	lw	a4,16(sp)
    31e4:	5d92                	lw	s11,36(sp)
    31e6:	c062                	sw	s8,0(sp)
    31e8:	00f70933          	add	s2,a4,a5
    31ec:	5702                	lw	a4,32(sp)
    31ee:	00f70a33          	add	s4,a4,a5
    31f2:	4762                	lw	a4,24(sp)
    31f4:	078e                	slli	a5,a5,0x3
    31f6:	0a0a                	slli	s4,s4,0x2
    31f8:	993a                	add	s2,s2,a4
    31fa:	5722                	lw	a4,40(sp)
    31fc:	090e                	slli	s2,s2,0x3
    31fe:	00fd09b3          	add	s3,s10,a5
    3202:	091c                	addi	a5,sp,144
    3204:	9a3a                	add	s4,s4,a4
    3206:	993e                	add	s2,s2,a5
    3208:	000a2503          	lw	a0,0(s4)
    320c:	4ce020ef          	jal	ra,56da <__floatsidf>
    3210:	47c2                	lw	a5,16(sp)
    3212:	00a92423          	sw	a0,8(s2)
    3216:	00b92623          	sw	a1,12(s2)
    321a:	0407c963          	bltz	a5,326c <__kernel_rem_pio2+0x36c>
    321e:	8bca                	mv	s7,s2
    3220:	8b6e                	mv	s6,s11
    3222:	4c01                	li	s8,0
    3224:	4c81                	li	s9,0
    3226:	a031                	j	3232 <__kernel_rem_pio2+0x332>
    3228:	000ba503          	lw	a0,0(s7) # ffff8000 <_eusrstack+0xdfff1800>
    322c:	004ba583          	lw	a1,4(s7)
    3230:	1be1                	addi	s7,s7,-8
    3232:	000b2603          	lw	a2,0(s6)
    3236:	004b2683          	lw	a3,4(s6)
    323a:	0b21                	addi	s6,s6,8
    323c:	041010ef          	jal	ra,4a7c <__muldf3>
    3240:	862a                	mv	a2,a0
    3242:	86ae                	mv	a3,a1
    3244:	8562                	mv	a0,s8
    3246:	85e6                	mv	a1,s9
    3248:	239000ef          	jal	ra,3c80 <__adddf3>
    324c:	8c2a                	mv	s8,a0
    324e:	8cae                	mv	s9,a1
    3250:	fc8b1ce3          	bne	s6,s0,3228 <__kernel_rem_pio2+0x328>
    3254:	0189a023          	sw	s8,0(s3)
    3258:	0199a223          	sw	s9,4(s3)
    325c:	0a85                	addi	s5,s5,1
    325e:	0a11                	addi	s4,s4,4
    3260:	09a1                	addi	s3,s3,8
    3262:	0921                	addi	s2,s2,8
    3264:	fb54d2e3          	bge	s1,s5,3208 <__kernel_rem_pio2+0x308>
    3268:	4c02                	lw	s8,0(sp)
    326a:	bbd5                	j	305e <__kernel_rem_pio2+0x15e>
    326c:	4c01                	li	s8,0
    326e:	4c81                	li	s9,0
    3270:	0189a023          	sw	s8,0(s3)
    3274:	0199a223          	sw	s9,4(s3)
    3278:	0a85                	addi	s5,s5,1
    327a:	0a11                	addi	s4,s4,4
    327c:	09a1                	addi	s3,s3,8
    327e:	0921                	addi	s2,s2,8
    3280:	f954d4e3          	bge	s1,s5,3208 <__kernel_rem_pio2+0x308>
    3284:	b7d5                	j	3268 <__kernel_rem_pio2+0x368>
    3286:	47d2                	lw	a5,20(sp)
    3288:	18079863          	bnez	a5,3418 <__kernel_rem_pio2+0x518>
    328c:	fff48793          	addi	a5,s1,-1
    3290:	078a                	slli	a5,a5,0x2
    3292:	1c98                	addi	a4,sp,624
    3294:	97ba                	add	a5,a5,a4
    3296:	dd07aa03          	lw	s4,-560(a5)
    329a:	417a5a13          	srai	s4,s4,0x17
    329e:	ef4059e3          	blez	s4,3190 <__kernel_rem_pio2+0x290>
    32a2:	0a85                	addi	s5,s5,1
    32a4:	4a905f63          	blez	s1,3762 <__kernel_rem_pio2+0x862>
    32a8:	4806                	lw	a6,64(sp)
    32aa:	4785                	li	a5,1
    32ac:	12081563          	bnez	a6,33d6 <__kernel_rem_pio2+0x4d6>
    32b0:	00f48e63          	beq	s1,a5,32cc <__kernel_rem_pio2+0x3cc>
    32b4:	00d4                	addi	a3,sp,68
    32b6:	4705                	li	a4,1
    32b8:	0006a803          	lw	a6,0(a3) # 80000000 <_eusrstack+0x5fff9800>
    32bc:	00170793          	addi	a5,a4,1 # 800001 <_data_lma+0x7f9209>
    32c0:	0691                	addi	a3,a3,4
    32c2:	10081b63          	bnez	a6,33d8 <__kernel_rem_pio2+0x4d8>
    32c6:	873e                	mv	a4,a5
    32c8:	fef498e3          	bne	s1,a5,32b8 <__kernel_rem_pio2+0x3b8>
    32cc:	4752                	lw	a4,20(sp)
    32ce:	02e05363          	blez	a4,32f4 <__kernel_rem_pio2+0x3f4>
    32d2:	4785                	li	a5,1
    32d4:	46f70763          	beq	a4,a5,3742 <__kernel_rem_pio2+0x842>
    32d8:	4789                	li	a5,2
    32da:	00f71d63          	bne	a4,a5,32f4 <__kernel_rem_pio2+0x3f4>
    32de:	fff48793          	addi	a5,s1,-1
    32e2:	1c98                	addi	a4,sp,624
    32e4:	078a                	slli	a5,a5,0x2
    32e6:	97ba                	add	a5,a5,a4
    32e8:	dd07a703          	lw	a4,-560(a5)
    32ec:	072a                	slli	a4,a4,0xa
    32ee:	8329                	srli	a4,a4,0xa
    32f0:	dce7a823          	sw	a4,-560(a5)
    32f4:	4789                	li	a5,2
    32f6:	e8fa1de3          	bne	s4,a5,3190 <__kernel_rem_pio2+0x290>
    32fa:	00003797          	auipc	a5,0x3
    32fe:	52678793          	addi	a5,a5,1318 # 6820 <_sbrk+0x2a>
    3302:	4388                	lw	a0,0(a5)
    3304:	43cc                	lw	a1,4(a5)
    3306:	864a                	mv	a2,s2
    3308:	86ce                	mv	a3,s3
    330a:	c042                	sw	a6,0(sp)
    330c:	429010ef          	jal	ra,4f34 <__subdf3>
    3310:	4802                	lw	a6,0(sp)
    3312:	892a                	mv	s2,a0
    3314:	89ae                	mv	s3,a1
    3316:	e6080de3          	beqz	a6,3190 <__kernel_rem_pio2+0x290>
    331a:	00003797          	auipc	a5,0x3
    331e:	50678793          	addi	a5,a5,1286 # 6820 <_sbrk+0x2a>
    3322:	4388                	lw	a0,0(a5)
    3324:	43cc                	lw	a1,4(a5)
    3326:	4652                	lw	a2,20(sp)
    3328:	005000ef          	jal	ra,3b2c <scalbn>
    332c:	862a                	mv	a2,a0
    332e:	86ae                	mv	a3,a1
    3330:	854a                	mv	a0,s2
    3332:	85ce                	mv	a1,s3
    3334:	401010ef          	jal	ra,4f34 <__subdf3>
    3338:	892a                	mv	s2,a0
    333a:	89ae                	mv	s3,a1
    333c:	4601                	li	a2,0
    333e:	4681                	li	a3,0
    3340:	854a                	mv	a0,s2
    3342:	85ce                	mv	a1,s3
    3344:	620010ef          	jal	ra,4964 <__eqdf2>
    3348:	e4050ce3          	beqz	a0,31a0 <__kernel_rem_pio2+0x2a0>
    334c:	4d52                	lw	s10,20(sp)
    334e:	854a                	mv	a0,s2
    3350:	85ce                	mv	a1,s3
    3352:	41a00633          	neg	a2,s10
    3356:	4df2                	lw	s11,28(sp)
    3358:	7d4000ef          	jal	ra,3b2c <scalbn>
    335c:	00003797          	auipc	a5,0x3
    3360:	65478793          	addi	a5,a5,1620 # 69b0 <original_vertices+0x100>
    3364:	0007a903          	lw	s2,0(a5)
    3368:	0047a983          	lw	s3,4(a5)
    336c:	8c2a                	mv	s8,a0
    336e:	864a                	mv	a2,s2
    3370:	86ce                	mv	a3,s3
    3372:	8cae                	mv	s9,a1
    3374:	65a010ef          	jal	ra,49ce <__gedf2>
    3378:	46054063          	bltz	a0,37d8 <__kernel_rem_pio2+0x8d8>
    337c:	00004717          	auipc	a4,0x4
    3380:	84c70713          	addi	a4,a4,-1972 # 6bc8 <PIo2+0x48>
    3384:	4310                	lw	a2,0(a4)
    3386:	4354                	lw	a3,4(a4)
    3388:	8562                	mv	a0,s8
    338a:	85e6                	mv	a1,s9
    338c:	6f0010ef          	jal	ra,4a7c <__muldf3>
    3390:	2e2020ef          	jal	ra,5672 <__fixdfsi>
    3394:	1c9c                	addi	a5,sp,624
    3396:	00249413          	slli	s0,s1,0x2
    339a:	943e                	add	s0,s0,a5
    339c:	8baa                	mv	s7,a0
    339e:	33c020ef          	jal	ra,56da <__floatsidf>
    33a2:	864a                	mv	a2,s2
    33a4:	86ce                	mv	a3,s3
    33a6:	6d6010ef          	jal	ra,4a7c <__muldf3>
    33aa:	862a                	mv	a2,a0
    33ac:	86ae                	mv	a3,a1
    33ae:	8562                	mv	a0,s8
    33b0:	85e6                	mv	a1,s9
    33b2:	383010ef          	jal	ra,4f34 <__subdf3>
    33b6:	2bc020ef          	jal	ra,5672 <__fixdfsi>
    33ba:	00148b13          	addi	s6,s1,1
    33be:	1c98                	addi	a4,sp,624
    33c0:	002b1793          	slli	a5,s6,0x2
    33c4:	97ba                	add	a5,a5,a4
    33c6:	dca42823          	sw	a0,-560(s0)
    33ca:	018d0713          	addi	a4,s10,24
    33ce:	ca3a                	sw	a4,20(sp)
    33d0:	dd77a823          	sw	s7,-560(a5)
    33d4:	a855                	j	3488 <__kernel_rem_pio2+0x588>
    33d6:	4701                	li	a4,0
    33d8:	070a                	slli	a4,a4,0x2
    33da:	01000637          	lui	a2,0x1000
    33de:	1c94                	addi	a3,sp,624
    33e0:	9736                	add	a4,a4,a3
    33e2:	41060833          	sub	a6,a2,a6
    33e6:	dd072823          	sw	a6,-560(a4)
    33ea:	0297d563          	bge	a5,s1,3414 <__kernel_rem_pio2+0x514>
    33ee:	078a                	slli	a5,a5,0x2
    33f0:	00f68733          	add	a4,a3,a5
    33f4:	008c                	addi	a1,sp,64
    33f6:	00249693          	slli	a3,s1,0x2
    33fa:	dd072703          	lw	a4,-560(a4)
    33fe:	97ae                	add	a5,a5,a1
    3400:	96ae                	add	a3,a3,a1
    3402:	167d                	addi	a2,a2,-1
    3404:	a011                	j	3408 <__kernel_rem_pio2+0x508>
    3406:	4398                	lw	a4,0(a5)
    3408:	40e60733          	sub	a4,a2,a4
    340c:	c398                	sw	a4,0(a5)
    340e:	0791                	addi	a5,a5,4
    3410:	fed79be3          	bne	a5,a3,3406 <__kernel_rem_pio2+0x506>
    3414:	4805                	li	a6,1
    3416:	bd5d                	j	32cc <__kernel_rem_pio2+0x3cc>
    3418:	00003797          	auipc	a5,0x3
    341c:	53078793          	addi	a5,a5,1328 # 6948 <original_vertices+0x98>
    3420:	4390                	lw	a2,0(a5)
    3422:	43d4                	lw	a3,4(a5)
    3424:	4a01                	li	s4,0
    3426:	5a8010ef          	jal	ra,49ce <__gedf2>
    342a:	d60543e3          	bltz	a0,3190 <__kernel_rem_pio2+0x290>
    342e:	0a85                	addi	s5,s5,1
    3430:	4a09                	li	s4,2
    3432:	e6904be3          	bgtz	s1,32a8 <__kernel_rem_pio2+0x3a8>
    3436:	00003797          	auipc	a5,0x3
    343a:	3ea78793          	addi	a5,a5,1002 # 6820 <_sbrk+0x2a>
    343e:	4388                	lw	a0,0(a5)
    3440:	43cc                	lw	a1,4(a5)
    3442:	864a                	mv	a2,s2
    3444:	86ce                	mv	a3,s3
    3446:	2ef010ef          	jal	ra,4f34 <__subdf3>
    344a:	892a                	mv	s2,a0
    344c:	89ae                	mv	s3,a1
    344e:	b389                	j	3190 <__kernel_rem_pio2+0x290>
    3450:	00148793          	addi	a5,s1,1
    3454:	8abe                	mv	s5,a5
    3456:	84be                	mv	s1,a5
    3458:	b369                	j	31e2 <__kernel_rem_pio2+0x2e2>
    345a:	1c98                	addi	a4,sp,624
    345c:	00261793          	slli	a5,a2,0x2
    3460:	97ba                	add	a5,a5,a4
    3462:	4752                	lw	a4,20(sp)
    3464:	dd07a783          	lw	a5,-560(a5)
    3468:	4df2                	lw	s11,28(sp)
    346a:	1721                	addi	a4,a4,-24
    346c:	ca3a                	sw	a4,20(sp)
    346e:	8b32                	mv	s6,a2
    3470:	ef81                	bnez	a5,3488 <__kernel_rem_pio2+0x588>
    3472:	00249793          	slli	a5,s1,0x2
    3476:	17e1                	addi	a5,a5,-8
    3478:	0094                	addi	a3,sp,64
    347a:	97b6                	add	a5,a5,a3
    347c:	17f1                	addi	a5,a5,-4
    347e:	43d4                	lw	a3,4(a5)
    3480:	1b7d                	addi	s6,s6,-1
    3482:	1721                	addi	a4,a4,-24
    3484:	dee5                	beqz	a3,347c <__kernel_rem_pio2+0x57c>
    3486:	ca3a                	sw	a4,20(sp)
    3488:	00003797          	auipc	a5,0x3
    348c:	39878793          	addi	a5,a5,920 # 6820 <_sbrk+0x2a>
    3490:	4388                	lw	a0,0(a5)
    3492:	43cc                	lw	a1,4(a5)
    3494:	4652                	lw	a2,20(sp)
    3496:	696000ef          	jal	ra,3b2c <scalbn>
    349a:	842a                	mv	s0,a0
    349c:	84ae                	mv	s1,a1
    349e:	380b4063          	bltz	s6,381e <__kernel_rem_pio2+0x91e>
    34a2:	003b1793          	slli	a5,s6,0x3
    34a6:	873e                	mv	a4,a5
    34a8:	0b94                	addi	a3,sp,464
    34aa:	00e68bb3          	add	s7,a3,a4
    34ae:	c43e                	sw	a5,8(sp)
    34b0:	00003717          	auipc	a4,0x3
    34b4:	71870713          	addi	a4,a4,1816 # 6bc8 <PIo2+0x48>
    34b8:	002b1793          	slli	a5,s6,0x2
    34bc:	0094                	addi	a3,sp,64
    34be:	00f68cb3          	add	s9,a3,a5
    34c2:	8c5e                	mv	s8,s7
    34c4:	00072903          	lw	s2,0(a4)
    34c8:	00472983          	lw	s3,4(a4)
    34cc:	a011                	j	34d0 <__kernel_rem_pio2+0x5d0>
    34ce:	8cbe                	mv	s9,a5
    34d0:	000ca503          	lw	a0,0(s9)
    34d4:	1c61                	addi	s8,s8,-8
    34d6:	204020ef          	jal	ra,56da <__floatsidf>
    34da:	8622                	mv	a2,s0
    34dc:	86a6                	mv	a3,s1
    34de:	59e010ef          	jal	ra,4a7c <__muldf3>
    34e2:	00ac2423          	sw	a0,8(s8)
    34e6:	00bc2623          	sw	a1,12(s8)
    34ea:	8522                	mv	a0,s0
    34ec:	85a6                	mv	a1,s1
    34ee:	864a                	mv	a2,s2
    34f0:	86ce                	mv	a3,s3
    34f2:	58a010ef          	jal	ra,4a7c <__muldf3>
    34f6:	0098                	addi	a4,sp,64
    34f8:	842a                	mv	s0,a0
    34fa:	84ae                	mv	s1,a1
    34fc:	ffcc8793          	addi	a5,s9,-4
    3500:	fd9717e3          	bne	a4,s9,34ce <__kernel_rem_pio2+0x5ce>
    3504:	1a1c                	addi	a5,sp,304
    3506:	c03e                	sw	a5,0(sp)
    3508:	8cee                	mv	s9,s11
    350a:	84be                	mv	s1,a5
    350c:	4401                	li	s0,0
    350e:	060cc863          	bltz	s9,357e <__kernel_rem_pio2+0x67e>
    3512:	00003797          	auipc	a5,0x3
    3516:	6ae78793          	addi	a5,a5,1710 # 6bc0 <PIo2+0x40>
    351a:	00003c17          	auipc	s8,0x3
    351e:	666c0c13          	addi	s8,s8,1638 # 6b80 <PIo2>
    3522:	89de                	mv	s3,s7
    3524:	4388                	lw	a0,0(a5)
    3526:	43cc                	lw	a1,4(a5)
    3528:	4d01                	li	s10,0
    352a:	4d81                	li	s11,0
    352c:	4901                	li	s2,0
    352e:	a809                	j	3540 <__kernel_rem_pio2+0x640>
    3530:	0c21                	addi	s8,s8,8
    3532:	09a1                	addi	s3,s3,8
    3534:	03244763          	blt	s0,s2,3562 <__kernel_rem_pio2+0x662>
    3538:	000c2503          	lw	a0,0(s8)
    353c:	004c2583          	lw	a1,4(s8)
    3540:	0009a603          	lw	a2,0(s3)
    3544:	0049a683          	lw	a3,4(s3)
    3548:	0905                	addi	s2,s2,1
    354a:	532010ef          	jal	ra,4a7c <__muldf3>
    354e:	862a                	mv	a2,a0
    3550:	86ae                	mv	a3,a1
    3552:	856a                	mv	a0,s10
    3554:	85ee                	mv	a1,s11
    3556:	72a000ef          	jal	ra,3c80 <__adddf3>
    355a:	8d2a                	mv	s10,a0
    355c:	8dae                	mv	s11,a1
    355e:	fd2cd9e3          	bge	s9,s2,3530 <__kernel_rem_pio2+0x630>
    3562:	01a4a023          	sw	s10,0(s1)
    3566:	01b4a223          	sw	s11,4(s1)
    356a:	0b98                	addi	a4,sp,464
    356c:	0405                	addi	s0,s0,1
    356e:	04a1                	addi	s1,s1,8
    3570:	ff8b8793          	addi	a5,s7,-8
    3574:	03770263          	beq	a4,s7,3598 <__kernel_rem_pio2+0x698>
    3578:	8bbe                	mv	s7,a5
    357a:	f80cdce3          	bgez	s9,3512 <__kernel_rem_pio2+0x612>
    357e:	4d01                	li	s10,0
    3580:	4d81                	li	s11,0
    3582:	01a4a023          	sw	s10,0(s1)
    3586:	01b4a223          	sw	s11,4(s1)
    358a:	0b98                	addi	a4,sp,464
    358c:	0405                	addi	s0,s0,1
    358e:	04a1                	addi	s1,s1,8
    3590:	ff8b8793          	addi	a5,s7,-8
    3594:	ff7712e3          	bne	a4,s7,3578 <__kernel_rem_pio2+0x678>
    3598:	5762                	lw	a4,56(sp)
    359a:	4789                	li	a5,2
    359c:	08e7c763          	blt	a5,a4,362a <__kernel_rem_pio2+0x72a>
    35a0:	1ce04363          	bgtz	a4,3766 <__kernel_rem_pio2+0x866>
    35a4:	e721                	bnez	a4,35ec <__kernel_rem_pio2+0x6ec>
    35a6:	47a2                	lw	a5,8(sp)
    35a8:	4402                	lw	s0,0(sp)
    35aa:	4501                	li	a0,0
    35ac:	4581                	li	a1,0
    35ae:	00f40cb3          	add	s9,s0,a5
    35b2:	000ca603          	lw	a2,0(s9)
    35b6:	004ca683          	lw	a3,4(s9)
    35ba:	6c6000ef          	jal	ra,3c80 <__adddf3>
    35be:	ff8c8793          	addi	a5,s9,-8
    35c2:	01940d63          	beq	s0,s9,35dc <__kernel_rem_pio2+0x6dc>
    35c6:	8cbe                	mv	s9,a5
    35c8:	000ca603          	lw	a2,0(s9)
    35cc:	004ca683          	lw	a3,4(s9)
    35d0:	6b0000ef          	jal	ra,3c80 <__adddf3>
    35d4:	ff8c8793          	addi	a5,s9,-8
    35d8:	ff9417e3          	bne	s0,s9,35c6 <__kernel_rem_pio2+0x6c6>
    35dc:	000a0563          	beqz	s4,35e6 <__kernel_rem_pio2+0x6e6>
    35e0:	800007b7          	lui	a5,0x80000
    35e4:	8dbd                	xor	a1,a1,a5
    35e6:	56d2                	lw	a3,52(sp)
    35e8:	c288                	sw	a0,0(a3)
    35ea:	c2cc                	sw	a1,4(a3)
    35ec:	2ac12083          	lw	ra,684(sp)
    35f0:	2a812403          	lw	s0,680(sp)
    35f4:	007af513          	andi	a0,s5,7
    35f8:	2a412483          	lw	s1,676(sp)
    35fc:	2a012903          	lw	s2,672(sp)
    3600:	29c12983          	lw	s3,668(sp)
    3604:	29812a03          	lw	s4,664(sp)
    3608:	29412a83          	lw	s5,660(sp)
    360c:	29012b03          	lw	s6,656(sp)
    3610:	28c12b83          	lw	s7,652(sp)
    3614:	28812c03          	lw	s8,648(sp)
    3618:	28412c83          	lw	s9,644(sp)
    361c:	28012d03          	lw	s10,640(sp)
    3620:	27c12d83          	lw	s11,636(sp)
    3624:	2b010113          	addi	sp,sp,688
    3628:	8082                	ret
    362a:	5762                	lw	a4,56(sp)
    362c:	478d                	li	a5,3
    362e:	faf71fe3          	bne	a4,a5,35ec <__kernel_rem_pio2+0x6ec>
    3632:	21605663          	blez	s6,383e <__kernel_rem_pio2+0x93e>
    3636:	003b1b93          	slli	s7,s6,0x3
    363a:	1c9c                	addi	a5,sp,624
    363c:	97de                	add	a5,a5,s7
    363e:	13010993          	addi	s3,sp,304
    3642:	ff8b8413          	addi	s0,s7,-8
    3646:	c04e                	sw	s3,0(sp)
    3648:	ec07ad83          	lw	s11,-320(a5) # 7ffffec0 <_eusrstack+0x5fff96c0>
    364c:	ec47ad03          	lw	s10,-316(a5)
    3650:	944e                	add	s0,s0,s3
    3652:	a011                	j	3656 <__kernel_rem_pio2+0x756>
    3654:	843e                	mv	s0,a5
    3656:	00042c03          	lw	s8,0(s0)
    365a:	00442c83          	lw	s9,4(s0)
    365e:	866e                	mv	a2,s11
    3660:	86ea                	mv	a3,s10
    3662:	8562                	mv	a0,s8
    3664:	85e6                	mv	a1,s9
    3666:	2d29                	jal	3c80 <__adddf3>
    3668:	892a                	mv	s2,a0
    366a:	84ae                	mv	s1,a1
    366c:	862a                	mv	a2,a0
    366e:	86ae                	mv	a3,a1
    3670:	8562                	mv	a0,s8
    3672:	85e6                	mv	a1,s9
    3674:	0c1010ef          	jal	ra,4f34 <__subdf3>
    3678:	866e                	mv	a2,s11
    367a:	86ea                	mv	a3,s10
    367c:	2511                	jal	3c80 <__adddf3>
    367e:	c408                	sw	a0,8(s0)
    3680:	c44c                	sw	a1,12(s0)
    3682:	01242023          	sw	s2,0(s0)
    3686:	c044                	sw	s1,4(s0)
    3688:	ff840793          	addi	a5,s0,-8
    368c:	8dca                	mv	s11,s2
    368e:	8d26                	mv	s10,s1
    3690:	fc8992e3          	bne	s3,s0,3654 <__kernel_rem_pio2+0x754>
    3694:	4785                	li	a5,1
    3696:	1b67d463          	bge	a5,s6,383e <__kernel_rem_pio2+0x93e>
    369a:	003b1413          	slli	s0,s6,0x3
    369e:	4b02                	lw	s6,0(sp)
    36a0:	1c9c                	addi	a5,sp,624
    36a2:	9bbe                	add	s7,s7,a5
    36a4:	1461                	addi	s0,s0,-8
    36a6:	ec0bad03          	lw	s10,-320(s7)
    36aa:	008b04b3          	add	s1,s6,s0
    36ae:	ec4bab83          	lw	s7,-316(s7)
    36b2:	a011                	j	36b6 <__kernel_rem_pio2+0x7b6>
    36b4:	84be                	mv	s1,a5
    36b6:	0004ac03          	lw	s8,0(s1)
    36ba:	0044ac83          	lw	s9,4(s1)
    36be:	866a                	mv	a2,s10
    36c0:	86de                	mv	a3,s7
    36c2:	8562                	mv	a0,s8
    36c4:	85e6                	mv	a1,s9
    36c6:	2b6d                	jal	3c80 <__adddf3>
    36c8:	89aa                	mv	s3,a0
    36ca:	892e                	mv	s2,a1
    36cc:	862a                	mv	a2,a0
    36ce:	86ae                	mv	a3,a1
    36d0:	8562                	mv	a0,s8
    36d2:	85e6                	mv	a1,s9
    36d4:	061010ef          	jal	ra,4f34 <__subdf3>
    36d8:	866a                	mv	a2,s10
    36da:	86de                	mv	a3,s7
    36dc:	2355                	jal	3c80 <__adddf3>
    36de:	c488                	sw	a0,8(s1)
    36e0:	c4cc                	sw	a1,12(s1)
    36e2:	0134a023          	sw	s3,0(s1)
    36e6:	0124a223          	sw	s2,4(s1)
    36ea:	ff848793          	addi	a5,s1,-8
    36ee:	8d4e                	mv	s10,s3
    36f0:	8bca                	mv	s7,s2
    36f2:	fcfb11e3          	bne	s6,a5,36b4 <__kernel_rem_pio2+0x7b4>
    36f6:	4782                	lw	a5,0(sp)
    36f8:	0421                	addi	s0,s0,8
    36fa:	4501                	li	a0,0
    36fc:	00878933          	add	s2,a5,s0
    3700:	4581                	li	a1,0
    3702:	00092603          	lw	a2,0(s2)
    3706:	00492683          	lw	a3,4(s2)
    370a:	1961                	addi	s2,s2,-8
    370c:	2b95                	jal	3c80 <__adddf3>
    370e:	ff249ae3          	bne	s1,s2,3702 <__kernel_rem_pio2+0x802>
    3712:	13012803          	lw	a6,304(sp)
    3716:	13412703          	lw	a4,308(sp)
    371a:	13812603          	lw	a2,312(sp)
    371e:	13c12783          	lw	a5,316(sp)
    3722:	0c0a1763          	bnez	s4,37f0 <__kernel_rem_pio2+0x8f0>
    3726:	88be                	mv	a7,a5
    3728:	57d2                	lw	a5,52(sp)
    372a:	8342                	mv	t1,a6
    372c:	8832                	mv	a6,a2
    372e:	0067a023          	sw	t1,0(a5)
    3732:	c3d8                	sw	a4,4(a5)
    3734:	0107a423          	sw	a6,8(a5)
    3738:	0117a623          	sw	a7,12(a5)
    373c:	cb88                	sw	a0,16(a5)
    373e:	cbcc                	sw	a1,20(a5)
    3740:	b575                	j	35ec <__kernel_rem_pio2+0x6ec>
    3742:	fff48793          	addi	a5,s1,-1
    3746:	1c98                	addi	a4,sp,624
    3748:	078a                	slli	a5,a5,0x2
    374a:	97ba                	add	a5,a5,a4
    374c:	dd07a703          	lw	a4,-560(a5)
    3750:	56f2                	lw	a3,60(sp)
    3752:	8f75                	and	a4,a4,a3
    3754:	dce7a823          	sw	a4,-560(a5)
    3758:	be71                	j	32f4 <__kernel_rem_pio2+0x3f4>
    375a:	57a1                	li	a5,-24
    375c:	d002                	sw	zero,32(sp)
    375e:	819ff06f          	j	2f76 <__kernel_rem_pio2+0x76>
    3762:	4801                	li	a6,0
    3764:	b6a5                	j	32cc <__kernel_rem_pio2+0x3cc>
    3766:	4702                	lw	a4,0(sp)
    3768:	47a2                	lw	a5,8(sp)
    376a:	4401                	li	s0,0
    376c:	4481                	li	s1,0
    376e:	00f70cb3          	add	s9,a4,a5
    3772:	87a2                	mv	a5,s0
    3774:	843a                	mv	s0,a4
    3776:	a011                	j	377a <__kernel_rem_pio2+0x87a>
    3778:	8cba                	mv	s9,a4
    377a:	000ca603          	lw	a2,0(s9)
    377e:	004ca683          	lw	a3,4(s9)
    3782:	8526                	mv	a0,s1
    3784:	85be                	mv	a1,a5
    3786:	29ed                	jal	3c80 <__adddf3>
    3788:	ff8c8713          	addi	a4,s9,-8
    378c:	84aa                	mv	s1,a0
    378e:	87ae                	mv	a5,a1
    3790:	ff9414e3          	bne	s0,s9,3778 <__kernel_rem_pio2+0x878>
    3794:	842e                	mv	s0,a1
    3796:	13012503          	lw	a0,304(sp)
    379a:	13412583          	lw	a1,308(sp)
    379e:	8626                	mv	a2,s1
    37a0:	86a2                	mv	a3,s0
    37a2:	792010ef          	jal	ra,4f34 <__subdf3>
    37a6:	060a1363          	bnez	s4,380c <__kernel_rem_pio2+0x90c>
    37aa:	56d2                	lw	a3,52(sp)
    37ac:	c284                	sw	s1,0(a3)
    37ae:	c2c0                	sw	s0,4(a3)
    37b0:	03605063          	blez	s6,37d0 <__kernel_rem_pio2+0x8d0>
    37b4:	1a24                	addi	s1,sp,312
    37b6:	4405                	li	s0,1
    37b8:	4090                	lw	a2,0(s1)
    37ba:	40d4                	lw	a3,4(s1)
    37bc:	0405                	addi	s0,s0,1
    37be:	04a1                	addi	s1,s1,8
    37c0:	21c1                	jal	3c80 <__adddf3>
    37c2:	fe8b5be3          	bge	s6,s0,37b8 <__kernel_rem_pio2+0x8b8>
    37c6:	000a0563          	beqz	s4,37d0 <__kernel_rem_pio2+0x8d0>
    37ca:	800007b7          	lui	a5,0x80000
    37ce:	8dbd                	xor	a1,a1,a5
    37d0:	56d2                	lw	a3,52(sp)
    37d2:	c688                	sw	a0,8(a3)
    37d4:	c6cc                	sw	a1,12(a3)
    37d6:	bd19                	j	35ec <__kernel_rem_pio2+0x6ec>
    37d8:	1c9c                	addi	a5,sp,624
    37da:	00249413          	slli	s0,s1,0x2
    37de:	8562                	mv	a0,s8
    37e0:	85e6                	mv	a1,s9
    37e2:	943e                	add	s0,s0,a5
    37e4:	68f010ef          	jal	ra,5672 <__fixdfsi>
    37e8:	dca42823          	sw	a0,-560(s0)
    37ec:	8b26                	mv	s6,s1
    37ee:	b969                	j	3488 <__kernel_rem_pio2+0x588>
    37f0:	800006b7          	lui	a3,0x80000
    37f4:	8f35                	xor	a4,a4,a3
    37f6:	8fb5                	xor	a5,a5,a3
    37f8:	8ead                	xor	a3,a3,a1
    37fa:	55d2                	lw	a1,52(sp)
    37fc:	0105a023          	sw	a6,0(a1) # 7f000 <_data_lma+0x78208>
    3800:	c1d8                	sw	a4,4(a1)
    3802:	c590                	sw	a2,8(a1)
    3804:	c5dc                	sw	a5,12(a1)
    3806:	c988                	sw	a0,16(a1)
    3808:	c9d4                	sw	a3,20(a1)
    380a:	b3cd                	j	35ec <__kernel_rem_pio2+0x6ec>
    380c:	800007b7          	lui	a5,0x80000
    3810:	8c3d                	xor	s0,s0,a5
    3812:	57d2                	lw	a5,52(sp)
    3814:	c384                	sw	s1,0(a5)
    3816:	c3c0                	sw	s0,4(a5)
    3818:	f9604ee3          	bgtz	s6,37b4 <__kernel_rem_pio2+0x8b4>
    381c:	b77d                	j	37ca <__kernel_rem_pio2+0x8ca>
    381e:	5762                	lw	a4,56(sp)
    3820:	4789                	li	a5,2
    3822:	e0e7c4e3          	blt	a5,a4,362a <__kernel_rem_pio2+0x72a>
    3826:	00e04963          	bgtz	a4,3838 <__kernel_rem_pio2+0x938>
    382a:	4501                	li	a0,0
    382c:	4581                	li	a1,0
    382e:	da071fe3          	bnez	a4,35ec <__kernel_rem_pio2+0x6ec>
    3832:	da0a0ae3          	beqz	s4,35e6 <__kernel_rem_pio2+0x6e6>
    3836:	b36d                	j	35e0 <__kernel_rem_pio2+0x6e0>
    3838:	4481                	li	s1,0
    383a:	4401                	li	s0,0
    383c:	bfa9                	j	3796 <__kernel_rem_pio2+0x896>
    383e:	4501                	li	a0,0
    3840:	4581                	li	a1,0
    3842:	bdc1                	j	3712 <__kernel_rem_pio2+0x812>

00003844 <__kernel_sin>:
__kernel_sin():
    3844:	7139                	addi	sp,sp,-64
    3846:	00159793          	slli	a5,a1,0x1
    384a:	dc22                	sw	s0,56(sp)
    384c:	da26                	sw	s1,52(sp)
    384e:	d452                	sw	s4,40(sp)
    3850:	d256                	sw	s5,36(sp)
    3852:	cc62                	sw	s8,24(sp)
    3854:	de06                	sw	ra,60(sp)
    3856:	d84a                	sw	s2,48(sp)
    3858:	d64e                	sw	s3,44(sp)
    385a:	d05a                	sw	s6,32(sp)
    385c:	ce5e                	sw	s7,28(sp)
    385e:	ca66                	sw	s9,20(sp)
    3860:	c86a                	sw	s10,16(sp)
    3862:	c66e                	sw	s11,12(sp)
    3864:	8385                	srli	a5,a5,0x1
    3866:	3e400837          	lui	a6,0x3e400
    386a:	842e                	mv	s0,a1
    386c:	84aa                	mv	s1,a0
    386e:	8a32                	mv	s4,a2
    3870:	8ab6                	mv	s5,a3
    3872:	8c3a                	mv	s8,a4
    3874:	0107d763          	bge	a5,a6,3882 <__kernel_sin+0x3e>
    3878:	5fb010ef          	jal	ra,5672 <__fixdfsi>
    387c:	8726                	mv	a4,s1
    387e:	87a2                	mv	a5,s0
    3880:	c161                	beqz	a0,3940 <__kernel_sin+0xfc>
    3882:	8626                	mv	a2,s1
    3884:	86a2                	mv	a3,s0
    3886:	8526                	mv	a0,s1
    3888:	85a2                	mv	a1,s0
    388a:	1f2010ef          	jal	ra,4a7c <__muldf3>
    388e:	892a                	mv	s2,a0
    3890:	89ae                	mv	s3,a1
    3892:	862a                	mv	a2,a0
    3894:	86ae                	mv	a3,a1
    3896:	8526                	mv	a0,s1
    3898:	85a2                	mv	a1,s0
    389a:	1e2010ef          	jal	ra,4a7c <__muldf3>
    389e:	00003797          	auipc	a5,0x3
    38a2:	34a78793          	addi	a5,a5,842 # 6be8 <init_jk+0x10>
    38a6:	4390                	lw	a2,0(a5)
    38a8:	43d4                	lw	a3,4(a5)
    38aa:	8b2a                	mv	s6,a0
    38ac:	8bae                	mv	s7,a1
    38ae:	854a                	mv	a0,s2
    38b0:	85ce                	mv	a1,s3
    38b2:	1ca010ef          	jal	ra,4a7c <__muldf3>
    38b6:	00003797          	auipc	a5,0x3
    38ba:	33a78793          	addi	a5,a5,826 # 6bf0 <init_jk+0x18>
    38be:	4390                	lw	a2,0(a5)
    38c0:	43d4                	lw	a3,4(a5)
    38c2:	672010ef          	jal	ra,4f34 <__subdf3>
    38c6:	864a                	mv	a2,s2
    38c8:	86ce                	mv	a3,s3
    38ca:	1b2010ef          	jal	ra,4a7c <__muldf3>
    38ce:	00003797          	auipc	a5,0x3
    38d2:	32a78793          	addi	a5,a5,810 # 6bf8 <init_jk+0x20>
    38d6:	4390                	lw	a2,0(a5)
    38d8:	43d4                	lw	a3,4(a5)
    38da:	265d                	jal	3c80 <__adddf3>
    38dc:	864a                	mv	a2,s2
    38de:	86ce                	mv	a3,s3
    38e0:	19c010ef          	jal	ra,4a7c <__muldf3>
    38e4:	00003797          	auipc	a5,0x3
    38e8:	31c78793          	addi	a5,a5,796 # 6c00 <init_jk+0x28>
    38ec:	4390                	lw	a2,0(a5)
    38ee:	43d4                	lw	a3,4(a5)
    38f0:	644010ef          	jal	ra,4f34 <__subdf3>
    38f4:	864a                	mv	a2,s2
    38f6:	86ce                	mv	a3,s3
    38f8:	184010ef          	jal	ra,4a7c <__muldf3>
    38fc:	00003797          	auipc	a5,0x3
    3900:	30c78793          	addi	a5,a5,780 # 6c08 <init_jk+0x30>
    3904:	4390                	lw	a2,0(a5)
    3906:	43d4                	lw	a3,4(a5)
    3908:	2ea5                	jal	3c80 <__adddf3>
    390a:	8d2a                	mv	s10,a0
    390c:	8dae                	mv	s11,a1
    390e:	040c1a63          	bnez	s8,3962 <__kernel_sin+0x11e>
    3912:	862a                	mv	a2,a0
    3914:	86ae                	mv	a3,a1
    3916:	854a                	mv	a0,s2
    3918:	85ce                	mv	a1,s3
    391a:	162010ef          	jal	ra,4a7c <__muldf3>
    391e:	00003797          	auipc	a5,0x3
    3922:	2f278793          	addi	a5,a5,754 # 6c10 <init_jk+0x38>
    3926:	4390                	lw	a2,0(a5)
    3928:	43d4                	lw	a3,4(a5)
    392a:	60a010ef          	jal	ra,4f34 <__subdf3>
    392e:	865a                	mv	a2,s6
    3930:	86de                	mv	a3,s7
    3932:	14a010ef          	jal	ra,4a7c <__muldf3>
    3936:	8626                	mv	a2,s1
    3938:	86a2                	mv	a3,s0
    393a:	2699                	jal	3c80 <__adddf3>
    393c:	872a                	mv	a4,a0
    393e:	87ae                	mv	a5,a1
    3940:	50f2                	lw	ra,60(sp)
    3942:	5462                	lw	s0,56(sp)
    3944:	54d2                	lw	s1,52(sp)
    3946:	5942                	lw	s2,48(sp)
    3948:	59b2                	lw	s3,44(sp)
    394a:	5a22                	lw	s4,40(sp)
    394c:	5a92                	lw	s5,36(sp)
    394e:	5b02                	lw	s6,32(sp)
    3950:	4bf2                	lw	s7,28(sp)
    3952:	4c62                	lw	s8,24(sp)
    3954:	4cd2                	lw	s9,20(sp)
    3956:	4d42                	lw	s10,16(sp)
    3958:	4db2                	lw	s11,12(sp)
    395a:	853a                	mv	a0,a4
    395c:	85be                	mv	a1,a5
    395e:	6121                	addi	sp,sp,64
    3960:	8082                	ret
    3962:	00003797          	auipc	a5,0x3
    3966:	fe678793          	addi	a5,a5,-26 # 6948 <original_vertices+0x98>
    396a:	4390                	lw	a2,0(a5)
    396c:	43d4                	lw	a3,4(a5)
    396e:	8552                	mv	a0,s4
    3970:	85d6                	mv	a1,s5
    3972:	10a010ef          	jal	ra,4a7c <__muldf3>
    3976:	8c2a                	mv	s8,a0
    3978:	8cae                	mv	s9,a1
    397a:	866a                	mv	a2,s10
    397c:	86ee                	mv	a3,s11
    397e:	855a                	mv	a0,s6
    3980:	85de                	mv	a1,s7
    3982:	0fa010ef          	jal	ra,4a7c <__muldf3>
    3986:	862a                	mv	a2,a0
    3988:	86ae                	mv	a3,a1
    398a:	8562                	mv	a0,s8
    398c:	85e6                	mv	a1,s9
    398e:	5a6010ef          	jal	ra,4f34 <__subdf3>
    3992:	864a                	mv	a2,s2
    3994:	86ce                	mv	a3,s3
    3996:	0e6010ef          	jal	ra,4a7c <__muldf3>
    399a:	8652                	mv	a2,s4
    399c:	86d6                	mv	a3,s5
    399e:	596010ef          	jal	ra,4f34 <__subdf3>
    39a2:	00003797          	auipc	a5,0x3
    39a6:	26e78793          	addi	a5,a5,622 # 6c10 <init_jk+0x38>
    39aa:	4390                	lw	a2,0(a5)
    39ac:	43d4                	lw	a3,4(a5)
    39ae:	892a                	mv	s2,a0
    39b0:	89ae                	mv	s3,a1
    39b2:	855a                	mv	a0,s6
    39b4:	85de                	mv	a1,s7
    39b6:	0c6010ef          	jal	ra,4a7c <__muldf3>
    39ba:	862a                	mv	a2,a0
    39bc:	86ae                	mv	a3,a1
    39be:	854a                	mv	a0,s2
    39c0:	85ce                	mv	a1,s3
    39c2:	2c7d                	jal	3c80 <__adddf3>
    39c4:	862a                	mv	a2,a0
    39c6:	86ae                	mv	a3,a1
    39c8:	8526                	mv	a0,s1
    39ca:	85a2                	mv	a1,s0
    39cc:	568010ef          	jal	ra,4f34 <__subdf3>
    39d0:	872a                	mv	a4,a0
    39d2:	87ae                	mv	a5,a1
    39d4:	b7b5                	j	3940 <__kernel_sin+0xfc>

000039d6 <fabs>:
fabs():
    39d6:	0586                	slli	a1,a1,0x1
    39d8:	8185                	srli	a1,a1,0x1
    39da:	8082                	ret

000039dc <floor>:
floor():
    39dc:	4145d793          	srai	a5,a1,0x14
    39e0:	1101                	addi	sp,sp,-32
    39e2:	7ff7f793          	andi	a5,a5,2047
    39e6:	cc22                	sw	s0,24(sp)
    39e8:	ca26                	sw	s1,20(sp)
    39ea:	c84a                	sw	s2,16(sp)
    39ec:	c64e                	sw	s3,12(sp)
    39ee:	c452                	sw	s4,8(sp)
    39f0:	ce06                	sw	ra,28(sp)
    39f2:	c256                	sw	s5,4(sp)
    39f4:	c05a                	sw	s6,0(sp)
    39f6:	c0178493          	addi	s1,a5,-1023
    39fa:	474d                	li	a4,19
    39fc:	842e                	mv	s0,a1
    39fe:	89aa                	mv	s3,a0
    3a00:	892e                	mv	s2,a1
    3a02:	8a2a                	mv	s4,a0
    3a04:	08974863          	blt	a4,s1,3a94 <floor+0xb8>
    3a08:	0604c463          	bltz	s1,3a70 <floor+0x94>
    3a0c:	00100b37          	lui	s6,0x100
    3a10:	fffb0a93          	addi	s5,s6,-1 # fffff <_data_lma+0xf9207>
    3a14:	409adab3          	sra	s5,s5,s1
    3a18:	00baf7b3          	and	a5,s5,a1
    3a1c:	8fc9                	or	a5,a5,a0
    3a1e:	86aa                	mv	a3,a0
    3a20:	872e                	mv	a4,a1
    3a22:	cb9d                	beqz	a5,3a58 <floor+0x7c>
    3a24:	00003797          	auipc	a5,0x3
    3a28:	1f478793          	addi	a5,a5,500 # 6c18 <init_jk+0x40>
    3a2c:	4390                	lw	a2,0(a5)
    3a2e:	43d4                	lw	a3,4(a5)
    3a30:	2c81                	jal	3c80 <__adddf3>
    3a32:	4601                	li	a2,0
    3a34:	4681                	li	a3,0
    3a36:	799000ef          	jal	ra,49ce <__gedf2>
    3a3a:	00a05d63          	blez	a0,3a54 <floor+0x78>
    3a3e:	00045663          	bgez	s0,3a4a <floor+0x6e>
    3a42:	409b54b3          	sra	s1,s6,s1
    3a46:	00848933          	add	s2,s1,s0
    3a4a:	fffaca93          	not	s5,s5
    3a4e:	01597933          	and	s2,s2,s5
    3a52:	4a01                	li	s4,0
    3a54:	86d2                	mv	a3,s4
    3a56:	874a                	mv	a4,s2
    3a58:	40f2                	lw	ra,28(sp)
    3a5a:	4462                	lw	s0,24(sp)
    3a5c:	44d2                	lw	s1,20(sp)
    3a5e:	4942                	lw	s2,16(sp)
    3a60:	49b2                	lw	s3,12(sp)
    3a62:	4a22                	lw	s4,8(sp)
    3a64:	4a92                	lw	s5,4(sp)
    3a66:	4b02                	lw	s6,0(sp)
    3a68:	8536                	mv	a0,a3
    3a6a:	85ba                	mv	a1,a4
    3a6c:	6105                	addi	sp,sp,32
    3a6e:	8082                	ret
    3a70:	00003797          	auipc	a5,0x3
    3a74:	1a878793          	addi	a5,a5,424 # 6c18 <init_jk+0x40>
    3a78:	4390                	lw	a2,0(a5)
    3a7a:	43d4                	lw	a3,4(a5)
    3a7c:	2411                	jal	3c80 <__adddf3>
    3a7e:	4601                	li	a2,0
    3a80:	4681                	li	a3,0
    3a82:	74d000ef          	jal	ra,49ce <__gedf2>
    3a86:	fca057e3          	blez	a0,3a54 <floor+0x78>
    3a8a:	06044363          	bltz	s0,3af0 <floor+0x114>
    3a8e:	4a01                	li	s4,0
    3a90:	4901                	li	s2,0
    3a92:	b7c9                	j	3a54 <floor+0x78>
    3a94:	03300713          	li	a4,51
    3a98:	00975e63          	bge	a4,s1,3ab4 <floor+0xd8>
    3a9c:	40000793          	li	a5,1024
    3aa0:	86aa                	mv	a3,a0
    3aa2:	872e                	mv	a4,a1
    3aa4:	faf49ae3          	bne	s1,a5,3a58 <floor+0x7c>
    3aa8:	86ae                	mv	a3,a1
    3aaa:	862a                	mv	a2,a0
    3aac:	2ad1                	jal	3c80 <__adddf3>
    3aae:	86aa                	mv	a3,a0
    3ab0:	872e                	mv	a4,a1
    3ab2:	b75d                	j	3a58 <floor+0x7c>
    3ab4:	bed78793          	addi	a5,a5,-1043
    3ab8:	5afd                	li	s5,-1
    3aba:	00fadab3          	srl	s5,s5,a5
    3abe:	00aaf7b3          	and	a5,s5,a0
    3ac2:	86aa                	mv	a3,a0
    3ac4:	872e                	mv	a4,a1
    3ac6:	dbc9                	beqz	a5,3a58 <floor+0x7c>
    3ac8:	00003797          	auipc	a5,0x3
    3acc:	15078793          	addi	a5,a5,336 # 6c18 <init_jk+0x40>
    3ad0:	4390                	lw	a2,0(a5)
    3ad2:	43d4                	lw	a3,4(a5)
    3ad4:	2275                	jal	3c80 <__adddf3>
    3ad6:	4601                	li	a2,0
    3ad8:	4681                	li	a3,0
    3ada:	6f5000ef          	jal	ra,49ce <__gedf2>
    3ade:	f6a05be3          	blez	a0,3a54 <floor+0x78>
    3ae2:	02044063          	bltz	s0,3b02 <floor+0x126>
    3ae6:	fffac793          	not	a5,s5
    3aea:	00fa7a33          	and	s4,s4,a5
    3aee:	b79d                	j	3a54 <floor+0x78>
    3af0:	0406                	slli	s0,s0,0x1
    3af2:	8005                	srli	s0,s0,0x1
    3af4:	01346433          	or	s0,s0,s3
    3af8:	4a01                	li	s4,0
    3afa:	dc29                	beqz	s0,3a54 <floor+0x78>
    3afc:	bff00937          	lui	s2,0xbff00
    3b00:	bf91                	j	3a54 <floor+0x78>
    3b02:	47d1                	li	a5,20
    3b04:	00f48f63          	beq	s1,a5,3b22 <floor+0x146>
    3b08:	03400793          	li	a5,52
    3b0c:	8f85                	sub	a5,a5,s1
    3b0e:	4485                	li	s1,1
    3b10:	00f494b3          	sll	s1,s1,a5
    3b14:	99a6                	add	s3,s3,s1
    3b16:	0149f963          	bgeu	s3,s4,3b28 <floor+0x14c>
    3b1a:	00140913          	addi	s2,s0,1
    3b1e:	8a4e                	mv	s4,s3
    3b20:	b7d9                	j	3ae6 <floor+0x10a>
    3b22:	00140913          	addi	s2,s0,1
    3b26:	b7c1                	j	3ae6 <floor+0x10a>
    3b28:	8a4e                	mv	s4,s3
    3b2a:	bf75                	j	3ae6 <floor+0x10a>

00003b2c <scalbn>:
scalbn():
    3b2c:	1141                	addi	sp,sp,-16
    3b2e:	4145d793          	srai	a5,a1,0x14
    3b32:	c422                	sw	s0,8(sp)
    3b34:	c606                	sw	ra,12(sp)
    3b36:	c226                	sw	s1,4(sp)
    3b38:	7ff7f793          	andi	a5,a5,2047
    3b3c:	872e                	mv	a4,a1
    3b3e:	86aa                	mv	a3,a0
    3b40:	8432                	mv	s0,a2
    3b42:	e7c1                	bnez	a5,3bca <scalbn+0x9e>
    3b44:	00159793          	slli	a5,a1,0x1
    3b48:	8385                	srli	a5,a5,0x1
    3b4a:	8fc9                	or	a5,a5,a0
    3b4c:	cba5                	beqz	a5,3bbc <scalbn+0x90>
    3b4e:	00003797          	auipc	a5,0x3
    3b52:	0d278793          	addi	a5,a5,210 # 6c20 <init_jk+0x48>
    3b56:	43d4                	lw	a3,4(a5)
    3b58:	4390                	lw	a2,0(a5)
    3b5a:	723000ef          	jal	ra,4a7c <__muldf3>
    3b5e:	77d1                	lui	a5,0xffff4
    3b60:	cb078793          	addi	a5,a5,-848 # ffff3cb0 <_eusrstack+0xdffed4b0>
    3b64:	86aa                	mv	a3,a0
    3b66:	872e                	mv	a4,a1
    3b68:	0ef44063          	blt	s0,a5,3c48 <scalbn+0x11c>
    3b6c:	4145d793          	srai	a5,a1,0x14
    3b70:	7ff7f793          	andi	a5,a5,2047
    3b74:	862e                	mv	a2,a1
    3b76:	fca78793          	addi	a5,a5,-54
    3b7a:	97a2                	add	a5,a5,s0
    3b7c:	7fe00593          	li	a1,2046
    3b80:	0af5c263          	blt	a1,a5,3c24 <scalbn+0xf8>
    3b84:	0af04563          	bgtz	a5,3c2e <scalbn+0x102>
    3b88:	fcb00593          	li	a1,-53
    3b8c:	06b7d063          	bge	a5,a1,3bec <scalbn+0xc0>
    3b90:	67b1                	lui	a5,0xc
    3b92:	35078793          	addi	a5,a5,848 # c350 <_data_lma+0x5558>
    3b96:	0887c763          	blt	a5,s0,3c24 <scalbn+0xf8>
    3b9a:	00003797          	auipc	a5,0x3
    3b9e:	08e78793          	addi	a5,a5,142 # 6c28 <init_jk+0x50>
    3ba2:	4380                	lw	s0,0(a5)
    3ba4:	43c4                	lw	s1,4(a5)
    3ba6:	8636                	mv	a2,a3
    3ba8:	8522                	mv	a0,s0
    3baa:	86ba                	mv	a3,a4
    3bac:	85a6                	mv	a1,s1
    3bae:	2875                	jal	3c6a <copysign>
    3bb0:	86a6                	mv	a3,s1
    3bb2:	8622                	mv	a2,s0
    3bb4:	6c9000ef          	jal	ra,4a7c <__muldf3>
    3bb8:	86aa                	mv	a3,a0
    3bba:	872e                	mv	a4,a1
    3bbc:	40b2                	lw	ra,12(sp)
    3bbe:	4422                	lw	s0,8(sp)
    3bc0:	4492                	lw	s1,4(sp)
    3bc2:	8536                	mv	a0,a3
    3bc4:	85ba                	mv	a1,a4
    3bc6:	0141                	addi	sp,sp,16
    3bc8:	8082                	ret
    3bca:	7ff00813          	li	a6,2047
    3bce:	862e                	mv	a2,a1
    3bd0:	fb0795e3          	bne	a5,a6,3b7a <scalbn+0x4e>
    3bd4:	86ae                	mv	a3,a1
    3bd6:	862a                	mv	a2,a0
    3bd8:	2065                	jal	3c80 <__adddf3>
    3bda:	40b2                	lw	ra,12(sp)
    3bdc:	4422                	lw	s0,8(sp)
    3bde:	86aa                	mv	a3,a0
    3be0:	872e                	mv	a4,a1
    3be2:	4492                	lw	s1,4(sp)
    3be4:	8536                	mv	a0,a3
    3be6:	85ba                	mv	a1,a4
    3be8:	0141                	addi	sp,sp,16
    3bea:	8082                	ret
    3bec:	80100737          	lui	a4,0x80100
    3bf0:	177d                	addi	a4,a4,-1
    3bf2:	03678793          	addi	a5,a5,54
    3bf6:	8e79                	and	a2,a2,a4
    3bf8:	07d2                	slli	a5,a5,0x14
    3bfa:	00003717          	auipc	a4,0x3
    3bfe:	03670713          	addi	a4,a4,54 # 6c30 <init_jk+0x58>
    3c02:	85b6                	mv	a1,a3
    3c04:	8fd1                	or	a5,a5,a2
    3c06:	4354                	lw	a3,4(a4)
    3c08:	4310                	lw	a2,0(a4)
    3c0a:	852e                	mv	a0,a1
    3c0c:	85be                	mv	a1,a5
    3c0e:	66f000ef          	jal	ra,4a7c <__muldf3>
    3c12:	40b2                	lw	ra,12(sp)
    3c14:	4422                	lw	s0,8(sp)
    3c16:	86aa                	mv	a3,a0
    3c18:	872e                	mv	a4,a1
    3c1a:	4492                	lw	s1,4(sp)
    3c1c:	8536                	mv	a0,a3
    3c1e:	85ba                	mv	a1,a4
    3c20:	0141                	addi	sp,sp,16
    3c22:	8082                	ret
    3c24:	00003797          	auipc	a5,0x3
    3c28:	ff478793          	addi	a5,a5,-12 # 6c18 <init_jk+0x40>
    3c2c:	bf9d                	j	3ba2 <scalbn+0x76>
    3c2e:	80100737          	lui	a4,0x80100
    3c32:	40b2                	lw	ra,12(sp)
    3c34:	4422                	lw	s0,8(sp)
    3c36:	177d                	addi	a4,a4,-1
    3c38:	8f71                	and	a4,a4,a2
    3c3a:	07d2                	slli	a5,a5,0x14
    3c3c:	8f5d                	or	a4,a4,a5
    3c3e:	4492                	lw	s1,4(sp)
    3c40:	8536                	mv	a0,a3
    3c42:	85ba                	mv	a1,a4
    3c44:	0141                	addi	sp,sp,16
    3c46:	8082                	ret
    3c48:	00003797          	auipc	a5,0x3
    3c4c:	fe078793          	addi	a5,a5,-32 # 6c28 <init_jk+0x50>
    3c50:	43d4                	lw	a3,4(a5)
    3c52:	4390                	lw	a2,0(a5)
    3c54:	629000ef          	jal	ra,4a7c <__muldf3>
    3c58:	40b2                	lw	ra,12(sp)
    3c5a:	4422                	lw	s0,8(sp)
    3c5c:	86aa                	mv	a3,a0
    3c5e:	872e                	mv	a4,a1
    3c60:	4492                	lw	s1,4(sp)
    3c62:	8536                	mv	a0,a3
    3c64:	85ba                	mv	a1,a4
    3c66:	0141                	addi	sp,sp,16
    3c68:	8082                	ret

00003c6a <copysign>:
copysign():
    3c6a:	80000737          	lui	a4,0x80000
    3c6e:	fff74793          	not	a5,a4
    3c72:	8ef9                	and	a3,a3,a4
    3c74:	8fed                	and	a5,a5,a1
    3c76:	872a                	mv	a4,a0
    3c78:	8fd5                	or	a5,a5,a3
    3c7a:	853a                	mv	a0,a4
    3c7c:	85be                	mv	a1,a5
    3c7e:	8082                	ret

00003c80 <__adddf3>:
__adddf3():
    3c80:	00100837          	lui	a6,0x100
    3c84:	1101                	addi	sp,sp,-32
    3c86:	187d                	addi	a6,a6,-1
    3c88:	00b87733          	and	a4,a6,a1
    3c8c:	ca26                	sw	s1,20(sp)
    3c8e:	00d87833          	and	a6,a6,a3
    3c92:	0145d493          	srli	s1,a1,0x14
    3c96:	0146d313          	srli	t1,a3,0x14
    3c9a:	00371e13          	slli	t3,a4,0x3
    3c9e:	c64e                	sw	s3,12(sp)
    3ca0:	01d55713          	srli	a4,a0,0x1d
    3ca4:	080e                	slli	a6,a6,0x3
    3ca6:	01d65793          	srli	a5,a2,0x1d
    3caa:	7ff4f493          	andi	s1,s1,2047
    3cae:	7ff37313          	andi	t1,t1,2047
    3cb2:	ce06                	sw	ra,28(sp)
    3cb4:	cc22                	sw	s0,24(sp)
    3cb6:	c84a                	sw	s2,16(sp)
    3cb8:	01f5d993          	srli	s3,a1,0x1f
    3cbc:	01f6de93          	srli	t4,a3,0x1f
    3cc0:	01c76733          	or	a4,a4,t3
    3cc4:	00351f13          	slli	t5,a0,0x3
    3cc8:	0107e833          	or	a6,a5,a6
    3ccc:	00361f93          	slli	t6,a2,0x3
    3cd0:	40648e33          	sub	t3,s1,t1
    3cd4:	19d98063          	beq	s3,t4,3e54 <__adddf3+0x1d4>
    3cd8:	13c05663          	blez	t3,3e04 <__adddf3+0x184>
    3cdc:	1c030463          	beqz	t1,3ea4 <__adddf3+0x224>
    3ce0:	008006b7          	lui	a3,0x800
    3ce4:	7ff00793          	li	a5,2047
    3ce8:	00d86833          	or	a6,a6,a3
    3cec:	36f48f63          	beq	s1,a5,406a <__adddf3+0x3ea>
    3cf0:	03800793          	li	a5,56
    3cf4:	35c7c063          	blt	a5,t3,4034 <__adddf3+0x3b4>
    3cf8:	47fd                	li	a5,31
    3cfa:	47c7cd63          	blt	a5,t3,4174 <__adddf3+0x4f4>
    3cfe:	02000513          	li	a0,32
    3d02:	41c50533          	sub	a0,a0,t3
    3d06:	01cfd7b3          	srl	a5,t6,t3
    3d0a:	00a816b3          	sll	a3,a6,a0
    3d0e:	00af9933          	sll	s2,t6,a0
    3d12:	8edd                	or	a3,a3,a5
    3d14:	01203933          	snez	s2,s2
    3d18:	01c857b3          	srl	a5,a6,t3
    3d1c:	0126e933          	or	s2,a3,s2
    3d20:	8f1d                	sub	a4,a4,a5
    3d22:	412f0933          	sub	s2,t5,s2
    3d26:	012f37b3          	sltu	a5,t5,s2
    3d2a:	40f70633          	sub	a2,a4,a5
    3d2e:	00861793          	slli	a5,a2,0x8
    3d32:	2407d463          	bgez	a5,3f7a <__adddf3+0x2fa>
    3d36:	00800737          	lui	a4,0x800
    3d3a:	177d                	addi	a4,a4,-1
    3d3c:	00e67433          	and	s0,a2,a4
    3d40:	2c040c63          	beqz	s0,4018 <__adddf3+0x398>
    3d44:	8522                	mv	a0,s0
    3d46:	7dc020ef          	jal	ra,6522 <__clzsi2>
    3d4a:	ff850713          	addi	a4,a0,-8 # e0ff8 <_data_lma+0xda200>
    3d4e:	02000793          	li	a5,32
    3d52:	8f99                	sub	a5,a5,a4
    3d54:	00f957b3          	srl	a5,s2,a5
    3d58:	00e41633          	sll	a2,s0,a4
    3d5c:	8fd1                	or	a5,a5,a2
    3d5e:	00e91933          	sll	s2,s2,a4
    3d62:	2a974163          	blt	a4,s1,4004 <__adddf3+0x384>
    3d66:	40970533          	sub	a0,a4,s1
    3d6a:	00150613          	addi	a2,a0,1
    3d6e:	477d                	li	a4,31
    3d70:	38c74d63          	blt	a4,a2,410a <__adddf3+0x48a>
    3d74:	02000713          	li	a4,32
    3d78:	8f11                	sub	a4,a4,a2
    3d7a:	00c956b3          	srl	a3,s2,a2
    3d7e:	00e91933          	sll	s2,s2,a4
    3d82:	00e79733          	sll	a4,a5,a4
    3d86:	8f55                	or	a4,a4,a3
    3d88:	01203933          	snez	s2,s2
    3d8c:	01276933          	or	s2,a4,s2
    3d90:	00c7d633          	srl	a2,a5,a2
    3d94:	4481                	li	s1,0
    3d96:	00797793          	andi	a5,s2,7
    3d9a:	cf81                	beqz	a5,3db2 <__adddf3+0x132>
    3d9c:	00f97713          	andi	a4,s2,15
    3da0:	4791                	li	a5,4
    3da2:	00f70863          	beq	a4,a5,3db2 <__adddf3+0x132>
    3da6:	00490713          	addi	a4,s2,4 # bff00004 <_eusrstack+0x9fef9804>
    3daa:	01273933          	sltu	s2,a4,s2
    3dae:	964a                	add	a2,a2,s2
    3db0:	893a                	mv	s2,a4
    3db2:	00861793          	slli	a5,a2,0x8
    3db6:	1c07d663          	bgez	a5,3f82 <__adddf3+0x302>
    3dba:	00148513          	addi	a0,s1,1
    3dbe:	7ff00793          	li	a5,2047
    3dc2:	85ce                	mv	a1,s3
    3dc4:	20f50463          	beq	a0,a5,3fcc <__adddf3+0x34c>
    3dc8:	ff8007b7          	lui	a5,0xff800
    3dcc:	17fd                	addi	a5,a5,-1
    3dce:	8ff1                	and	a5,a5,a2
    3dd0:	01d79893          	slli	a7,a5,0x1d
    3dd4:	00395913          	srli	s2,s2,0x3
    3dd8:	07a6                	slli	a5,a5,0x9
    3dda:	0128e8b3          	or	a7,a7,s2
    3dde:	83b1                	srli	a5,a5,0xc
    3de0:	7ff57513          	andi	a0,a0,2047
    3de4:	00c79693          	slli	a3,a5,0xc
    3de8:	0552                	slli	a0,a0,0x14
    3dea:	40f2                	lw	ra,28(sp)
    3dec:	4462                	lw	s0,24(sp)
    3dee:	82b1                	srli	a3,a3,0xc
    3df0:	05fe                	slli	a1,a1,0x1f
    3df2:	8ec9                	or	a3,a3,a0
    3df4:	8ecd                	or	a3,a3,a1
    3df6:	44d2                	lw	s1,20(sp)
    3df8:	4942                	lw	s2,16(sp)
    3dfa:	49b2                	lw	s3,12(sp)
    3dfc:	8546                	mv	a0,a7
    3dfe:	85b6                	mv	a1,a3
    3e00:	6105                	addi	sp,sp,32
    3e02:	8082                	ret
    3e04:	0a0e1e63          	bnez	t3,3ec0 <__adddf3+0x240>
    3e08:	00148313          	addi	t1,s1,1
    3e0c:	7fe37313          	andi	t1,t1,2046
    3e10:	22031763          	bnez	t1,403e <__adddf3+0x3be>
    3e14:	01e767b3          	or	a5,a4,t5
    3e18:	01f868b3          	or	a7,a6,t6
    3e1c:	1a049d63          	bnez	s1,3fd6 <__adddf3+0x356>
    3e20:	40078763          	beqz	a5,422e <__adddf3+0x5ae>
    3e24:	44088663          	beqz	a7,4270 <__adddf3+0x5f0>
    3e28:	41ff0933          	sub	s2,t5,t6
    3e2c:	410707b3          	sub	a5,a4,a6
    3e30:	012f3633          	sltu	a2,t5,s2
    3e34:	40c78633          	sub	a2,a5,a2
    3e38:	00861793          	slli	a5,a2,0x8
    3e3c:	4c07d663          	bgez	a5,4308 <__adddf3+0x688>
    3e40:	41ef8933          	sub	s2,t6,t5
    3e44:	40e807b3          	sub	a5,a6,a4
    3e48:	012fb633          	sltu	a2,t6,s2
    3e4c:	40c78633          	sub	a2,a5,a2
    3e50:	89f6                	mv	s3,t4
    3e52:	b791                	j	3d96 <__adddf3+0x116>
    3e54:	0fc05063          	blez	t3,3f34 <__adddf3+0x2b4>
    3e58:	0c030063          	beqz	t1,3f18 <__adddf3+0x298>
    3e5c:	008006b7          	lui	a3,0x800
    3e60:	7ff00793          	li	a5,2047
    3e64:	00d86833          	or	a6,a6,a3
    3e68:	3af48a63          	beq	s1,a5,421c <__adddf3+0x59c>
    3e6c:	03800793          	li	a5,56
    3e70:	13c7cb63          	blt	a5,t3,3fa6 <__adddf3+0x326>
    3e74:	47fd                	li	a5,31
    3e76:	35c7df63          	bge	a5,t3,41d4 <__adddf3+0x554>
    3e7a:	fe0e0913          	addi	s2,t3,-32
    3e7e:	02000793          	li	a5,32
    3e82:	012856b3          	srl	a3,a6,s2
    3e86:	00fe0a63          	beq	t3,a5,3e9a <__adddf3+0x21a>
    3e8a:	04000913          	li	s2,64
    3e8e:	41c90933          	sub	s2,s2,t3
    3e92:	01281933          	sll	s2,a6,s2
    3e96:	012fefb3          	or	t6,t6,s2
    3e9a:	01f03933          	snez	s2,t6
    3e9e:	00d96933          	or	s2,s2,a3
    3ea2:	a231                	j	3fae <__adddf3+0x32e>
    3ea4:	01f867b3          	or	a5,a6,t6
    3ea8:	1c078a63          	beqz	a5,407c <__adddf3+0x3fc>
    3eac:	fffe0793          	addi	a5,t3,-1
    3eb0:	38078c63          	beqz	a5,4248 <__adddf3+0x5c8>
    3eb4:	7ff00693          	li	a3,2047
    3eb8:	1ade0963          	beq	t3,a3,406a <__adddf3+0x3ea>
    3ebc:	8e3e                	mv	t3,a5
    3ebe:	bd0d                	j	3cf0 <__adddf3+0x70>
    3ec0:	409305b3          	sub	a1,t1,s1
    3ec4:	22049163          	bnez	s1,40e6 <__adddf3+0x466>
    3ec8:	01e767b3          	or	a5,a4,t5
    3ecc:	32078763          	beqz	a5,41fa <__adddf3+0x57a>
    3ed0:	fff58793          	addi	a5,a1,-1
    3ed4:	44078163          	beqz	a5,4316 <__adddf3+0x696>
    3ed8:	7ff00693          	li	a3,2047
    3edc:	20d58c63          	beq	a1,a3,40f4 <__adddf3+0x474>
    3ee0:	85be                	mv	a1,a5
    3ee2:	03800793          	li	a5,56
    3ee6:	2ab7cc63          	blt	a5,a1,419e <__adddf3+0x51e>
    3eea:	47fd                	li	a5,31
    3eec:	3cb7cf63          	blt	a5,a1,42ca <__adddf3+0x64a>
    3ef0:	02000793          	li	a5,32
    3ef4:	8f8d                	sub	a5,a5,a1
    3ef6:	00f71933          	sll	s2,a4,a5
    3efa:	00bf56b3          	srl	a3,t5,a1
    3efe:	00ff17b3          	sll	a5,t5,a5
    3f02:	00d96933          	or	s2,s2,a3
    3f06:	00f037b3          	snez	a5,a5
    3f0a:	00b75733          	srl	a4,a4,a1
    3f0e:	00f96933          	or	s2,s2,a5
    3f12:	40e80833          	sub	a6,a6,a4
    3f16:	ac41                	j	41a6 <__adddf3+0x526>
    3f18:	01f867b3          	or	a5,a6,t6
    3f1c:	34078063          	beqz	a5,425c <__adddf3+0x5dc>
    3f20:	fffe0793          	addi	a5,t3,-1
    3f24:	20078a63          	beqz	a5,4138 <__adddf3+0x4b8>
    3f28:	7ff00693          	li	a3,2047
    3f2c:	2ede0863          	beq	t3,a3,421c <__adddf3+0x59c>
    3f30:	8e3e                	mv	t3,a5
    3f32:	bf2d                	j	3e6c <__adddf3+0x1ec>
    3f34:	140e1e63          	bnez	t3,4090 <__adddf3+0x410>
    3f38:	00148693          	addi	a3,s1,1
    3f3c:	7fe6f793          	andi	a5,a3,2046
    3f40:	34079163          	bnez	a5,4282 <__adddf3+0x602>
    3f44:	01e767b3          	or	a5,a4,t5
    3f48:	2c049563          	bnez	s1,4212 <__adddf3+0x592>
    3f4c:	3e078063          	beqz	a5,432c <__adddf3+0x6ac>
    3f50:	01f867b3          	or	a5,a6,t6
    3f54:	30078e63          	beqz	a5,4270 <__adddf3+0x5f0>
    3f58:	01ff0933          	add	s2,t5,t6
    3f5c:	010707b3          	add	a5,a4,a6
    3f60:	01e93f33          	sltu	t5,s2,t5
    3f64:	01e78633          	add	a2,a5,t5
    3f68:	00861793          	slli	a5,a2,0x8
    3f6c:	0007d763          	bgez	a5,3f7a <__adddf3+0x2fa>
    3f70:	ff8007b7          	lui	a5,0xff800
    3f74:	17fd                	addi	a5,a5,-1
    3f76:	8e7d                	and	a2,a2,a5
    3f78:	4485                	li	s1,1
    3f7a:	00797793          	andi	a5,s2,7
    3f7e:	e0079fe3          	bnez	a5,3d9c <__adddf3+0x11c>
    3f82:	01d61793          	slli	a5,a2,0x1d
    3f86:	00395893          	srli	a7,s2,0x3
    3f8a:	00f8e8b3          	or	a7,a7,a5
    3f8e:	00365793          	srli	a5,a2,0x3
    3f92:	7ff00713          	li	a4,2047
    3f96:	04e48d63          	beq	s1,a4,3ff0 <__adddf3+0x370>
    3f9a:	07b2                	slli	a5,a5,0xc
    3f9c:	83b1                	srli	a5,a5,0xc
    3f9e:	7ff4f513          	andi	a0,s1,2047
    3fa2:	85ce                	mv	a1,s3
    3fa4:	b581                	j	3de4 <__adddf3+0x164>
    3fa6:	01f86933          	or	s2,a6,t6
    3faa:	01203933          	snez	s2,s2
    3fae:	997a                	add	s2,s2,t5
    3fb0:	01e937b3          	sltu	a5,s2,t5
    3fb4:	00e78633          	add	a2,a5,a4
    3fb8:	00861793          	slli	a5,a2,0x8
    3fbc:	fa07dfe3          	bgez	a5,3f7a <__adddf3+0x2fa>
    3fc0:	0485                	addi	s1,s1,1
    3fc2:	7ff00793          	li	a5,2047
    3fc6:	18f49663          	bne	s1,a5,4152 <__adddf3+0x4d2>
    3fca:	85ce                	mv	a1,s3
    3fcc:	7ff00513          	li	a0,2047
    3fd0:	4781                	li	a5,0
    3fd2:	4881                	li	a7,0
    3fd4:	bd01                	j	3de4 <__adddf3+0x164>
    3fd6:	ebc1                	bnez	a5,4066 <__adddf3+0x3e6>
    3fd8:	3a088463          	beqz	a7,4380 <__adddf3+0x700>
    3fdc:	00361693          	slli	a3,a2,0x3
    3fe0:	01d81793          	slli	a5,a6,0x1d
    3fe4:	828d                	srli	a3,a3,0x3
    3fe6:	00d7e8b3          	or	a7,a5,a3
    3fea:	89f6                	mv	s3,t4
    3fec:	00385793          	srli	a5,a6,0x3
    3ff0:	00f8e7b3          	or	a5,a7,a5
    3ff4:	dbf9                	beqz	a5,3fca <__adddf3+0x34a>
    3ff6:	4581                	li	a1,0
    3ff8:	7ff00513          	li	a0,2047
    3ffc:	000807b7          	lui	a5,0x80
    4000:	4881                	li	a7,0
    4002:	b3cd                	j	3de4 <__adddf3+0x164>
    4004:	ff800637          	lui	a2,0xff800
    4008:	167d                	addi	a2,a2,-1
    400a:	8e7d                	and	a2,a2,a5
    400c:	00797793          	andi	a5,s2,7
    4010:	8c99                	sub	s1,s1,a4
    4012:	d80795e3          	bnez	a5,3d9c <__adddf3+0x11c>
    4016:	b7b5                	j	3f82 <__adddf3+0x302>
    4018:	854a                	mv	a0,s2
    401a:	508020ef          	jal	ra,6522 <__clzsi2>
    401e:	01850713          	addi	a4,a0,24
    4022:	47fd                	li	a5,31
    4024:	d2e7d5e3          	bge	a5,a4,3d4e <__adddf3+0xce>
    4028:	ff850613          	addi	a2,a0,-8
    402c:	00c917b3          	sll	a5,s2,a2
    4030:	4901                	li	s2,0
    4032:	bb05                	j	3d62 <__adddf3+0xe2>
    4034:	01f86933          	or	s2,a6,t6
    4038:	01203933          	snez	s2,s2
    403c:	b1dd                	j	3d22 <__adddf3+0xa2>
    403e:	41ff0933          	sub	s2,t5,t6
    4042:	41070633          	sub	a2,a4,a6
    4046:	012f3433          	sltu	s0,t5,s2
    404a:	40860433          	sub	s0,a2,s0
    404e:	00841793          	slli	a5,s0,0x8
    4052:	2407cd63          	bltz	a5,42ac <__adddf3+0x62c>
    4056:	008968b3          	or	a7,s2,s0
    405a:	ce0893e3          	bnez	a7,3d40 <__adddf3+0xc0>
    405e:	4781                	li	a5,0
    4060:	4981                	li	s3,0
    4062:	4481                	li	s1,0
    4064:	bf1d                	j	3f9a <__adddf3+0x31a>
    4066:	f80898e3          	bnez	a7,3ff6 <__adddf3+0x376>
    406a:	050e                	slli	a0,a0,0x3
    406c:	01d71793          	slli	a5,a4,0x1d
    4070:	810d                	srli	a0,a0,0x3
    4072:	00a7e8b3          	or	a7,a5,a0
    4076:	00375793          	srli	a5,a4,0x3
    407a:	bf9d                	j	3ff0 <__adddf3+0x370>
    407c:	050e                	slli	a0,a0,0x3
    407e:	01d71793          	slli	a5,a4,0x1d
    4082:	810d                	srli	a0,a0,0x3
    4084:	00a7e8b3          	or	a7,a5,a0
    4088:	84f2                	mv	s1,t3
    408a:	00375793          	srli	a5,a4,0x3
    408e:	b711                	j	3f92 <__adddf3+0x312>
    4090:	40930533          	sub	a0,t1,s1
    4094:	12048263          	beqz	s1,41b8 <__adddf3+0x538>
    4098:	008006b7          	lui	a3,0x800
    409c:	7ff00793          	li	a5,2047
    40a0:	8f55                	or	a4,a4,a3
    40a2:	2ef30d63          	beq	t1,a5,439c <__adddf3+0x71c>
    40a6:	03800793          	li	a5,56
    40aa:	20a7cb63          	blt	a5,a0,42c0 <__adddf3+0x640>
    40ae:	47fd                	li	a5,31
    40b0:	2aa7c363          	blt	a5,a0,4356 <__adddf3+0x6d6>
    40b4:	02000793          	li	a5,32
    40b8:	8f89                	sub	a5,a5,a0
    40ba:	00f71933          	sll	s2,a4,a5
    40be:	00af56b3          	srl	a3,t5,a0
    40c2:	00ff17b3          	sll	a5,t5,a5
    40c6:	00d96933          	or	s2,s2,a3
    40ca:	00f037b3          	snez	a5,a5
    40ce:	00a75733          	srl	a4,a4,a0
    40d2:	00f96933          	or	s2,s2,a5
    40d6:	983a                	add	a6,a6,a4
    40d8:	997e                	add	s2,s2,t6
    40da:	01f937b3          	sltu	a5,s2,t6
    40de:	01078633          	add	a2,a5,a6
    40e2:	849a                	mv	s1,t1
    40e4:	bdd1                	j	3fb8 <__adddf3+0x338>
    40e6:	008006b7          	lui	a3,0x800
    40ea:	7ff00793          	li	a5,2047
    40ee:	8f55                	or	a4,a4,a3
    40f0:	def319e3          	bne	t1,a5,3ee2 <__adddf3+0x262>
    40f4:	00361793          	slli	a5,a2,0x3
    40f8:	838d                	srli	a5,a5,0x3
    40fa:	01d81893          	slli	a7,a6,0x1d
    40fe:	0117e8b3          	or	a7,a5,a7
    4102:	89f6                	mv	s3,t4
    4104:	00385793          	srli	a5,a6,0x3
    4108:	b5e5                	j	3ff0 <__adddf3+0x370>
    410a:	fe150713          	addi	a4,a0,-31
    410e:	02000693          	li	a3,32
    4112:	00e7d733          	srl	a4,a5,a4
    4116:	00d60a63          	beq	a2,a3,412a <__adddf3+0x4aa>
    411a:	04000693          	li	a3,64
    411e:	40c68633          	sub	a2,a3,a2
    4122:	00c79633          	sll	a2,a5,a2
    4126:	00c96933          	or	s2,s2,a2
    412a:	01203933          	snez	s2,s2
    412e:	00e96933          	or	s2,s2,a4
    4132:	4601                	li	a2,0
    4134:	4481                	li	s1,0
    4136:	b591                	j	3f7a <__adddf3+0x2fa>
    4138:	01ff0933          	add	s2,t5,t6
    413c:	010707b3          	add	a5,a4,a6
    4140:	01e93633          	sltu	a2,s2,t5
    4144:	963e                	add	a2,a2,a5
    4146:	00861793          	slli	a5,a2,0x8
    414a:	4485                	li	s1,1
    414c:	e207d7e3          	bgez	a5,3f7a <__adddf3+0x2fa>
    4150:	4489                	li	s1,2
    4152:	ff8007b7          	lui	a5,0xff800
    4156:	17fd                	addi	a5,a5,-1
    4158:	8ff1                	and	a5,a5,a2
    415a:	00195713          	srli	a4,s2,0x1
    415e:	00197913          	andi	s2,s2,1
    4162:	01276933          	or	s2,a4,s2
    4166:	01f79893          	slli	a7,a5,0x1f
    416a:	0128e933          	or	s2,a7,s2
    416e:	0017d613          	srli	a2,a5,0x1
    4172:	b115                	j	3d96 <__adddf3+0x116>
    4174:	fe0e0913          	addi	s2,t3,-32
    4178:	02000793          	li	a5,32
    417c:	012856b3          	srl	a3,a6,s2
    4180:	00fe0a63          	beq	t3,a5,4194 <__adddf3+0x514>
    4184:	04000913          	li	s2,64
    4188:	41c90933          	sub	s2,s2,t3
    418c:	01281933          	sll	s2,a6,s2
    4190:	012fefb3          	or	t6,t6,s2
    4194:	01f03933          	snez	s2,t6
    4198:	00d96933          	or	s2,s2,a3
    419c:	b659                	j	3d22 <__adddf3+0xa2>
    419e:	01e76933          	or	s2,a4,t5
    41a2:	01203933          	snez	s2,s2
    41a6:	412f8933          	sub	s2,t6,s2
    41aa:	012fb7b3          	sltu	a5,t6,s2
    41ae:	40f80633          	sub	a2,a6,a5
    41b2:	849a                	mv	s1,t1
    41b4:	89f6                	mv	s3,t4
    41b6:	bea5                	j	3d2e <__adddf3+0xae>
    41b8:	01e767b3          	or	a5,a4,t5
    41bc:	18078263          	beqz	a5,4340 <__adddf3+0x6c0>
    41c0:	fff50793          	addi	a5,a0,-1
    41c4:	1c078463          	beqz	a5,438c <__adddf3+0x70c>
    41c8:	7ff00693          	li	a3,2047
    41cc:	12d50463          	beq	a0,a3,42f4 <__adddf3+0x674>
    41d0:	853e                	mv	a0,a5
    41d2:	bdd1                	j	40a6 <__adddf3+0x426>
    41d4:	02000793          	li	a5,32
    41d8:	41c787b3          	sub	a5,a5,t3
    41dc:	00f816b3          	sll	a3,a6,a5
    41e0:	00ff9933          	sll	s2,t6,a5
    41e4:	01cfd633          	srl	a2,t6,t3
    41e8:	8ed1                	or	a3,a3,a2
    41ea:	01203933          	snez	s2,s2
    41ee:	01c857b3          	srl	a5,a6,t3
    41f2:	0126e933          	or	s2,a3,s2
    41f6:	973e                	add	a4,a4,a5
    41f8:	bb5d                	j	3fae <__adddf3+0x32e>
    41fa:	00361793          	slli	a5,a2,0x3
    41fe:	838d                	srli	a5,a5,0x3
    4200:	01d81893          	slli	a7,a6,0x1d
    4204:	0117e8b3          	or	a7,a5,a7
    4208:	84ae                	mv	s1,a1
    420a:	00385793          	srli	a5,a6,0x3
    420e:	89f6                	mv	s3,t4
    4210:	b349                	j	3f92 <__adddf3+0x312>
    4212:	c3ed                	beqz	a5,42f4 <__adddf3+0x674>
    4214:	01f86933          	or	s2,a6,t6
    4218:	dc091fe3          	bnez	s2,3ff6 <__adddf3+0x376>
    421c:	050e                	slli	a0,a0,0x3
    421e:	01d71793          	slli	a5,a4,0x1d
    4222:	810d                	srli	a0,a0,0x3
    4224:	00f568b3          	or	a7,a0,a5
    4228:	00375793          	srli	a5,a4,0x3
    422c:	b3d1                	j	3ff0 <__adddf3+0x370>
    422e:	0e088163          	beqz	a7,4310 <__adddf3+0x690>
    4232:	00361693          	slli	a3,a2,0x3
    4236:	01d81793          	slli	a5,a6,0x1d
    423a:	828d                	srli	a3,a3,0x3
    423c:	00d7e8b3          	or	a7,a5,a3
    4240:	89f6                	mv	s3,t4
    4242:	00385793          	srli	a5,a6,0x3
    4246:	bb91                	j	3f9a <__adddf3+0x31a>
    4248:	41ff0933          	sub	s2,t5,t6
    424c:	410707b3          	sub	a5,a4,a6
    4250:	012f3f33          	sltu	t5,t5,s2
    4254:	41e78633          	sub	a2,a5,t5
    4258:	4485                	li	s1,1
    425a:	bcd1                	j	3d2e <__adddf3+0xae>
    425c:	050e                	slli	a0,a0,0x3
    425e:	01d71793          	slli	a5,a4,0x1d
    4262:	810d                	srli	a0,a0,0x3
    4264:	00f568b3          	or	a7,a0,a5
    4268:	84f2                	mv	s1,t3
    426a:	00375793          	srli	a5,a4,0x3
    426e:	b315                	j	3f92 <__adddf3+0x312>
    4270:	050e                	slli	a0,a0,0x3
    4272:	01d71793          	slli	a5,a4,0x1d
    4276:	810d                	srli	a0,a0,0x3
    4278:	00a7e8b3          	or	a7,a5,a0
    427c:	00375793          	srli	a5,a4,0x3
    4280:	bb29                	j	3f9a <__adddf3+0x31a>
    4282:	7ff00793          	li	a5,2047
    4286:	d4f682e3          	beq	a3,a5,3fca <__adddf3+0x34a>
    428a:	01ff0933          	add	s2,t5,t6
    428e:	01e93633          	sltu	a2,s2,t5
    4292:	010707b3          	add	a5,a4,a6
    4296:	97b2                	add	a5,a5,a2
    4298:	01f79893          	slli	a7,a5,0x1f
    429c:	00195913          	srli	s2,s2,0x1
    42a0:	0128e933          	or	s2,a7,s2
    42a4:	0017d613          	srli	a2,a5,0x1
    42a8:	84b6                	mv	s1,a3
    42aa:	b9c1                	j	3f7a <__adddf3+0x2fa>
    42ac:	41ef8933          	sub	s2,t6,t5
    42b0:	40e80733          	sub	a4,a6,a4
    42b4:	012fb633          	sltu	a2,t6,s2
    42b8:	40c70433          	sub	s0,a4,a2
    42bc:	89f6                	mv	s3,t4
    42be:	b449                	j	3d40 <__adddf3+0xc0>
    42c0:	01e76933          	or	s2,a4,t5
    42c4:	01203933          	snez	s2,s2
    42c8:	bd01                	j	40d8 <__adddf3+0x458>
    42ca:	fe058793          	addi	a5,a1,-32
    42ce:	02000693          	li	a3,32
    42d2:	00f757b3          	srl	a5,a4,a5
    42d6:	00d58a63          	beq	a1,a3,42ea <__adddf3+0x66a>
    42da:	04000693          	li	a3,64
    42de:	40b685b3          	sub	a1,a3,a1
    42e2:	00b71733          	sll	a4,a4,a1
    42e6:	00ef6f33          	or	t5,t5,a4
    42ea:	01e03933          	snez	s2,t5
    42ee:	00f96933          	or	s2,s2,a5
    42f2:	bd55                	j	41a6 <__adddf3+0x526>
    42f4:	00361793          	slli	a5,a2,0x3
    42f8:	838d                	srli	a5,a5,0x3
    42fa:	01d81893          	slli	a7,a6,0x1d
    42fe:	0117e8b3          	or	a7,a5,a7
    4302:	00385793          	srli	a5,a6,0x3
    4306:	b1ed                	j	3ff0 <__adddf3+0x370>
    4308:	00c968b3          	or	a7,s2,a2
    430c:	c60897e3          	bnez	a7,3f7a <__adddf3+0x2fa>
    4310:	4781                	li	a5,0
    4312:	4981                	li	s3,0
    4314:	b159                	j	3f9a <__adddf3+0x31a>
    4316:	41ef8933          	sub	s2,t6,t5
    431a:	40e807b3          	sub	a5,a6,a4
    431e:	012fb633          	sltu	a2,t6,s2
    4322:	40c78633          	sub	a2,a5,a2
    4326:	89f6                	mv	s3,t4
    4328:	4485                	li	s1,1
    432a:	b411                	j	3d2e <__adddf3+0xae>
    432c:	00361693          	slli	a3,a2,0x3
    4330:	01d81793          	slli	a5,a6,0x1d
    4334:	828d                	srli	a3,a3,0x3
    4336:	00d7e8b3          	or	a7,a5,a3
    433a:	00385793          	srli	a5,a6,0x3
    433e:	b9b1                	j	3f9a <__adddf3+0x31a>
    4340:	00361693          	slli	a3,a2,0x3
    4344:	01d81793          	slli	a5,a6,0x1d
    4348:	828d                	srli	a3,a3,0x3
    434a:	00d7e8b3          	or	a7,a5,a3
    434e:	84aa                	mv	s1,a0
    4350:	00385793          	srli	a5,a6,0x3
    4354:	b93d                	j	3f92 <__adddf3+0x312>
    4356:	fe050793          	addi	a5,a0,-32
    435a:	02000693          	li	a3,32
    435e:	00f757b3          	srl	a5,a4,a5
    4362:	00d50a63          	beq	a0,a3,4376 <__adddf3+0x6f6>
    4366:	04000693          	li	a3,64
    436a:	40a68533          	sub	a0,a3,a0
    436e:	00a71733          	sll	a4,a4,a0
    4372:	00ef6f33          	or	t5,t5,a4
    4376:	01e03933          	snez	s2,t5
    437a:	00f96933          	or	s2,s2,a5
    437e:	bba9                	j	40d8 <__adddf3+0x458>
    4380:	4581                	li	a1,0
    4382:	7ff00513          	li	a0,2047
    4386:	000807b7          	lui	a5,0x80
    438a:	bca9                	j	3de4 <__adddf3+0x164>
    438c:	01ff0933          	add	s2,t5,t6
    4390:	010707b3          	add	a5,a4,a6
    4394:	01f93633          	sltu	a2,s2,t6
    4398:	963e                	add	a2,a2,a5
    439a:	b375                	j	4146 <__adddf3+0x4c6>
    439c:	00361693          	slli	a3,a2,0x3
    43a0:	01d81793          	slli	a5,a6,0x1d
    43a4:	828d                	srli	a3,a3,0x3
    43a6:	00d7e8b3          	or	a7,a5,a3
    43aa:	00385793          	srli	a5,a6,0x3
    43ae:	b189                	j	3ff0 <__adddf3+0x370>

000043b0 <__divdf3>:
__divdf3():
    43b0:	7139                	addi	sp,sp,-64
    43b2:	0145d793          	srli	a5,a1,0x14
    43b6:	dc22                	sw	s0,56(sp)
    43b8:	d84a                	sw	s2,48(sp)
    43ba:	d256                	sw	s5,36(sp)
    43bc:	892a                	mv	s2,a0
    43be:	00c59413          	slli	s0,a1,0xc
    43c2:	de06                	sw	ra,60(sp)
    43c4:	da26                	sw	s1,52(sp)
    43c6:	d64e                	sw	s3,44(sp)
    43c8:	d452                	sw	s4,40(sp)
    43ca:	d05a                	sw	s6,32(sp)
    43cc:	ce5e                	sw	s7,28(sp)
    43ce:	7ff7f513          	andi	a0,a5,2047
    43d2:	8031                	srli	s0,s0,0xc
    43d4:	01f5da93          	srli	s5,a1,0x1f
    43d8:	10050b63          	beqz	a0,44ee <__divdf3+0x13e>
    43dc:	7ff00793          	li	a5,2047
    43e0:	14f50b63          	beq	a0,a5,4536 <__divdf3+0x186>
    43e4:	01d95a13          	srli	s4,s2,0x1d
    43e8:	040e                	slli	s0,s0,0x3
    43ea:	008a6433          	or	s0,s4,s0
    43ee:	00800a37          	lui	s4,0x800
    43f2:	01446a33          	or	s4,s0,s4
    43f6:	00391b13          	slli	s6,s2,0x3
    43fa:	c0150493          	addi	s1,a0,-1023
    43fe:	4401                	li	s0,0
    4400:	4b81                	li	s7,0
    4402:	0146d813          	srli	a6,a3,0x14
    4406:	00c69913          	slli	s2,a3,0xc
    440a:	7ff87813          	andi	a6,a6,2047
    440e:	88b2                	mv	a7,a2
    4410:	00c95913          	srli	s2,s2,0xc
    4414:	01f6d993          	srli	s3,a3,0x1f
    4418:	08080e63          	beqz	a6,44b4 <__divdf3+0x104>
    441c:	7ff00793          	li	a5,2047
    4420:	04f80063          	beq	a6,a5,4460 <__divdf3+0xb0>
    4424:	01d65713          	srli	a4,a2,0x1d
    4428:	090e                	slli	s2,s2,0x3
    442a:	01276933          	or	s2,a4,s2
    442e:	c0180813          	addi	a6,a6,-1023 # ffc01 <_data_lma+0xf8e09>
    4432:	008007b7          	lui	a5,0x800
    4436:	00f96733          	or	a4,s2,a5
    443a:	00361893          	slli	a7,a2,0x3
    443e:	410484b3          	sub	s1,s1,a6
    4442:	4581                	li	a1,0
    4444:	47bd                	li	a5,15
    4446:	013ac833          	xor	a6,s5,s3
    444a:	1a87e463          	bltu	a5,s0,45f2 <__divdf3+0x242>
    444e:	00002797          	auipc	a5,0x2
    4452:	7ea78793          	addi	a5,a5,2026 # 6c38 <init_jk+0x60>
    4456:	040a                	slli	s0,s0,0x2
    4458:	943e                	add	s0,s0,a5
    445a:	4010                	lw	a2,0(s0)
    445c:	963e                	add	a2,a2,a5
    445e:	8602                	jr	a2
    4460:	00c96733          	or	a4,s2,a2
    4464:	80148493          	addi	s1,s1,-2047
    4468:	10071263          	bnez	a4,456c <__divdf3+0x1bc>
    446c:	00246413          	ori	s0,s0,2
    4470:	4881                	li	a7,0
    4472:	4589                	li	a1,2
    4474:	bfc1                	j	4444 <__divdf3+0x94>
    4476:	7ff00613          	li	a2,2047
    447a:	4781                	li	a5,0
    447c:	4701                	li	a4,0
    447e:	07b2                	slli	a5,a5,0xc
    4480:	50f2                	lw	ra,60(sp)
    4482:	5462                	lw	s0,56(sp)
    4484:	0652                	slli	a2,a2,0x14
    4486:	83b1                	srli	a5,a5,0xc
    4488:	087e                	slli	a6,a6,0x1f
    448a:	8fd1                	or	a5,a5,a2
    448c:	0107e7b3          	or	a5,a5,a6
    4490:	54d2                	lw	s1,52(sp)
    4492:	5942                	lw	s2,48(sp)
    4494:	59b2                	lw	s3,44(sp)
    4496:	5a22                	lw	s4,40(sp)
    4498:	5a92                	lw	s5,36(sp)
    449a:	5b02                	lw	s6,32(sp)
    449c:	4bf2                	lw	s7,28(sp)
    449e:	853a                	mv	a0,a4
    44a0:	85be                	mv	a1,a5
    44a2:	6121                	addi	sp,sp,64
    44a4:	8082                	ret
    44a6:	4801                	li	a6,0
    44a8:	7ff00613          	li	a2,2047
    44ac:	000807b7          	lui	a5,0x80
    44b0:	4701                	li	a4,0
    44b2:	b7f1                	j	447e <__divdf3+0xce>
    44b4:	00c96733          	or	a4,s2,a2
    44b8:	c74d                	beqz	a4,4562 <__divdf3+0x1b2>
    44ba:	30090863          	beqz	s2,47ca <__divdf3+0x41a>
    44be:	854a                	mv	a0,s2
    44c0:	c432                	sw	a2,8(sp)
    44c2:	060020ef          	jal	ra,6522 <__clzsi2>
    44c6:	4622                	lw	a2,8(sp)
    44c8:	ff550713          	addi	a4,a0,-11
    44cc:	47f5                	li	a5,29
    44ce:	ff850693          	addi	a3,a0,-8
    44d2:	8f99                	sub	a5,a5,a4
    44d4:	00d91933          	sll	s2,s2,a3
    44d8:	00f657b3          	srl	a5,a2,a5
    44dc:	0127e733          	or	a4,a5,s2
    44e0:	00d618b3          	sll	a7,a2,a3
    44e4:	9526                	add	a0,a0,s1
    44e6:	3f350493          	addi	s1,a0,1011
    44ea:	4581                	li	a1,0
    44ec:	bfa1                	j	4444 <__divdf3+0x94>
    44ee:	01246a33          	or	s4,s0,s2
    44f2:	060a0363          	beqz	s4,4558 <__divdf3+0x1a8>
    44f6:	c636                	sw	a3,12(sp)
    44f8:	c432                	sw	a2,8(sp)
    44fa:	2a040663          	beqz	s0,47a6 <__divdf3+0x3f6>
    44fe:	8522                	mv	a0,s0
    4500:	022020ef          	jal	ra,6522 <__clzsi2>
    4504:	4622                	lw	a2,8(sp)
    4506:	46b2                	lw	a3,12(sp)
    4508:	84aa                	mv	s1,a0
    450a:	ff550713          	addi	a4,a0,-11
    450e:	4a75                	li	s4,29
    4510:	ff848b13          	addi	s6,s1,-8
    4514:	40ea0a33          	sub	s4,s4,a4
    4518:	01641433          	sll	s0,s0,s6
    451c:	01495a33          	srl	s4,s2,s4
    4520:	008a6a33          	or	s4,s4,s0
    4524:	01691b33          	sll	s6,s2,s6
    4528:	c0d00513          	li	a0,-1011
    452c:	409504b3          	sub	s1,a0,s1
    4530:	4401                	li	s0,0
    4532:	4b81                	li	s7,0
    4534:	b5f9                	j	4402 <__divdf3+0x52>
    4536:	01246a33          	or	s4,s0,s2
    453a:	000a1863          	bnez	s4,454a <__divdf3+0x19a>
    453e:	4421                	li	s0,8
    4540:	4b01                	li	s6,0
    4542:	7ff00493          	li	s1,2047
    4546:	4b89                	li	s7,2
    4548:	bd6d                	j	4402 <__divdf3+0x52>
    454a:	8a22                	mv	s4,s0
    454c:	8b4a                	mv	s6,s2
    454e:	4431                	li	s0,12
    4550:	7ff00493          	li	s1,2047
    4554:	4b8d                	li	s7,3
    4556:	b575                	j	4402 <__divdf3+0x52>
    4558:	4411                	li	s0,4
    455a:	4b01                	li	s6,0
    455c:	4481                	li	s1,0
    455e:	4b85                	li	s7,1
    4560:	b54d                	j	4402 <__divdf3+0x52>
    4562:	00146413          	ori	s0,s0,1
    4566:	4881                	li	a7,0
    4568:	4585                	li	a1,1
    456a:	bde9                	j	4444 <__divdf3+0x94>
    456c:	00346413          	ori	s0,s0,3
    4570:	874a                	mv	a4,s2
    4572:	458d                	li	a1,3
    4574:	bdc1                	j	4444 <__divdf3+0x94>
    4576:	2e050a63          	beqz	a0,486a <__divdf3+0x4ba>
    457a:	4785                	li	a5,1
    457c:	8f89                	sub	a5,a5,a0
    457e:	03800693          	li	a3,56
    4582:	32f6dd63          	bge	a3,a5,48bc <__divdf3+0x50c>
    4586:	4601                	li	a2,0
    4588:	4781                	li	a5,0
    458a:	4701                	li	a4,0
    458c:	bdcd                	j	447e <__divdf3+0xce>
    458e:	86ce                	mv	a3,s3
    4590:	4789                	li	a5,2
    4592:	3af58d63          	beq	a1,a5,494c <__divdf3+0x59c>
    4596:	478d                	li	a5,3
    4598:	f0f587e3          	beq	a1,a5,44a6 <__divdf3+0xf6>
    459c:	4785                	li	a5,1
    459e:	8836                	mv	a6,a3
    45a0:	fef583e3          	beq	a1,a5,4586 <__divdf3+0x1d6>
    45a4:	3ff48513          	addi	a0,s1,1023
    45a8:	fca057e3          	blez	a0,4576 <__divdf3+0x1c6>
    45ac:	0078f793          	andi	a5,a7,7
    45b0:	28079663          	bnez	a5,483c <__divdf3+0x48c>
    45b4:	0038d693          	srli	a3,a7,0x3
    45b8:	00771793          	slli	a5,a4,0x7
    45bc:	0007d863          	bgez	a5,45cc <__divdf3+0x21c>
    45c0:	ff0007b7          	lui	a5,0xff000
    45c4:	17fd                	addi	a5,a5,-1
    45c6:	8f7d                	and	a4,a4,a5
    45c8:	40048513          	addi	a0,s1,1024
    45cc:	7fe00793          	li	a5,2046
    45d0:	eaa7c3e3          	blt	a5,a0,4476 <__divdf3+0xc6>
    45d4:	01d71613          	slli	a2,a4,0x1d
    45d8:	00971793          	slli	a5,a4,0x9
    45dc:	83b1                	srli	a5,a5,0xc
    45de:	00d66733          	or	a4,a2,a3
    45e2:	7ff57613          	andi	a2,a0,2047
    45e6:	bd61                	j	447e <__divdf3+0xce>
    45e8:	86d6                	mv	a3,s5
    45ea:	8752                	mv	a4,s4
    45ec:	88da                	mv	a7,s6
    45ee:	85de                	mv	a1,s7
    45f0:	b745                	j	4590 <__divdf3+0x1e0>
    45f2:	23476163          	bltu	a4,s4,4814 <__divdf3+0x464>
    45f6:	20ea0d63          	beq	s4,a4,4810 <__divdf3+0x460>
    45fa:	86da                	mv	a3,s6
    45fc:	14fd                	addi	s1,s1,-1
    45fe:	8452                	mv	s0,s4
    4600:	4b01                	li	s6,0
    4602:	00871793          	slli	a5,a4,0x8
    4606:	0188d313          	srli	t1,a7,0x18
    460a:	00f36333          	or	t1,t1,a5
    460e:	01035e93          	srli	t4,t1,0x10
    4612:	03d457b3          	divu	a5,s0,t4
    4616:	01031f13          	slli	t5,t1,0x10
    461a:	010f5f13          	srli	t5,t5,0x10
    461e:	0106d593          	srli	a1,a3,0x10
    4622:	00889e13          	slli	t3,a7,0x8
    4626:	03d47433          	remu	s0,s0,t4
    462a:	02ff0733          	mul	a4,t5,a5
    462e:	0442                	slli	s0,s0,0x10
    4630:	8dc1                	or	a1,a1,s0
    4632:	00e5fb63          	bgeu	a1,a4,4648 <__divdf3+0x298>
    4636:	959a                	add	a1,a1,t1
    4638:	fff78613          	addi	a2,a5,-1 # feffffff <_eusrstack+0xdeff97ff>
    463c:	2665ee63          	bltu	a1,t1,48b8 <__divdf3+0x508>
    4640:	26e5fc63          	bgeu	a1,a4,48b8 <__divdf3+0x508>
    4644:	17f9                	addi	a5,a5,-2
    4646:	959a                	add	a1,a1,t1
    4648:	8d99                	sub	a1,a1,a4
    464a:	03d5d733          	divu	a4,a1,t4
    464e:	06c2                	slli	a3,a3,0x10
    4650:	82c1                	srli	a3,a3,0x10
    4652:	03d5f5b3          	remu	a1,a1,t4
    4656:	02ef0633          	mul	a2,t5,a4
    465a:	05c2                	slli	a1,a1,0x10
    465c:	8dd5                	or	a1,a1,a3
    465e:	00c5fb63          	bgeu	a1,a2,4674 <__divdf3+0x2c4>
    4662:	959a                	add	a1,a1,t1
    4664:	fff70693          	addi	a3,a4,-1 # 7fffff <_data_lma+0x7f9207>
    4668:	2465e663          	bltu	a1,t1,48b4 <__divdf3+0x504>
    466c:	24c5f463          	bgeu	a1,a2,48b4 <__divdf3+0x504>
    4670:	1779                	addi	a4,a4,-2
    4672:	959a                	add	a1,a1,t1
    4674:	07c2                	slli	a5,a5,0x10
    4676:	6441                	lui	s0,0x10
    4678:	8f5d                	or	a4,a4,a5
    467a:	fff40793          	addi	a5,s0,-1 # ffff <_data_lma+0x9207>
    467e:	00f77533          	and	a0,a4,a5
    4682:	01075893          	srli	a7,a4,0x10
    4686:	010e5f93          	srli	t6,t3,0x10
    468a:	00fe77b3          	and	a5,t3,a5
    468e:	02f502b3          	mul	t0,a0,a5
    4692:	40c586b3          	sub	a3,a1,a2
    4696:	02f883b3          	mul	t2,a7,a5
    469a:	0102d593          	srli	a1,t0,0x10
    469e:	02af8633          	mul	a2,t6,a0
    46a2:	961e                	add	a2,a2,t2
    46a4:	962e                	add	a2,a2,a1
    46a6:	03f88533          	mul	a0,a7,t6
    46aa:	00767363          	bgeu	a2,t2,46b0 <__divdf3+0x300>
    46ae:	9522                	add	a0,a0,s0
    46b0:	68c1                	lui	a7,0x10
    46b2:	18fd                	addi	a7,a7,-1
    46b4:	01065593          	srli	a1,a2,0x10
    46b8:	01167633          	and	a2,a2,a7
    46bc:	0642                	slli	a2,a2,0x10
    46be:	0112f8b3          	and	a7,t0,a7
    46c2:	95aa                	add	a1,a1,a0
    46c4:	9646                	add	a2,a2,a7
    46c6:	12b6e663          	bltu	a3,a1,47f2 <__divdf3+0x442>
    46ca:	12b68263          	beq	a3,a1,47ee <__divdf3+0x43e>
    46ce:	40cb0633          	sub	a2,s6,a2
    46d2:	8e8d                	sub	a3,a3,a1
    46d4:	00cb3b33          	sltu	s6,s6,a2
    46d8:	41668b33          	sub	s6,a3,s6
    46dc:	3ff48513          	addi	a0,s1,1023
    46e0:	17630c63          	beq	t1,s6,4858 <__divdf3+0x4a8>
    46e4:	03db58b3          	divu	a7,s6,t4
    46e8:	01065593          	srli	a1,a2,0x10
    46ec:	03db7b33          	remu	s6,s6,t4
    46f0:	031f06b3          	mul	a3,t5,a7
    46f4:	0b42                	slli	s6,s6,0x10
    46f6:	0165eb33          	or	s6,a1,s6
    46fa:	00db7b63          	bgeu	s6,a3,4710 <__divdf3+0x360>
    46fe:	9b1a                	add	s6,s6,t1
    4700:	fff88593          	addi	a1,a7,-1 # ffff <_data_lma+0x9207>
    4704:	206b6d63          	bltu	s6,t1,491e <__divdf3+0x56e>
    4708:	20db7b63          	bgeu	s6,a3,491e <__divdf3+0x56e>
    470c:	18f9                	addi	a7,a7,-2
    470e:	9b1a                	add	s6,s6,t1
    4710:	40db0b33          	sub	s6,s6,a3
    4714:	03db56b3          	divu	a3,s6,t4
    4718:	0642                	slli	a2,a2,0x10
    471a:	8241                	srli	a2,a2,0x10
    471c:	03db7b33          	remu	s6,s6,t4
    4720:	02df0f33          	mul	t5,t5,a3
    4724:	0b42                	slli	s6,s6,0x10
    4726:	01666633          	or	a2,a2,s6
    472a:	01e67b63          	bgeu	a2,t5,4740 <__divdf3+0x390>
    472e:	961a                	add	a2,a2,t1
    4730:	fff68593          	addi	a1,a3,-1 # 7fffff <_data_lma+0x7f9207>
    4734:	1e666763          	bltu	a2,t1,4922 <__divdf3+0x572>
    4738:	1fe67563          	bgeu	a2,t5,4922 <__divdf3+0x572>
    473c:	16f9                	addi	a3,a3,-2
    473e:	961a                	add	a2,a2,t1
    4740:	08c2                	slli	a7,a7,0x10
    4742:	00d8e8b3          	or	a7,a7,a3
    4746:	01089593          	slli	a1,a7,0x10
    474a:	0108d293          	srli	t0,a7,0x10
    474e:	81c1                	srli	a1,a1,0x10
    4750:	02f58eb3          	mul	t4,a1,a5
    4754:	41e60633          	sub	a2,a2,t5
    4758:	02bf85b3          	mul	a1,t6,a1
    475c:	010ed693          	srli	a3,t4,0x10
    4760:	02f287b3          	mul	a5,t0,a5
    4764:	95be                	add	a1,a1,a5
    4766:	96ae                	add	a3,a3,a1
    4768:	025f8fb3          	mul	t6,t6,t0
    476c:	00f6f463          	bgeu	a3,a5,4774 <__divdf3+0x3c4>
    4770:	67c1                	lui	a5,0x10
    4772:	9fbe                	add	t6,t6,a5
    4774:	65c1                	lui	a1,0x10
    4776:	15fd                	addi	a1,a1,-1
    4778:	0106d793          	srli	a5,a3,0x10
    477c:	8eed                	and	a3,a3,a1
    477e:	06c2                	slli	a3,a3,0x10
    4780:	00befeb3          	and	t4,t4,a1
    4784:	9fbe                	add	t6,t6,a5
    4786:	96f6                	add	a3,a3,t4
    4788:	09f67f63          	bgeu	a2,t6,4826 <__divdf3+0x476>
    478c:	961a                	add	a2,a2,t1
    478e:	fff88793          	addi	a5,a7,-1
    4792:	1a666963          	bltu	a2,t1,4944 <__divdf3+0x594>
    4796:	19f66863          	bltu	a2,t6,4926 <__divdf3+0x576>
    479a:	1bf60f63          	beq	a2,t6,4958 <__divdf3+0x5a8>
    479e:	88be                	mv	a7,a5
    47a0:	0018e893          	ori	a7,a7,1
    47a4:	b511                	j	45a8 <__divdf3+0x1f8>
    47a6:	854a                	mv	a0,s2
    47a8:	57b010ef          	jal	ra,6522 <__clzsi2>
    47ac:	01550713          	addi	a4,a0,21
    47b0:	45f1                	li	a1,28
    47b2:	02050493          	addi	s1,a0,32
    47b6:	4622                	lw	a2,8(sp)
    47b8:	46b2                	lw	a3,12(sp)
    47ba:	d4e5dae3          	bge	a1,a4,450e <__divdf3+0x15e>
    47be:	ff850413          	addi	s0,a0,-8
    47c2:	00891a33          	sll	s4,s2,s0
    47c6:	4b01                	li	s6,0
    47c8:	b385                	j	4528 <__divdf3+0x178>
    47ca:	8532                	mv	a0,a2
    47cc:	c432                	sw	a2,8(sp)
    47ce:	555010ef          	jal	ra,6522 <__clzsi2>
    47d2:	01550713          	addi	a4,a0,21
    47d6:	46f1                	li	a3,28
    47d8:	87aa                	mv	a5,a0
    47da:	4622                	lw	a2,8(sp)
    47dc:	02050513          	addi	a0,a0,32
    47e0:	cee6d6e3          	bge	a3,a4,44cc <__divdf3+0x11c>
    47e4:	17e1                	addi	a5,a5,-8
    47e6:	00f61733          	sll	a4,a2,a5
    47ea:	4881                	li	a7,0
    47ec:	b9e5                	j	44e4 <__divdf3+0x134>
    47ee:	eecb70e3          	bgeu	s6,a2,46ce <__divdf3+0x31e>
    47f2:	9b72                	add	s6,s6,t3
    47f4:	01cb3533          	sltu	a0,s6,t3
    47f8:	951a                	add	a0,a0,t1
    47fa:	96aa                	add	a3,a3,a0
    47fc:	fff70513          	addi	a0,a4,-1
    4800:	02d37863          	bgeu	t1,a3,4830 <__divdf3+0x480>
    4804:	10b6e663          	bltu	a3,a1,4910 <__divdf3+0x560>
    4808:	10d58263          	beq	a1,a3,490c <__divdf3+0x55c>
    480c:	872a                	mv	a4,a0
    480e:	b5c1                	j	46ce <__divdf3+0x31e>
    4810:	df1b65e3          	bltu	s6,a7,45fa <__divdf3+0x24a>
    4814:	001b5593          	srli	a1,s6,0x1
    4818:	01fa1693          	slli	a3,s4,0x1f
    481c:	001a5413          	srli	s0,s4,0x1
    4820:	8ecd                	or	a3,a3,a1
    4822:	0b7e                	slli	s6,s6,0x1f
    4824:	bbf9                	j	4602 <__divdf3+0x252>
    4826:	f7f61de3          	bne	a2,t6,47a0 <__divdf3+0x3f0>
    482a:	d6068fe3          	beqz	a3,45a8 <__divdf3+0x1f8>
    482e:	bfb9                	j	478c <__divdf3+0x3dc>
    4830:	fcd31ee3          	bne	t1,a3,480c <__divdf3+0x45c>
    4834:	fdcb78e3          	bgeu	s6,t3,4804 <__divdf3+0x454>
    4838:	872a                	mv	a4,a0
    483a:	bd51                	j	46ce <__divdf3+0x31e>
    483c:	00f8f793          	andi	a5,a7,15
    4840:	4691                	li	a3,4
    4842:	d6d789e3          	beq	a5,a3,45b4 <__divdf3+0x204>
    4846:	ffc8b793          	sltiu	a5,a7,-4
    484a:	00488693          	addi	a3,a7,4
    484e:	0017c793          	xori	a5,a5,1
    4852:	828d                	srli	a3,a3,0x3
    4854:	973e                	add	a4,a4,a5
    4856:	b38d                	j	45b8 <__divdf3+0x208>
    4858:	4681                	li	a3,0
    485a:	4785                	li	a5,1
    485c:	fea04ce3          	bgtz	a0,4854 <__divdf3+0x4a4>
    4860:	58fd                	li	a7,-1
    4862:	d0051ce3          	bnez	a0,457a <__divdf3+0x1ca>
    4866:	c0100493          	li	s1,-1023
    486a:	4785                	li	a5,1
    486c:	41e48513          	addi	a0,s1,1054
    4870:	00a716b3          	sll	a3,a4,a0
    4874:	00f8d633          	srl	a2,a7,a5
    4878:	00a89533          	sll	a0,a7,a0
    487c:	8ed1                	or	a3,a3,a2
    487e:	00a03533          	snez	a0,a0
    4882:	8ec9                	or	a3,a3,a0
    4884:	0076f613          	andi	a2,a3,7
    4888:	00f75733          	srl	a4,a4,a5
    488c:	ce01                	beqz	a2,48a4 <__divdf3+0x4f4>
    488e:	00f6f793          	andi	a5,a3,15
    4892:	4611                	li	a2,4
    4894:	00c78863          	beq	a5,a2,48a4 <__divdf3+0x4f4>
    4898:	00468793          	addi	a5,a3,4
    489c:	00d7b6b3          	sltu	a3,a5,a3
    48a0:	9736                	add	a4,a4,a3
    48a2:	86be                	mv	a3,a5
    48a4:	00871793          	slli	a5,a4,0x8
    48a8:	0407d863          	bgez	a5,48f8 <__divdf3+0x548>
    48ac:	4605                	li	a2,1
    48ae:	4781                	li	a5,0
    48b0:	4701                	li	a4,0
    48b2:	b6f1                	j	447e <__divdf3+0xce>
    48b4:	8736                	mv	a4,a3
    48b6:	bb7d                	j	4674 <__divdf3+0x2c4>
    48b8:	87b2                	mv	a5,a2
    48ba:	b379                	j	4648 <__divdf3+0x298>
    48bc:	46fd                	li	a3,31
    48be:	faf6d7e3          	bge	a3,a5,486c <__divdf3+0x4bc>
    48c2:	5605                	li	a2,-31
    48c4:	8e09                	sub	a2,a2,a0
    48c6:	02000693          	li	a3,32
    48ca:	00c75633          	srl	a2,a4,a2
    48ce:	00d78863          	beq	a5,a3,48de <__divdf3+0x52e>
    48d2:	43e48793          	addi	a5,s1,1086
    48d6:	00f717b3          	sll	a5,a4,a5
    48da:	00f8e8b3          	or	a7,a7,a5
    48de:	011036b3          	snez	a3,a7
    48e2:	8ed1                	or	a3,a3,a2
    48e4:	0076f613          	andi	a2,a3,7
    48e8:	4781                	li	a5,0
    48ea:	ce01                	beqz	a2,4902 <__divdf3+0x552>
    48ec:	00f6f793          	andi	a5,a3,15
    48f0:	4611                	li	a2,4
    48f2:	4701                	li	a4,0
    48f4:	fac792e3          	bne	a5,a2,4898 <__divdf3+0x4e8>
    48f8:	00971793          	slli	a5,a4,0x9
    48fc:	01d71613          	slli	a2,a4,0x1d
    4900:	83b1                	srli	a5,a5,0xc
    4902:	0036d713          	srli	a4,a3,0x3
    4906:	8f51                	or	a4,a4,a2
    4908:	4601                	li	a2,0
    490a:	be95                	j	447e <__divdf3+0xce>
    490c:	f0cb70e3          	bgeu	s6,a2,480c <__divdf3+0x45c>
    4910:	9b72                	add	s6,s6,t3
    4912:	01cb3533          	sltu	a0,s6,t3
    4916:	951a                	add	a0,a0,t1
    4918:	1779                	addi	a4,a4,-2
    491a:	96aa                	add	a3,a3,a0
    491c:	bb4d                	j	46ce <__divdf3+0x31e>
    491e:	88ae                	mv	a7,a1
    4920:	bbc5                	j	4710 <__divdf3+0x360>
    4922:	86ae                	mv	a3,a1
    4924:	bd31                	j	4740 <__divdf3+0x390>
    4926:	001e1793          	slli	a5,t3,0x1
    492a:	01c7be33          	sltu	t3,a5,t3
    492e:	9372                	add	t1,t1,t3
    4930:	961a                	add	a2,a2,t1
    4932:	18f9                	addi	a7,a7,-2
    4934:	8e3e                	mv	t3,a5
    4936:	e7f615e3          	bne	a2,t6,47a0 <__divdf3+0x3f0>
    493a:	c6de07e3          	beq	t3,a3,45a8 <__divdf3+0x1f8>
    493e:	0018e893          	ori	a7,a7,1
    4942:	b19d                	j	45a8 <__divdf3+0x1f8>
    4944:	88be                	mv	a7,a5
    4946:	fff60ae3          	beq	a2,t6,493a <__divdf3+0x58a>
    494a:	bd99                	j	47a0 <__divdf3+0x3f0>
    494c:	8836                	mv	a6,a3
    494e:	7ff00613          	li	a2,2047
    4952:	4781                	li	a5,0
    4954:	4701                	li	a4,0
    4956:	b625                	j	447e <__divdf3+0xce>
    4958:	fcde67e3          	bltu	t3,a3,4926 <__divdf3+0x576>
    495c:	88be                	mv	a7,a5
    495e:	fede10e3          	bne	t3,a3,493e <__divdf3+0x58e>
    4962:	b199                	j	45a8 <__divdf3+0x1f8>

00004964 <__eqdf2>:
__eqdf2():
    4964:	0145d713          	srli	a4,a1,0x14
    4968:	001007b7          	lui	a5,0x100
    496c:	17fd                	addi	a5,a5,-1
    496e:	0146d813          	srli	a6,a3,0x14
    4972:	7ff77713          	andi	a4,a4,2047
    4976:	7ff00893          	li	a7,2047
    497a:	00b7fe33          	and	t3,a5,a1
    497e:	8eaa                	mv	t4,a0
    4980:	8ff5                	and	a5,a5,a3
    4982:	81fd                	srli	a1,a1,0x1f
    4984:	8f32                	mv	t5,a2
    4986:	7ff87813          	andi	a6,a6,2047
    498a:	82fd                	srli	a3,a3,0x1f
    498c:	01170b63          	beq	a4,a7,49a2 <__eqdf2+0x3e>
    4990:	4305                	li	t1,1
    4992:	01180663          	beq	a6,a7,499e <__eqdf2+0x3a>
    4996:	01071463          	bne	a4,a6,499e <__eqdf2+0x3a>
    499a:	00fe0d63          	beq	t3,a5,49b4 <__eqdf2+0x50>
    499e:	851a                	mv	a0,t1
    49a0:	8082                	ret
    49a2:	00ae68b3          	or	a7,t3,a0
    49a6:	4305                	li	t1,1
    49a8:	fe089be3          	bnez	a7,499e <__eqdf2+0x3a>
    49ac:	fee819e3          	bne	a6,a4,499e <__eqdf2+0x3a>
    49b0:	8fd1                	or	a5,a5,a2
    49b2:	f7f5                	bnez	a5,499e <__eqdf2+0x3a>
    49b4:	4305                	li	t1,1
    49b6:	ffee94e3          	bne	t4,t5,499e <__eqdf2+0x3a>
    49ba:	4301                	li	t1,0
    49bc:	fed581e3          	beq	a1,a3,499e <__eqdf2+0x3a>
    49c0:	4305                	li	t1,1
    49c2:	ff71                	bnez	a4,499e <__eqdf2+0x3a>
    49c4:	00ae6533          	or	a0,t3,a0
    49c8:	00a03333          	snez	t1,a0
    49cc:	bfc9                	j	499e <__eqdf2+0x3a>

000049ce <__gedf2>:
__gtdf2():
    49ce:	0145d713          	srli	a4,a1,0x14
    49d2:	001007b7          	lui	a5,0x100
    49d6:	17fd                	addi	a5,a5,-1
    49d8:	0146d813          	srli	a6,a3,0x14
    49dc:	7ff77713          	andi	a4,a4,2047
    49e0:	7ff00893          	li	a7,2047
    49e4:	00b7f333          	and	t1,a5,a1
    49e8:	8e2a                	mv	t3,a0
    49ea:	8ff5                	and	a5,a5,a3
    49ec:	81fd                	srli	a1,a1,0x1f
    49ee:	8eb2                	mv	t4,a2
    49f0:	7ff87813          	andi	a6,a6,2047
    49f4:	82fd                	srli	a3,a3,0x1f
    49f6:	03170863          	beq	a4,a7,4a26 <__gedf2+0x58>
    49fa:	03180063          	beq	a6,a7,4a1a <__gedf2+0x4c>
    49fe:	eb0d                	bnez	a4,4a30 <__gedf2+0x62>
    4a00:	00a368b3          	or	a7,t1,a0
    4a04:	00081463          	bnez	a6,4a0c <__gedf2+0x3e>
    4a08:	8e5d                	or	a2,a2,a5
    4a0a:	ca29                	beqz	a2,4a5c <__gedf2+0x8e>
    4a0c:	04088563          	beqz	a7,4a56 <__gedf2+0x88>
    4a10:	02d58863          	beq	a1,a3,4a40 <__gedf2+0x72>
    4a14:	4505                	li	a0,1
    4a16:	ed95                	bnez	a1,4a52 <__gedf2+0x84>
    4a18:	8082                	ret
    4a1a:	00c7e8b3          	or	a7,a5,a2
    4a1e:	fe0880e3          	beqz	a7,49fe <__gedf2+0x30>
    4a22:	5579                	li	a0,-2
    4a24:	8082                	ret
    4a26:	00a36533          	or	a0,t1,a0
    4a2a:	fd65                	bnez	a0,4a22 <__gedf2+0x54>
    4a2c:	02e80c63          	beq	a6,a4,4a64 <__gedf2+0x96>
    4a30:	00081463          	bnez	a6,4a38 <__gedf2+0x6a>
    4a34:	8e5d                	or	a2,a2,a5
    4a36:	de79                	beqz	a2,4a14 <__gedf2+0x46>
    4a38:	fcd59ee3          	bne	a1,a3,4a14 <__gedf2+0x46>
    4a3c:	fce84ce3          	blt	a6,a4,4a14 <__gedf2+0x46>
    4a40:	01074863          	blt	a4,a6,4a50 <__gedf2+0x82>
    4a44:	fc67e8e3          	bltu	a5,t1,4a14 <__gedf2+0x46>
    4a48:	02f30363          	beq	t1,a5,4a6e <__gedf2+0xa0>
    4a4c:	00f37f63          	bgeu	t1,a5,4a6a <__gedf2+0x9c>
    4a50:	e581                	bnez	a1,4a58 <__gedf2+0x8a>
    4a52:	557d                	li	a0,-1
    4a54:	8082                	ret
    4a56:	def5                	beqz	a3,4a52 <__gedf2+0x84>
    4a58:	4505                	li	a0,1
    4a5a:	8082                	ret
    4a5c:	4501                	li	a0,0
    4a5e:	fa089be3          	bnez	a7,4a14 <__gedf2+0x46>
    4a62:	8082                	ret
    4a64:	8e5d                	or	a2,a2,a5
    4a66:	da69                	beqz	a2,4a38 <__gedf2+0x6a>
    4a68:	bf6d                	j	4a22 <__gedf2+0x54>
    4a6a:	4501                	li	a0,0
    4a6c:	8082                	ret
    4a6e:	fbcee3e3          	bltu	t4,t3,4a14 <__gedf2+0x46>
    4a72:	4501                	li	a0,0
    4a74:	fbde72e3          	bgeu	t3,t4,4a18 <__gedf2+0x4a>
    4a78:	f1e5                	bnez	a1,4a58 <__gedf2+0x8a>
    4a7a:	bfe1                	j	4a52 <__gedf2+0x84>

00004a7c <__muldf3>:
__muldf3():
    4a7c:	7139                	addi	sp,sp,-64
    4a7e:	d84a                	sw	s2,48(sp)
    4a80:	0145d913          	srli	s2,a1,0x14
    4a84:	d64e                	sw	s3,44(sp)
    4a86:	d452                	sw	s4,40(sp)
    4a88:	d256                	sw	s5,36(sp)
    4a8a:	00c59993          	slli	s3,a1,0xc
    4a8e:	de06                	sw	ra,60(sp)
    4a90:	dc22                	sw	s0,56(sp)
    4a92:	da26                	sw	s1,52(sp)
    4a94:	d05a                	sw	s6,32(sp)
    4a96:	ce5e                	sw	s7,28(sp)
    4a98:	7ff97913          	andi	s2,s2,2047
    4a9c:	8a2a                	mv	s4,a0
    4a9e:	00c9d993          	srli	s3,s3,0xc
    4aa2:	01f5da93          	srli	s5,a1,0x1f
    4aa6:	0e090d63          	beqz	s2,4ba0 <__muldf3+0x124>
    4aaa:	7ff00793          	li	a5,2047
    4aae:	18f90663          	beq	s2,a5,4c3a <__muldf3+0x1be>
    4ab2:	01d55413          	srli	s0,a0,0x1d
    4ab6:	098e                	slli	s3,s3,0x3
    4ab8:	013469b3          	or	s3,s0,s3
    4abc:	00800437          	lui	s0,0x800
    4ac0:	0089e433          	or	s0,s3,s0
    4ac4:	00351493          	slli	s1,a0,0x3
    4ac8:	c0190913          	addi	s2,s2,-1023
    4acc:	4981                	li	s3,0
    4ace:	4b81                	li	s7,0
    4ad0:	0146d713          	srli	a4,a3,0x14
    4ad4:	00c69a13          	slli	s4,a3,0xc
    4ad8:	7ff77713          	andi	a4,a4,2047
    4adc:	85b2                	mv	a1,a2
    4ade:	00ca5a13          	srli	s4,s4,0xc
    4ae2:	01f6db13          	srli	s6,a3,0x1f
    4ae6:	10070b63          	beqz	a4,4bfc <__muldf3+0x180>
    4aea:	7ff00793          	li	a5,2047
    4aee:	04f70363          	beq	a4,a5,4b34 <__muldf3+0xb8>
    4af2:	01d65793          	srli	a5,a2,0x1d
    4af6:	0a0e                	slli	s4,s4,0x3
    4af8:	0147ea33          	or	s4,a5,s4
    4afc:	c0170713          	addi	a4,a4,-1023
    4b00:	008007b7          	lui	a5,0x800
    4b04:	00fa67b3          	or	a5,s4,a5
    4b08:	00361593          	slli	a1,a2,0x3
    4b0c:	993a                	add	s2,s2,a4
    4b0e:	4881                	li	a7,0
    4b10:	016ac733          	xor	a4,s5,s6
    4b14:	46bd                	li	a3,15
    4b16:	853a                	mv	a0,a4
    4b18:	00190813          	addi	a6,s2,1
    4b1c:	1736e863          	bltu	a3,s3,4c8c <__muldf3+0x210>
    4b20:	00002617          	auipc	a2,0x2
    4b24:	15860613          	addi	a2,a2,344 # 6c78 <init_jk+0xa0>
    4b28:	098a                	slli	s3,s3,0x2
    4b2a:	99b2                	add	s3,s3,a2
    4b2c:	0009a683          	lw	a3,0(s3)
    4b30:	96b2                	add	a3,a3,a2
    4b32:	8682                	jr	a3
    4b34:	00ca67b3          	or	a5,s4,a2
    4b38:	7ff90913          	addi	s2,s2,2047
    4b3c:	12079963          	bnez	a5,4c6e <__muldf3+0x1f2>
    4b40:	0029e993          	ori	s3,s3,2
    4b44:	4581                	li	a1,0
    4b46:	4889                	li	a7,2
    4b48:	b7e1                	j	4b10 <__muldf3+0x94>
    4b4a:	4701                	li	a4,0
    4b4c:	7ff00793          	li	a5,2047
    4b50:	00080437          	lui	s0,0x80
    4b54:	4481                	li	s1,0
    4b56:	0432                	slli	s0,s0,0xc
    4b58:	07d2                	slli	a5,a5,0x14
    4b5a:	8031                	srli	s0,s0,0xc
    4b5c:	077e                	slli	a4,a4,0x1f
    4b5e:	8c5d                	or	s0,s0,a5
    4b60:	8c59                	or	s0,s0,a4
    4b62:	85a2                	mv	a1,s0
    4b64:	50f2                	lw	ra,60(sp)
    4b66:	5462                	lw	s0,56(sp)
    4b68:	8526                	mv	a0,s1
    4b6a:	5942                	lw	s2,48(sp)
    4b6c:	54d2                	lw	s1,52(sp)
    4b6e:	59b2                	lw	s3,44(sp)
    4b70:	5a22                	lw	s4,40(sp)
    4b72:	5a92                	lw	s5,36(sp)
    4b74:	5b02                	lw	s6,32(sp)
    4b76:	4bf2                	lw	s7,28(sp)
    4b78:	6121                	addi	sp,sp,64
    4b7a:	8082                	ret
    4b7c:	855a                	mv	a0,s6
    4b7e:	843e                	mv	s0,a5
    4b80:	84ae                	mv	s1,a1
    4b82:	8bc6                	mv	s7,a7
    4b84:	4789                	li	a5,2
    4b86:	0efb8d63          	beq	s7,a5,4c80 <__muldf3+0x204>
    4b8a:	478d                	li	a5,3
    4b8c:	fafb8fe3          	beq	s7,a5,4b4a <__muldf3+0xce>
    4b90:	4785                	li	a5,1
    4b92:	872a                	mv	a4,a0
    4b94:	38fb9e63          	bne	s7,a5,4f30 <__muldf3+0x4b4>
    4b98:	4781                	li	a5,0
    4b9a:	4401                	li	s0,0
    4b9c:	4481                	li	s1,0
    4b9e:	bf65                	j	4b56 <__muldf3+0xda>
    4ba0:	00a9e433          	or	s0,s3,a0
    4ba4:	c061                	beqz	s0,4c64 <__muldf3+0x1e8>
    4ba6:	c636                	sw	a3,12(sp)
    4ba8:	c432                	sw	a2,8(sp)
    4baa:	2a098c63          	beqz	s3,4e62 <__muldf3+0x3e6>
    4bae:	854e                	mv	a0,s3
    4bb0:	173010ef          	jal	ra,6522 <__clzsi2>
    4bb4:	4622                	lw	a2,8(sp)
    4bb6:	46b2                	lw	a3,12(sp)
    4bb8:	87aa                	mv	a5,a0
    4bba:	ff550713          	addi	a4,a0,-11
    4bbe:	4475                	li	s0,29
    4bc0:	ff878493          	addi	s1,a5,-8 # 7ffff8 <_data_lma+0x7f9200>
    4bc4:	8c19                	sub	s0,s0,a4
    4bc6:	009999b3          	sll	s3,s3,s1
    4bca:	008a5433          	srl	s0,s4,s0
    4bce:	01346433          	or	s0,s0,s3
    4bd2:	009a14b3          	sll	s1,s4,s1
    4bd6:	0146d713          	srli	a4,a3,0x14
    4bda:	c0d00913          	li	s2,-1011
    4bde:	00c69a13          	slli	s4,a3,0xc
    4be2:	7ff77713          	andi	a4,a4,2047
    4be6:	40f90933          	sub	s2,s2,a5
    4bea:	4981                	li	s3,0
    4bec:	4b81                	li	s7,0
    4bee:	85b2                	mv	a1,a2
    4bf0:	00ca5a13          	srli	s4,s4,0xc
    4bf4:	01f6db13          	srli	s6,a3,0x1f
    4bf8:	ee0719e3          	bnez	a4,4aea <__muldf3+0x6e>
    4bfc:	00ca67b3          	or	a5,s4,a2
    4c00:	c7b1                	beqz	a5,4c4c <__muldf3+0x1d0>
    4c02:	220a0f63          	beqz	s4,4e40 <__muldf3+0x3c4>
    4c06:	8552                	mv	a0,s4
    4c08:	c432                	sw	a2,8(sp)
    4c0a:	119010ef          	jal	ra,6522 <__clzsi2>
    4c0e:	4622                	lw	a2,8(sp)
    4c10:	872a                	mv	a4,a0
    4c12:	ff550693          	addi	a3,a0,-11
    4c16:	47f5                	li	a5,29
    4c18:	ff870593          	addi	a1,a4,-8
    4c1c:	8f95                	sub	a5,a5,a3
    4c1e:	00ba1a33          	sll	s4,s4,a1
    4c22:	00f657b3          	srl	a5,a2,a5
    4c26:	0147e7b3          	or	a5,a5,s4
    4c2a:	00b615b3          	sll	a1,a2,a1
    4c2e:	40e90933          	sub	s2,s2,a4
    4c32:	c0d90913          	addi	s2,s2,-1011
    4c36:	4881                	li	a7,0
    4c38:	bde1                	j	4b10 <__muldf3+0x94>
    4c3a:	00a9e433          	or	s0,s3,a0
    4c3e:	ec01                	bnez	s0,4c56 <__muldf3+0x1da>
    4c40:	49a1                	li	s3,8
    4c42:	4481                	li	s1,0
    4c44:	7ff00913          	li	s2,2047
    4c48:	4b89                	li	s7,2
    4c4a:	b559                	j	4ad0 <__muldf3+0x54>
    4c4c:	0019e993          	ori	s3,s3,1
    4c50:	4581                	li	a1,0
    4c52:	4885                	li	a7,1
    4c54:	bd75                	j	4b10 <__muldf3+0x94>
    4c56:	844e                	mv	s0,s3
    4c58:	84aa                	mv	s1,a0
    4c5a:	49b1                	li	s3,12
    4c5c:	7ff00913          	li	s2,2047
    4c60:	4b8d                	li	s7,3
    4c62:	b5bd                	j	4ad0 <__muldf3+0x54>
    4c64:	4991                	li	s3,4
    4c66:	4481                	li	s1,0
    4c68:	4901                	li	s2,0
    4c6a:	4b85                	li	s7,1
    4c6c:	b595                	j	4ad0 <__muldf3+0x54>
    4c6e:	0039e993          	ori	s3,s3,3
    4c72:	87d2                	mv	a5,s4
    4c74:	488d                	li	a7,3
    4c76:	bd69                	j	4b10 <__muldf3+0x94>
    4c78:	4789                	li	a5,2
    4c7a:	8556                	mv	a0,s5
    4c7c:	f0fb97e3          	bne	s7,a5,4b8a <__muldf3+0x10e>
    4c80:	872a                	mv	a4,a0
    4c82:	7ff00793          	li	a5,2047
    4c86:	4401                	li	s0,0
    4c88:	4481                	li	s1,0
    4c8a:	b5f1                	j	4b56 <__muldf3+0xda>
    4c8c:	6ec1                	lui	t4,0x10
    4c8e:	fffe8613          	addi	a2,t4,-1 # ffff <_data_lma+0x9207>
    4c92:	0104d693          	srli	a3,s1,0x10
    4c96:	0105de13          	srli	t3,a1,0x10
    4c9a:	8cf1                	and	s1,s1,a2
    4c9c:	8df1                	and	a1,a1,a2
    4c9e:	02958633          	mul	a2,a1,s1
    4ca2:	02b68333          	mul	t1,a3,a1
    4ca6:	01065893          	srli	a7,a2,0x10
    4caa:	029e0533          	mul	a0,t3,s1
    4cae:	951a                	add	a0,a0,t1
    4cb0:	98aa                	add	a7,a7,a0
    4cb2:	03c682b3          	mul	t0,a3,t3
    4cb6:	0068f363          	bgeu	a7,t1,4cbc <__muldf3+0x240>
    4cba:	92f6                	add	t0,t0,t4
    4cbc:	6fc1                	lui	t6,0x10
    4cbe:	ffff8313          	addi	t1,t6,-1 # ffff <_data_lma+0x9207>
    4cc2:	0067f533          	and	a0,a5,t1
    4cc6:	0107d393          	srli	t2,a5,0x10
    4cca:	0068f7b3          	and	a5,a7,t1
    4cce:	07c2                	slli	a5,a5,0x10
    4cd0:	00667333          	and	t1,a2,t1
    4cd4:	933e                	add	t1,t1,a5
    4cd6:	02950633          	mul	a2,a0,s1
    4cda:	0108d893          	srli	a7,a7,0x10
    4cde:	02a687b3          	mul	a5,a3,a0
    4ce2:	01065f13          	srli	t5,a2,0x10
    4ce6:	029384b3          	mul	s1,t2,s1
    4cea:	94be                	add	s1,s1,a5
    4cec:	94fa                	add	s1,s1,t5
    4cee:	02768eb3          	mul	t4,a3,t2
    4cf2:	00f4f363          	bgeu	s1,a5,4cf8 <__muldf3+0x27c>
    4cf6:	9efe                	add	t4,t4,t6
    4cf8:	6a41                	lui	s4,0x10
    4cfa:	fffa0793          	addi	a5,s4,-1 # ffff <_data_lma+0x9207>
    4cfe:	01045f93          	srli	t6,s0,0x10
    4d02:	00f476b3          	and	a3,s0,a5
    4d06:	00f4f9b3          	and	s3,s1,a5
    4d0a:	8e7d                	and	a2,a2,a5
    4d0c:	80c1                	srli	s1,s1,0x10
    4d0e:	02d58433          	mul	s0,a1,a3
    4d12:	09c2                	slli	s3,s3,0x10
    4d14:	01d48f33          	add	t5,s1,t4
    4d18:	99b2                	add	s3,s3,a2
    4d1a:	98ce                	add	a7,a7,s3
    4d1c:	02de07b3          	mul	a5,t3,a3
    4d20:	01045e93          	srli	t4,s0,0x10
    4d24:	02bf85b3          	mul	a1,t6,a1
    4d28:	97ae                	add	a5,a5,a1
    4d2a:	9ebe                	add	t4,t4,a5
    4d2c:	03fe0e33          	mul	t3,t3,t6
    4d30:	00bef363          	bgeu	t4,a1,4d36 <__muldf3+0x2ba>
    4d34:	9e52                	add	t3,t3,s4
    4d36:	67c1                	lui	a5,0x10
    4d38:	fff78593          	addi	a1,a5,-1 # ffff <_data_lma+0x9207>
    4d3c:	00bef633          	and	a2,t4,a1
    4d40:	8c6d                	and	s0,s0,a1
    4d42:	0642                	slli	a2,a2,0x10
    4d44:	9622                	add	a2,a2,s0
    4d46:	010ede93          	srli	t4,t4,0x10
    4d4a:	02d505b3          	mul	a1,a0,a3
    4d4e:	9e76                	add	t3,t3,t4
    4d50:	02af8533          	mul	a0,t6,a0
    4d54:	0105d413          	srli	s0,a1,0x10
    4d58:	02d386b3          	mul	a3,t2,a3
    4d5c:	96aa                	add	a3,a3,a0
    4d5e:	96a2                	add	a3,a3,s0
    4d60:	03f38fb3          	mul	t6,t2,t6
    4d64:	00a6f363          	bgeu	a3,a0,4d6a <__muldf3+0x2ee>
    4d68:	9fbe                	add	t6,t6,a5
    4d6a:	6541                	lui	a0,0x10
    4d6c:	157d                	addi	a0,a0,-1
    4d6e:	00a6f7b3          	and	a5,a3,a0
    4d72:	07c2                	slli	a5,a5,0x10
    4d74:	8d6d                	and	a0,a0,a1
    4d76:	97aa                	add	a5,a5,a0
    4d78:	005885b3          	add	a1,a7,t0
    4d7c:	0135b9b3          	sltu	s3,a1,s3
    4d80:	97fa                	add	a5,a5,t5
    4d82:	95b2                	add	a1,a1,a2
    4d84:	01378433          	add	s0,a5,s3
    4d88:	00c5b633          	sltu	a2,a1,a2
    4d8c:	01c40eb3          	add	t4,s0,t3
    4d90:	00ce8533          	add	a0,t4,a2
    4d94:	01343433          	sltu	s0,s0,s3
    4d98:	01e7b7b3          	sltu	a5,a5,t5
    4d9c:	8fc1                	or	a5,a5,s0
    4d9e:	01cebe33          	sltu	t3,t4,t3
    4da2:	0106d413          	srli	s0,a3,0x10
    4da6:	00c53633          	sltu	a2,a0,a2
    4daa:	943e                	add	s0,s0,a5
    4dac:	00ce6633          	or	a2,t3,a2
    4db0:	00959493          	slli	s1,a1,0x9
    4db4:	9432                	add	s0,s0,a2
    4db6:	947e                	add	s0,s0,t6
    4db8:	0064e4b3          	or	s1,s1,t1
    4dbc:	0426                	slli	s0,s0,0x9
    4dbe:	01755693          	srli	a3,a0,0x17
    4dc2:	009034b3          	snez	s1,s1
    4dc6:	81dd                	srli	a1,a1,0x17
    4dc8:	00951793          	slli	a5,a0,0x9
    4dcc:	8ccd                	or	s1,s1,a1
    4dce:	8c55                	or	s0,s0,a3
    4dd0:	8cdd                	or	s1,s1,a5
    4dd2:	00741793          	slli	a5,s0,0x7
    4dd6:	0007db63          	bgez	a5,4dec <__muldf3+0x370>
    4dda:	0014d793          	srli	a5,s1,0x1
    4dde:	8885                	andi	s1,s1,1
    4de0:	01f41693          	slli	a3,s0,0x1f
    4de4:	8cdd                	or	s1,s1,a5
    4de6:	8cd5                	or	s1,s1,a3
    4de8:	8005                	srli	s0,s0,0x1
    4dea:	8942                	mv	s2,a6
    4dec:	3ff90793          	addi	a5,s2,1023
    4df0:	08f05963          	blez	a5,4e82 <__muldf3+0x406>
    4df4:	0074f693          	andi	a3,s1,7
    4df8:	ce81                	beqz	a3,4e10 <__muldf3+0x394>
    4dfa:	00f4f693          	andi	a3,s1,15
    4dfe:	4611                	li	a2,4
    4e00:	00c68863          	beq	a3,a2,4e10 <__muldf3+0x394>
    4e04:	00448693          	addi	a3,s1,4
    4e08:	0096b4b3          	sltu	s1,a3,s1
    4e0c:	9426                	add	s0,s0,s1
    4e0e:	84b6                	mv	s1,a3
    4e10:	00741693          	slli	a3,s0,0x7
    4e14:	0006d863          	bgez	a3,4e24 <__muldf3+0x3a8>
    4e18:	ff0007b7          	lui	a5,0xff000
    4e1c:	17fd                	addi	a5,a5,-1
    4e1e:	8c7d                	and	s0,s0,a5
    4e20:	40090793          	addi	a5,s2,1024
    4e24:	7fe00693          	li	a3,2046
    4e28:	0ef6cf63          	blt	a3,a5,4f26 <__muldf3+0x4aa>
    4e2c:	0034d693          	srli	a3,s1,0x3
    4e30:	01d41493          	slli	s1,s0,0x1d
    4e34:	0426                	slli	s0,s0,0x9
    4e36:	8cd5                	or	s1,s1,a3
    4e38:	8031                	srli	s0,s0,0xc
    4e3a:	7ff7f793          	andi	a5,a5,2047
    4e3e:	bb21                	j	4b56 <__muldf3+0xda>
    4e40:	8532                	mv	a0,a2
    4e42:	c432                	sw	a2,8(sp)
    4e44:	6de010ef          	jal	ra,6522 <__clzsi2>
    4e48:	01550693          	addi	a3,a0,21 # 10015 <_data_lma+0x921d>
    4e4c:	47f1                	li	a5,28
    4e4e:	02050713          	addi	a4,a0,32
    4e52:	4622                	lw	a2,8(sp)
    4e54:	dcd7d1e3          	bge	a5,a3,4c16 <__muldf3+0x19a>
    4e58:	1561                	addi	a0,a0,-8
    4e5a:	00a617b3          	sll	a5,a2,a0
    4e5e:	4581                	li	a1,0
    4e60:	b3f9                	j	4c2e <__muldf3+0x1b2>
    4e62:	6c0010ef          	jal	ra,6522 <__clzsi2>
    4e66:	01550713          	addi	a4,a0,21
    4e6a:	45f1                	li	a1,28
    4e6c:	02050793          	addi	a5,a0,32
    4e70:	4622                	lw	a2,8(sp)
    4e72:	46b2                	lw	a3,12(sp)
    4e74:	d4e5d5e3          	bge	a1,a4,4bbe <__muldf3+0x142>
    4e78:	1561                	addi	a0,a0,-8
    4e7a:	00aa1433          	sll	s0,s4,a0
    4e7e:	4481                	li	s1,0
    4e80:	bb99                	j	4bd6 <__muldf3+0x15a>
    4e82:	4685                	li	a3,1
    4e84:	8e9d                	sub	a3,a3,a5
    4e86:	e7b1                	bnez	a5,4ed2 <__muldf3+0x456>
    4e88:	41e90913          	addi	s2,s2,1054
    4e8c:	012497b3          	sll	a5,s1,s2
    4e90:	00d4d4b3          	srl	s1,s1,a3
    4e94:	01241933          	sll	s2,s0,s2
    4e98:	00f037b3          	snez	a5,a5
    4e9c:	009964b3          	or	s1,s2,s1
    4ea0:	8cdd                	or	s1,s1,a5
    4ea2:	0074f793          	andi	a5,s1,7
    4ea6:	00d456b3          	srl	a3,s0,a3
    4eaa:	cf81                	beqz	a5,4ec2 <__muldf3+0x446>
    4eac:	00f4f793          	andi	a5,s1,15
    4eb0:	4611                	li	a2,4
    4eb2:	00c78863          	beq	a5,a2,4ec2 <__muldf3+0x446>
    4eb6:	00448793          	addi	a5,s1,4
    4eba:	0097b4b3          	sltu	s1,a5,s1
    4ebe:	96a6                	add	a3,a3,s1
    4ec0:	84be                	mv	s1,a5
    4ec2:	00869793          	slli	a5,a3,0x8
    4ec6:	0407d863          	bgez	a5,4f16 <__muldf3+0x49a>
    4eca:	4785                	li	a5,1
    4ecc:	4401                	li	s0,0
    4ece:	4481                	li	s1,0
    4ed0:	b159                	j	4b56 <__muldf3+0xda>
    4ed2:	03800613          	li	a2,56
    4ed6:	ccd641e3          	blt	a2,a3,4b98 <__muldf3+0x11c>
    4eda:	467d                	li	a2,31
    4edc:	fad656e3          	bge	a2,a3,4e88 <__muldf3+0x40c>
    4ee0:	5605                	li	a2,-31
    4ee2:	40f607b3          	sub	a5,a2,a5
    4ee6:	02000593          	li	a1,32
    4eea:	00f45633          	srl	a2,s0,a5
    4eee:	00b68763          	beq	a3,a1,4efc <__muldf3+0x480>
    4ef2:	43e90913          	addi	s2,s2,1086
    4ef6:	012417b3          	sll	a5,s0,s2
    4efa:	8cdd                	or	s1,s1,a5
    4efc:	009034b3          	snez	s1,s1
    4f00:	8cd1                	or	s1,s1,a2
    4f02:	0074f693          	andi	a3,s1,7
    4f06:	4401                	li	s0,0
    4f08:	ca99                	beqz	a3,4f1e <__muldf3+0x4a2>
    4f0a:	00f4f793          	andi	a5,s1,15
    4f0e:	4611                	li	a2,4
    4f10:	4681                	li	a3,0
    4f12:	fac792e3          	bne	a5,a2,4eb6 <__muldf3+0x43a>
    4f16:	00969413          	slli	s0,a3,0x9
    4f1a:	8031                	srli	s0,s0,0xc
    4f1c:	06f6                	slli	a3,a3,0x1d
    4f1e:	808d                	srli	s1,s1,0x3
    4f20:	8cd5                	or	s1,s1,a3
    4f22:	4781                	li	a5,0
    4f24:	b90d                	j	4b56 <__muldf3+0xda>
    4f26:	7ff00793          	li	a5,2047
    4f2a:	4401                	li	s0,0
    4f2c:	4481                	li	s1,0
    4f2e:	b125                	j	4b56 <__muldf3+0xda>
    4f30:	8942                	mv	s2,a6
    4f32:	bd6d                	j	4dec <__muldf3+0x370>

00004f34 <__subdf3>:
__subdf3():
    4f34:	00100737          	lui	a4,0x100
    4f38:	177d                	addi	a4,a4,-1
    4f3a:	1101                	addi	sp,sp,-32
    4f3c:	00b77333          	and	t1,a4,a1
    4f40:	0146d893          	srli	a7,a3,0x14
    4f44:	8f75                	and	a4,a4,a3
    4f46:	01d65e93          	srli	t4,a2,0x1d
    4f4a:	cc22                	sw	s0,24(sp)
    4f4c:	ca26                	sw	s1,20(sp)
    4f4e:	030e                	slli	t1,t1,0x3
    4f50:	0145d493          	srli	s1,a1,0x14
    4f54:	01d55793          	srli	a5,a0,0x1d
    4f58:	070e                	slli	a4,a4,0x3
    4f5a:	ce06                	sw	ra,28(sp)
    4f5c:	c84a                	sw	s2,16(sp)
    4f5e:	c64e                	sw	s3,12(sp)
    4f60:	7ff8f893          	andi	a7,a7,2047
    4f64:	7ff00e13          	li	t3,2047
    4f68:	00eee733          	or	a4,t4,a4
    4f6c:	7ff4f493          	andi	s1,s1,2047
    4f70:	01f5d413          	srli	s0,a1,0x1f
    4f74:	0067e333          	or	t1,a5,t1
    4f78:	00351f13          	slli	t5,a0,0x3
    4f7c:	82fd                	srli	a3,a3,0x1f
    4f7e:	00361e93          	slli	t4,a2,0x3
    4f82:	19c88063          	beq	a7,t3,5102 <__subdf3+0x1ce>
    4f86:	0016c693          	xori	a3,a3,1
    4f8a:	411485b3          	sub	a1,s1,a7
    4f8e:	12d40563          	beq	s0,a3,50b8 <__subdf3+0x184>
    4f92:	18b05163          	blez	a1,5114 <__subdf3+0x1e0>
    4f96:	1a088b63          	beqz	a7,514c <__subdf3+0x218>
    4f9a:	008007b7          	lui	a5,0x800
    4f9e:	8f5d                	or	a4,a4,a5
    4fa0:	59c48163          	beq	s1,t3,5522 <__subdf3+0x5ee>
    4fa4:	03800793          	li	a5,56
    4fa8:	34b7c463          	blt	a5,a1,52f0 <__subdf3+0x3bc>
    4fac:	47fd                	li	a5,31
    4fae:	48b7c563          	blt	a5,a1,5438 <__subdf3+0x504>
    4fb2:	02000793          	li	a5,32
    4fb6:	8f8d                	sub	a5,a5,a1
    4fb8:	00bed9b3          	srl	s3,t4,a1
    4fbc:	00f71833          	sll	a6,a4,a5
    4fc0:	00fe9eb3          	sll	t4,t4,a5
    4fc4:	01386833          	or	a6,a6,s3
    4fc8:	00b75733          	srl	a4,a4,a1
    4fcc:	01d039b3          	snez	s3,t4
    4fd0:	01386833          	or	a6,a6,s3
    4fd4:	40e30333          	sub	t1,t1,a4
    4fd8:	410f09b3          	sub	s3,t5,a6
    4fdc:	013f37b3          	sltu	a5,t5,s3
    4fe0:	40f30633          	sub	a2,t1,a5
    4fe4:	00861793          	slli	a5,a2,0x8
    4fe8:	2407d363          	bgez	a5,522e <__subdf3+0x2fa>
    4fec:	00800937          	lui	s2,0x800
    4ff0:	197d                	addi	s2,s2,-1
    4ff2:	01267933          	and	s2,a2,s2
    4ff6:	2c090f63          	beqz	s2,52d4 <__subdf3+0x3a0>
    4ffa:	854a                	mv	a0,s2
    4ffc:	526010ef          	jal	ra,6522 <__clzsi2>
    5000:	ff850713          	addi	a4,a0,-8
    5004:	02000793          	li	a5,32
    5008:	8f99                	sub	a5,a5,a4
    500a:	00f9d7b3          	srl	a5,s3,a5
    500e:	00e91633          	sll	a2,s2,a4
    5012:	8fd1                	or	a5,a5,a2
    5014:	00e999b3          	sll	s3,s3,a4
    5018:	2a974463          	blt	a4,s1,52c0 <__subdf3+0x38c>
    501c:	8f05                	sub	a4,a4,s1
    501e:	00170613          	addi	a2,a4,1 # 100001 <_data_lma+0xf9209>
    5022:	46fd                	li	a3,31
    5024:	3ac6c563          	blt	a3,a2,53ce <__subdf3+0x49a>
    5028:	02000713          	li	a4,32
    502c:	8f11                	sub	a4,a4,a2
    502e:	00c9d6b3          	srl	a3,s3,a2
    5032:	00e99833          	sll	a6,s3,a4
    5036:	00e79733          	sll	a4,a5,a4
    503a:	8f55                	or	a4,a4,a3
    503c:	01003833          	snez	a6,a6
    5040:	010769b3          	or	s3,a4,a6
    5044:	00c7d633          	srl	a2,a5,a2
    5048:	4481                	li	s1,0
    504a:	0079f793          	andi	a5,s3,7
    504e:	cf81                	beqz	a5,5066 <__subdf3+0x132>
    5050:	00f9f693          	andi	a3,s3,15
    5054:	4791                	li	a5,4
    5056:	00f68863          	beq	a3,a5,5066 <__subdf3+0x132>
    505a:	00498693          	addi	a3,s3,4
    505e:	0136b833          	sltu	a6,a3,s3
    5062:	9642                	add	a2,a2,a6
    5064:	89b6                	mv	s3,a3
    5066:	00861793          	slli	a5,a2,0x8
    506a:	1c07d663          	bgez	a5,5236 <__subdf3+0x302>
    506e:	00148713          	addi	a4,s1,1
    5072:	7ff00793          	li	a5,2047
    5076:	8805                	andi	s0,s0,1
    5078:	20f70663          	beq	a4,a5,5284 <__subdf3+0x350>
    507c:	ff8007b7          	lui	a5,0xff800
    5080:	17fd                	addi	a5,a5,-1
    5082:	8ff1                	and	a5,a5,a2
    5084:	01d79813          	slli	a6,a5,0x1d
    5088:	0039d993          	srli	s3,s3,0x3
    508c:	07a6                	slli	a5,a5,0x9
    508e:	01386833          	or	a6,a6,s3
    5092:	83b1                	srli	a5,a5,0xc
    5094:	7ff77713          	andi	a4,a4,2047
    5098:	00c79693          	slli	a3,a5,0xc
    509c:	0752                	slli	a4,a4,0x14
    509e:	82b1                	srli	a3,a3,0xc
    50a0:	047e                	slli	s0,s0,0x1f
    50a2:	8ed9                	or	a3,a3,a4
    50a4:	8ec1                	or	a3,a3,s0
    50a6:	40f2                	lw	ra,28(sp)
    50a8:	4462                	lw	s0,24(sp)
    50aa:	44d2                	lw	s1,20(sp)
    50ac:	4942                	lw	s2,16(sp)
    50ae:	49b2                	lw	s3,12(sp)
    50b0:	8542                	mv	a0,a6
    50b2:	85b6                	mv	a1,a3
    50b4:	6105                	addi	sp,sp,32
    50b6:	8082                	ret
    50b8:	0ab05663          	blez	a1,5164 <__subdf3+0x230>
    50bc:	12088a63          	beqz	a7,51f0 <__subdf3+0x2bc>
    50c0:	008007b7          	lui	a5,0x800
    50c4:	8f5d                	or	a4,a4,a5
    50c6:	2dc48763          	beq	s1,t3,5394 <__subdf3+0x460>
    50ca:	03800793          	li	a5,56
    50ce:	18b7c763          	blt	a5,a1,525c <__subdf3+0x328>
    50d2:	47fd                	li	a5,31
    50d4:	3cb7d263          	bge	a5,a1,5498 <__subdf3+0x564>
    50d8:	fe058813          	addi	a6,a1,-32 # ffe0 <_data_lma+0x91e8>
    50dc:	02000793          	li	a5,32
    50e0:	010759b3          	srl	s3,a4,a6
    50e4:	00f58a63          	beq	a1,a5,50f8 <__subdf3+0x1c4>
    50e8:	04000793          	li	a5,64
    50ec:	40b785b3          	sub	a1,a5,a1
    50f0:	00b71733          	sll	a4,a4,a1
    50f4:	00eeeeb3          	or	t4,t4,a4
    50f8:	01d03833          	snez	a6,t4
    50fc:	01386833          	or	a6,a6,s3
    5100:	a295                	j	5264 <__subdf3+0x330>
    5102:	01d767b3          	or	a5,a4,t4
    5106:	80148593          	addi	a1,s1,-2047
    510a:	e399                	bnez	a5,5110 <__subdf3+0x1dc>
    510c:	0016c693          	xori	a3,a3,1
    5110:	04d40a63          	beq	s0,a3,5164 <__subdf3+0x230>
    5114:	e1d1                	bnez	a1,5198 <__subdf3+0x264>
    5116:	00148793          	addi	a5,s1,1
    511a:	7fe7f793          	andi	a5,a5,2046
    511e:	1e079963          	bnez	a5,5310 <__subdf3+0x3dc>
    5122:	01e367b3          	or	a5,t1,t5
    5126:	01d76833          	or	a6,a4,t4
    512a:	16049263          	bnez	s1,528e <__subdf3+0x35a>
    512e:	3c078263          	beqz	a5,54f2 <__subdf3+0x5be>
    5132:	42081663          	bnez	a6,555e <__subdf3+0x62a>
    5136:	00351813          	slli	a6,a0,0x3
    513a:	01d31693          	slli	a3,t1,0x1d
    513e:	00385813          	srli	a6,a6,0x3
    5142:	0106e833          	or	a6,a3,a6
    5146:	00335793          	srli	a5,t1,0x3
    514a:	a219                	j	5250 <__subdf3+0x31c>
    514c:	01d767b3          	or	a5,a4,t4
    5150:	1a078563          	beqz	a5,52fa <__subdf3+0x3c6>
    5154:	fff58793          	addi	a5,a1,-1
    5158:	3a078b63          	beqz	a5,550e <__subdf3+0x5da>
    515c:	23c58c63          	beq	a1,t3,5394 <__subdf3+0x460>
    5160:	85be                	mv	a1,a5
    5162:	b589                	j	4fa4 <__subdf3+0x70>
    5164:	1c059963          	bnez	a1,5336 <__subdf3+0x402>
    5168:	00148693          	addi	a3,s1,1
    516c:	7fe6f793          	andi	a5,a3,2046
    5170:	efc1                	bnez	a5,5208 <__subdf3+0x2d4>
    5172:	01e367b3          	or	a5,t1,t5
    5176:	36049063          	bnez	s1,54d6 <__subdf3+0x5a2>
    517a:	44078d63          	beqz	a5,55d4 <__subdf3+0x6a0>
    517e:	01d767b3          	or	a5,a4,t4
    5182:	46079463          	bnez	a5,55ea <__subdf3+0x6b6>
    5186:	050e                	slli	a0,a0,0x3
    5188:	01d31813          	slli	a6,t1,0x1d
    518c:	810d                	srli	a0,a0,0x3
    518e:	00a86833          	or	a6,a6,a0
    5192:	00335793          	srli	a5,t1,0x3
    5196:	a86d                	j	5250 <__subdf3+0x31c>
    5198:	409885b3          	sub	a1,a7,s1
    519c:	20049763          	bnez	s1,53aa <__subdf3+0x476>
    51a0:	01e367b3          	or	a5,t1,t5
    51a4:	30078d63          	beqz	a5,54be <__subdf3+0x58a>
    51a8:	fff58793          	addi	a5,a1,-1
    51ac:	40078963          	beqz	a5,55be <__subdf3+0x68a>
    51b0:	7ff00513          	li	a0,2047
    51b4:	20a58363          	beq	a1,a0,53ba <__subdf3+0x486>
    51b8:	85be                	mv	a1,a5
    51ba:	03800793          	li	a5,56
    51be:	2ab7c263          	blt	a5,a1,5462 <__subdf3+0x52e>
    51c2:	47fd                	li	a5,31
    51c4:	3cb7c863          	blt	a5,a1,5594 <__subdf3+0x660>
    51c8:	02000793          	li	a5,32
    51cc:	8f8d                	sub	a5,a5,a1
    51ce:	00f31833          	sll	a6,t1,a5
    51d2:	00bf5633          	srl	a2,t5,a1
    51d6:	00ff17b3          	sll	a5,t5,a5
    51da:	00c86833          	or	a6,a6,a2
    51de:	00f039b3          	snez	s3,a5
    51e2:	00b35333          	srl	t1,t1,a1
    51e6:	01386833          	or	a6,a6,s3
    51ea:	40670733          	sub	a4,a4,t1
    51ee:	acb5                	j	546a <__subdf3+0x536>
    51f0:	01d767b3          	or	a5,a4,t4
    51f4:	10078363          	beqz	a5,52fa <__subdf3+0x3c6>
    51f8:	fff58793          	addi	a5,a1,-1
    51fc:	1e078f63          	beqz	a5,53fa <__subdf3+0x4c6>
    5200:	2fc58063          	beq	a1,t3,54e0 <__subdf3+0x5ac>
    5204:	85be                	mv	a1,a5
    5206:	b5d1                	j	50ca <__subdf3+0x196>
    5208:	7ff00793          	li	a5,2047
    520c:	06f68b63          	beq	a3,a5,5282 <__subdf3+0x34e>
    5210:	9efa                	add	t4,t4,t5
    5212:	01eeb633          	sltu	a2,t4,t5
    5216:	00e307b3          	add	a5,t1,a4
    521a:	97b2                	add	a5,a5,a2
    521c:	01f79813          	slli	a6,a5,0x1f
    5220:	001ede93          	srli	t4,t4,0x1
    5224:	01d869b3          	or	s3,a6,t4
    5228:	0017d613          	srli	a2,a5,0x1
    522c:	84b6                	mv	s1,a3
    522e:	0079f793          	andi	a5,s3,7
    5232:	e0079fe3          	bnez	a5,5050 <__subdf3+0x11c>
    5236:	01d61793          	slli	a5,a2,0x1d
    523a:	0039d813          	srli	a6,s3,0x3
    523e:	00f86833          	or	a6,a6,a5
    5242:	85a6                	mv	a1,s1
    5244:	00365793          	srli	a5,a2,0x3
    5248:	7ff00713          	li	a4,2047
    524c:	06e58063          	beq	a1,a4,52ac <__subdf3+0x378>
    5250:	07b2                	slli	a5,a5,0xc
    5252:	83b1                	srli	a5,a5,0xc
    5254:	7ff5f713          	andi	a4,a1,2047
    5258:	8805                	andi	s0,s0,1
    525a:	bd3d                	j	5098 <__subdf3+0x164>
    525c:	01d76733          	or	a4,a4,t4
    5260:	00e03833          	snez	a6,a4
    5264:	01e809b3          	add	s3,a6,t5
    5268:	01e9b7b3          	sltu	a5,s3,t5
    526c:	00678633          	add	a2,a5,t1
    5270:	00861793          	slli	a5,a2,0x8
    5274:	fa07dde3          	bgez	a5,522e <__subdf3+0x2fa>
    5278:	0485                	addi	s1,s1,1
    527a:	7ff00793          	li	a5,2047
    527e:	18f49c63          	bne	s1,a5,5416 <__subdf3+0x4e2>
    5282:	8805                	andi	s0,s0,1
    5284:	7ff00713          	li	a4,2047
    5288:	4781                	li	a5,0
    528a:	4801                	li	a6,0
    528c:	b531                	j	5098 <__subdf3+0x164>
    528e:	10079163          	bnez	a5,5390 <__subdf3+0x45c>
    5292:	3c080163          	beqz	a6,5654 <__subdf3+0x720>
    5296:	00361813          	slli	a6,a2,0x3
    529a:	01d71793          	slli	a5,a4,0x1d
    529e:	00385813          	srli	a6,a6,0x3
    52a2:	00f86833          	or	a6,a6,a5
    52a6:	8436                	mv	s0,a3
    52a8:	00375793          	srli	a5,a4,0x3
    52ac:	00f867b3          	or	a5,a6,a5
    52b0:	dbe9                	beqz	a5,5282 <__subdf3+0x34e>
    52b2:	4401                	li	s0,0
    52b4:	7ff00713          	li	a4,2047
    52b8:	000807b7          	lui	a5,0x80
    52bc:	4801                	li	a6,0
    52be:	bbe9                	j	5098 <__subdf3+0x164>
    52c0:	ff800637          	lui	a2,0xff800
    52c4:	167d                	addi	a2,a2,-1
    52c6:	8e7d                	and	a2,a2,a5
    52c8:	0079f793          	andi	a5,s3,7
    52cc:	8c99                	sub	s1,s1,a4
    52ce:	d80791e3          	bnez	a5,5050 <__subdf3+0x11c>
    52d2:	b795                	j	5236 <__subdf3+0x302>
    52d4:	854e                	mv	a0,s3
    52d6:	24c010ef          	jal	ra,6522 <__clzsi2>
    52da:	01850713          	addi	a4,a0,24
    52de:	47fd                	li	a5,31
    52e0:	d2e7d2e3          	bge	a5,a4,5004 <__subdf3+0xd0>
    52e4:	ff850613          	addi	a2,a0,-8
    52e8:	00c997b3          	sll	a5,s3,a2
    52ec:	4981                	li	s3,0
    52ee:	b32d                	j	5018 <__subdf3+0xe4>
    52f0:	01d76833          	or	a6,a4,t4
    52f4:	01003833          	snez	a6,a6
    52f8:	b1c5                	j	4fd8 <__subdf3+0xa4>
    52fa:	00351813          	slli	a6,a0,0x3
    52fe:	01d31793          	slli	a5,t1,0x1d
    5302:	00385813          	srli	a6,a6,0x3
    5306:	00f86833          	or	a6,a6,a5
    530a:	00335793          	srli	a5,t1,0x3
    530e:	bf2d                	j	5248 <__subdf3+0x314>
    5310:	41df09b3          	sub	s3,t5,t4
    5314:	40e30933          	sub	s2,t1,a4
    5318:	013f3633          	sltu	a2,t5,s3
    531c:	40c90933          	sub	s2,s2,a2
    5320:	00891793          	slli	a5,s2,0x8
    5324:	2007ca63          	bltz	a5,5538 <__subdf3+0x604>
    5328:	0129e833          	or	a6,s3,s2
    532c:	cc0815e3          	bnez	a6,4ff6 <__subdf3+0xc2>
    5330:	4781                	li	a5,0
    5332:	4401                	li	s0,0
    5334:	bf31                	j	5250 <__subdf3+0x31c>
    5336:	409885b3          	sub	a1,a7,s1
    533a:	14048163          	beqz	s1,547c <__subdf3+0x548>
    533e:	008006b7          	lui	a3,0x800
    5342:	7ff00793          	li	a5,2047
    5346:	00d36333          	or	t1,t1,a3
    534a:	20f88163          	beq	a7,a5,554c <__subdf3+0x618>
    534e:	03800793          	li	a5,56
    5352:	22b7cc63          	blt	a5,a1,558a <__subdf3+0x656>
    5356:	47fd                	li	a5,31
    5358:	2cb7c963          	blt	a5,a1,562a <__subdf3+0x6f6>
    535c:	02000793          	li	a5,32
    5360:	8f8d                	sub	a5,a5,a1
    5362:	00f31833          	sll	a6,t1,a5
    5366:	00bf56b3          	srl	a3,t5,a1
    536a:	00ff17b3          	sll	a5,t5,a5
    536e:	00d86833          	or	a6,a6,a3
    5372:	00f039b3          	snez	s3,a5
    5376:	00b35333          	srl	t1,t1,a1
    537a:	01386833          	or	a6,a6,s3
    537e:	971a                	add	a4,a4,t1
    5380:	01d809b3          	add	s3,a6,t4
    5384:	01d9b7b3          	sltu	a5,s3,t4
    5388:	00e78633          	add	a2,a5,a4
    538c:	84c6                	mv	s1,a7
    538e:	b5cd                	j	5270 <__subdf3+0x33c>
    5390:	f20811e3          	bnez	a6,52b2 <__subdf3+0x37e>
    5394:	00351813          	slli	a6,a0,0x3
    5398:	01d31793          	slli	a5,t1,0x1d
    539c:	00385813          	srli	a6,a6,0x3
    53a0:	00f86833          	or	a6,a6,a5
    53a4:	00335793          	srli	a5,t1,0x3
    53a8:	b711                	j	52ac <__subdf3+0x378>
    53aa:	00800537          	lui	a0,0x800
    53ae:	7ff00793          	li	a5,2047
    53b2:	00a36333          	or	t1,t1,a0
    53b6:	e0f892e3          	bne	a7,a5,51ba <__subdf3+0x286>
    53ba:	060e                	slli	a2,a2,0x3
    53bc:	01d71813          	slli	a6,a4,0x1d
    53c0:	820d                	srli	a2,a2,0x3
    53c2:	00c86833          	or	a6,a6,a2
    53c6:	00375793          	srli	a5,a4,0x3
    53ca:	8436                	mv	s0,a3
    53cc:	b5c5                	j	52ac <__subdf3+0x378>
    53ce:	1705                	addi	a4,a4,-31
    53d0:	02000693          	li	a3,32
    53d4:	00e7d733          	srl	a4,a5,a4
    53d8:	00d60a63          	beq	a2,a3,53ec <__subdf3+0x4b8>
    53dc:	04000693          	li	a3,64
    53e0:	40c68633          	sub	a2,a3,a2
    53e4:	00c79633          	sll	a2,a5,a2
    53e8:	00c9e9b3          	or	s3,s3,a2
    53ec:	01303833          	snez	a6,s3
    53f0:	00e869b3          	or	s3,a6,a4
    53f4:	4601                	li	a2,0
    53f6:	4481                	li	s1,0
    53f8:	bd1d                	j	522e <__subdf3+0x2fa>
    53fa:	01df09b3          	add	s3,t5,t4
    53fe:	00e307b3          	add	a5,t1,a4
    5402:	01e9bf33          	sltu	t5,s3,t5
    5406:	01e78633          	add	a2,a5,t5
    540a:	00861793          	slli	a5,a2,0x8
    540e:	4485                	li	s1,1
    5410:	e007dfe3          	bgez	a5,522e <__subdf3+0x2fa>
    5414:	4489                	li	s1,2
    5416:	ff8007b7          	lui	a5,0xff800
    541a:	17fd                	addi	a5,a5,-1
    541c:	8ff1                	and	a5,a5,a2
    541e:	0019d713          	srli	a4,s3,0x1
    5422:	0019f813          	andi	a6,s3,1
    5426:	01076833          	or	a6,a4,a6
    542a:	01f79993          	slli	s3,a5,0x1f
    542e:	0109e9b3          	or	s3,s3,a6
    5432:	0017d613          	srli	a2,a5,0x1
    5436:	b911                	j	504a <__subdf3+0x116>
    5438:	fe058813          	addi	a6,a1,-32
    543c:	02000793          	li	a5,32
    5440:	010759b3          	srl	s3,a4,a6
    5444:	00f58a63          	beq	a1,a5,5458 <__subdf3+0x524>
    5448:	04000793          	li	a5,64
    544c:	40b785b3          	sub	a1,a5,a1
    5450:	00b71733          	sll	a4,a4,a1
    5454:	00eeeeb3          	or	t4,t4,a4
    5458:	01d03833          	snez	a6,t4
    545c:	01386833          	or	a6,a6,s3
    5460:	bea5                	j	4fd8 <__subdf3+0xa4>
    5462:	01e36333          	or	t1,t1,t5
    5466:	00603833          	snez	a6,t1
    546a:	410e89b3          	sub	s3,t4,a6
    546e:	013eb7b3          	sltu	a5,t4,s3
    5472:	40f70633          	sub	a2,a4,a5
    5476:	84c6                	mv	s1,a7
    5478:	8436                	mv	s0,a3
    547a:	b6ad                	j	4fe4 <__subdf3+0xb0>
    547c:	01e367b3          	or	a5,t1,t5
    5480:	18078763          	beqz	a5,560e <__subdf3+0x6da>
    5484:	fff58793          	addi	a5,a1,-1
    5488:	1c078c63          	beqz	a5,5660 <__subdf3+0x72c>
    548c:	7ff00693          	li	a3,2047
    5490:	0ad58e63          	beq	a1,a3,554c <__subdf3+0x618>
    5494:	85be                	mv	a1,a5
    5496:	bd65                	j	534e <__subdf3+0x41a>
    5498:	02000793          	li	a5,32
    549c:	8f8d                	sub	a5,a5,a1
    549e:	00bed9b3          	srl	s3,t4,a1
    54a2:	00f71833          	sll	a6,a4,a5
    54a6:	00fe9eb3          	sll	t4,t4,a5
    54aa:	01386833          	or	a6,a6,s3
    54ae:	00b75733          	srl	a4,a4,a1
    54b2:	01d039b3          	snez	s3,t4
    54b6:	01386833          	or	a6,a6,s3
    54ba:	933a                	add	t1,t1,a4
    54bc:	b365                	j	5264 <__subdf3+0x330>
    54be:	00361813          	slli	a6,a2,0x3
    54c2:	01d71793          	slli	a5,a4,0x1d
    54c6:	00385813          	srli	a6,a6,0x3
    54ca:	0107e833          	or	a6,a5,a6
    54ce:	8436                	mv	s0,a3
    54d0:	00375793          	srli	a5,a4,0x3
    54d4:	bb95                	j	5248 <__subdf3+0x314>
    54d6:	cbbd                	beqz	a5,554c <__subdf3+0x618>
    54d8:	01d76733          	or	a4,a4,t4
    54dc:	dc071be3          	bnez	a4,52b2 <__subdf3+0x37e>
    54e0:	050e                	slli	a0,a0,0x3
    54e2:	01d31813          	slli	a6,t1,0x1d
    54e6:	810d                	srli	a0,a0,0x3
    54e8:	00a86833          	or	a6,a6,a0
    54ec:	00335793          	srli	a5,t1,0x3
    54f0:	bb75                	j	52ac <__subdf3+0x378>
    54f2:	e2080fe3          	beqz	a6,5330 <__subdf3+0x3fc>
    54f6:	00361813          	slli	a6,a2,0x3
    54fa:	01d71793          	slli	a5,a4,0x1d
    54fe:	00385813          	srli	a6,a6,0x3
    5502:	00f86833          	or	a6,a6,a5
    5506:	8436                	mv	s0,a3
    5508:	00375793          	srli	a5,a4,0x3
    550c:	b391                	j	5250 <__subdf3+0x31c>
    550e:	41df09b3          	sub	s3,t5,t4
    5512:	40e307b3          	sub	a5,t1,a4
    5516:	013f3f33          	sltu	t5,t5,s3
    551a:	41e78633          	sub	a2,a5,t5
    551e:	4485                	li	s1,1
    5520:	b4d1                	j	4fe4 <__subdf3+0xb0>
    5522:	00351813          	slli	a6,a0,0x3
    5526:	01d31693          	slli	a3,t1,0x1d
    552a:	00385813          	srli	a6,a6,0x3
    552e:	0106e833          	or	a6,a3,a6
    5532:	00335793          	srli	a5,t1,0x3
    5536:	bb9d                	j	52ac <__subdf3+0x378>
    5538:	41ee89b3          	sub	s3,t4,t5
    553c:	40670633          	sub	a2,a4,t1
    5540:	013eb933          	sltu	s2,t4,s3
    5544:	41260933          	sub	s2,a2,s2
    5548:	8436                	mv	s0,a3
    554a:	b475                	j	4ff6 <__subdf3+0xc2>
    554c:	060e                	slli	a2,a2,0x3
    554e:	01d71813          	slli	a6,a4,0x1d
    5552:	820d                	srli	a2,a2,0x3
    5554:	00c86833          	or	a6,a6,a2
    5558:	00375793          	srli	a5,a4,0x3
    555c:	bb81                	j	52ac <__subdf3+0x378>
    555e:	41df09b3          	sub	s3,t5,t4
    5562:	40e307b3          	sub	a5,t1,a4
    5566:	013f3633          	sltu	a2,t5,s3
    556a:	40c78633          	sub	a2,a5,a2
    556e:	00861793          	slli	a5,a2,0x8
    5572:	0a07d763          	bgez	a5,5620 <__subdf3+0x6ec>
    5576:	41ee89b3          	sub	s3,t4,t5
    557a:	406707b3          	sub	a5,a4,t1
    557e:	013ebeb3          	sltu	t4,t4,s3
    5582:	41d78633          	sub	a2,a5,t4
    5586:	8436                	mv	s0,a3
    5588:	b4c9                	j	504a <__subdf3+0x116>
    558a:	01e36333          	or	t1,t1,t5
    558e:	00603833          	snez	a6,t1
    5592:	b3fd                	j	5380 <__subdf3+0x44c>
    5594:	fe058813          	addi	a6,a1,-32
    5598:	02000793          	li	a5,32
    559c:	010359b3          	srl	s3,t1,a6
    55a0:	00f58a63          	beq	a1,a5,55b4 <__subdf3+0x680>
    55a4:	04000793          	li	a5,64
    55a8:	40b785b3          	sub	a1,a5,a1
    55ac:	00b31333          	sll	t1,t1,a1
    55b0:	006f6f33          	or	t5,t5,t1
    55b4:	01e03833          	snez	a6,t5
    55b8:	01386833          	or	a6,a6,s3
    55bc:	b57d                	j	546a <__subdf3+0x536>
    55be:	41ee89b3          	sub	s3,t4,t5
    55c2:	406707b3          	sub	a5,a4,t1
    55c6:	013ebeb3          	sltu	t4,t4,s3
    55ca:	41d78633          	sub	a2,a5,t4
    55ce:	8436                	mv	s0,a3
    55d0:	4485                	li	s1,1
    55d2:	bc09                	j	4fe4 <__subdf3+0xb0>
    55d4:	00361813          	slli	a6,a2,0x3
    55d8:	01d71793          	slli	a5,a4,0x1d
    55dc:	00385813          	srli	a6,a6,0x3
    55e0:	00f86833          	or	a6,a6,a5
    55e4:	00375793          	srli	a5,a4,0x3
    55e8:	b1a5                	j	5250 <__subdf3+0x31c>
    55ea:	01df09b3          	add	s3,t5,t4
    55ee:	00e307b3          	add	a5,t1,a4
    55f2:	01e9bf33          	sltu	t5,s3,t5
    55f6:	01e78633          	add	a2,a5,t5
    55fa:	00861793          	slli	a5,a2,0x8
    55fe:	c207d8e3          	bgez	a5,522e <__subdf3+0x2fa>
    5602:	ff8007b7          	lui	a5,0xff800
    5606:	17fd                	addi	a5,a5,-1
    5608:	8e7d                	and	a2,a2,a5
    560a:	4485                	li	s1,1
    560c:	b10d                	j	522e <__subdf3+0x2fa>
    560e:	060e                	slli	a2,a2,0x3
    5610:	01d71813          	slli	a6,a4,0x1d
    5614:	820d                	srli	a2,a2,0x3
    5616:	00c86833          	or	a6,a6,a2
    561a:	00375793          	srli	a5,a4,0x3
    561e:	b12d                	j	5248 <__subdf3+0x314>
    5620:	00c9e833          	or	a6,s3,a2
    5624:	d00806e3          	beqz	a6,5330 <__subdf3+0x3fc>
    5628:	b119                	j	522e <__subdf3+0x2fa>
    562a:	fe058813          	addi	a6,a1,-32
    562e:	02000793          	li	a5,32
    5632:	010359b3          	srl	s3,t1,a6
    5636:	00f58a63          	beq	a1,a5,564a <__subdf3+0x716>
    563a:	04000793          	li	a5,64
    563e:	40b785b3          	sub	a1,a5,a1
    5642:	00b31333          	sll	t1,t1,a1
    5646:	006f6f33          	or	t5,t5,t1
    564a:	01e03833          	snez	a6,t5
    564e:	01386833          	or	a6,a6,s3
    5652:	b33d                	j	5380 <__subdf3+0x44c>
    5654:	4401                	li	s0,0
    5656:	7ff00713          	li	a4,2047
    565a:	000807b7          	lui	a5,0x80
    565e:	bc2d                	j	5098 <__subdf3+0x164>
    5660:	01df09b3          	add	s3,t5,t4
    5664:	00e307b3          	add	a5,t1,a4
    5668:	01d9beb3          	sltu	t4,s3,t4
    566c:	01d78633          	add	a2,a5,t4
    5670:	bb69                	j	540a <__subdf3+0x4d6>

00005672 <__fixdfsi>:
__fixdfsi():
    5672:	0145d793          	srli	a5,a1,0x14
    5676:	001006b7          	lui	a3,0x100
    567a:	fff68713          	addi	a4,a3,-1 # fffff <_data_lma+0xf9207>
    567e:	7ff7f793          	andi	a5,a5,2047
    5682:	3fe00613          	li	a2,1022
    5686:	8f6d                	and	a4,a4,a1
    5688:	81fd                	srli	a1,a1,0x1f
    568a:	00f65c63          	bge	a2,a5,56a2 <__fixdfsi+0x30>
    568e:	41d00613          	li	a2,1053
    5692:	00f65a63          	bge	a2,a5,56a6 <__fixdfsi+0x34>
    5696:	80000537          	lui	a0,0x80000
    569a:	fff54513          	not	a0,a0
    569e:	952e                	add	a0,a0,a1
    56a0:	8082                	ret
    56a2:	4501                	li	a0,0
    56a4:	8082                	ret
    56a6:	43300613          	li	a2,1075
    56aa:	8e1d                	sub	a2,a2,a5
    56ac:	487d                	li	a6,31
    56ae:	8f55                	or	a4,a4,a3
    56b0:	00c85d63          	bge	a6,a2,56ca <__fixdfsi+0x58>
    56b4:	41300693          	li	a3,1043
    56b8:	40f687b3          	sub	a5,a3,a5
    56bc:	00f757b3          	srl	a5,a4,a5
    56c0:	40f00533          	neg	a0,a5
    56c4:	f1e5                	bnez	a1,56a4 <__fixdfsi+0x32>
    56c6:	853e                	mv	a0,a5
    56c8:	8082                	ret
    56ca:	bed78793          	addi	a5,a5,-1043 # 7fbed <_data_lma+0x78df5>
    56ce:	00f717b3          	sll	a5,a4,a5
    56d2:	00c55533          	srl	a0,a0,a2
    56d6:	8fc9                	or	a5,a5,a0
    56d8:	b7e5                	j	56c0 <__fixdfsi+0x4e>

000056da <__floatsidf>:
__floatsidf():
    56da:	1141                	addi	sp,sp,-16
    56dc:	c606                	sw	ra,12(sp)
    56de:	c422                	sw	s0,8(sp)
    56e0:	c226                	sw	s1,4(sp)
    56e2:	cd0d                	beqz	a0,571c <__floatsidf+0x42>
    56e4:	41f55793          	srai	a5,a0,0x1f
    56e8:	00a7c4b3          	xor	s1,a5,a0
    56ec:	8c9d                	sub	s1,s1,a5
    56ee:	842a                	mv	s0,a0
    56f0:	8526                	mv	a0,s1
    56f2:	631000ef          	jal	ra,6522 <__clzsi2>
    56f6:	41e00693          	li	a3,1054
    56fa:	8e89                	sub	a3,a3,a0
    56fc:	47a9                	li	a5,10
    56fe:	807d                	srli	s0,s0,0x1f
    5700:	7ff6f693          	andi	a3,a3,2047
    5704:	02a7cd63          	blt	a5,a0,573e <__floatsidf+0x64>
    5708:	472d                	li	a4,11
    570a:	8f09                	sub	a4,a4,a0
    570c:	00e4d7b3          	srl	a5,s1,a4
    5710:	0555                	addi	a0,a0,21
    5712:	07b2                	slli	a5,a5,0xc
    5714:	00a494b3          	sll	s1,s1,a0
    5718:	83b1                	srli	a5,a5,0xc
    571a:	a029                	j	5724 <__floatsidf+0x4a>
    571c:	4401                	li	s0,0
    571e:	4681                	li	a3,0
    5720:	4781                	li	a5,0
    5722:	4481                	li	s1,0
    5724:	07b2                	slli	a5,a5,0xc
    5726:	06d2                	slli	a3,a3,0x14
    5728:	83b1                	srli	a5,a5,0xc
    572a:	047e                	slli	s0,s0,0x1f
    572c:	8fd5                	or	a5,a5,a3
    572e:	8fc1                	or	a5,a5,s0
    5730:	40b2                	lw	ra,12(sp)
    5732:	4422                	lw	s0,8(sp)
    5734:	8526                	mv	a0,s1
    5736:	85be                	mv	a1,a5
    5738:	4492                	lw	s1,4(sp)
    573a:	0141                	addi	sp,sp,16
    573c:	8082                	ret
    573e:	1555                	addi	a0,a0,-11
    5740:	00a497b3          	sll	a5,s1,a0
    5744:	07b2                	slli	a5,a5,0xc
    5746:	83b1                	srli	a5,a5,0xc
    5748:	4481                	li	s1,0
    574a:	bfe9                	j	5724 <__floatsidf+0x4a>

0000574c <__addsf3>:
__addsf3():
    574c:	1141                	addi	sp,sp,-16
    574e:	00800737          	lui	a4,0x800
    5752:	177d                	addi	a4,a4,-1
    5754:	0175d813          	srli	a6,a1,0x17
    5758:	c226                	sw	s1,4(sp)
    575a:	01755493          	srli	s1,a0,0x17
    575e:	00a77333          	and	t1,a4,a0
    5762:	0ff4f493          	andi	s1,s1,255
    5766:	00b776b3          	and	a3,a4,a1
    576a:	c04a                	sw	s2,0(sp)
    576c:	0ff87813          	andi	a6,a6,255
    5770:	01f55913          	srli	s2,a0,0x1f
    5774:	c606                	sw	ra,12(sp)
    5776:	c422                	sw	s0,8(sp)
    5778:	81fd                	srli	a1,a1,0x1f
    577a:	879a                	mv	a5,t1
    577c:	8526                	mv	a0,s1
    577e:	864a                	mv	a2,s2
    5780:	00331e13          	slli	t3,t1,0x3
    5784:	00369e93          	slli	t4,a3,0x3
    5788:	410488b3          	sub	a7,s1,a6
    578c:	0eb90a63          	beq	s2,a1,5880 <__addsf3+0x134>
    5790:	0d105063          	blez	a7,5850 <__addsf3+0x104>
    5794:	14080463          	beqz	a6,58dc <__addsf3+0x190>
    5798:	0ff00793          	li	a5,255
    579c:	14f48b63          	beq	s1,a5,58f2 <__addsf3+0x1a6>
    57a0:	040007b7          	lui	a5,0x4000
    57a4:	00feeeb3          	or	t4,t4,a5
    57a8:	47ed                	li	a5,27
    57aa:	2917c163          	blt	a5,a7,5a2c <__addsf3+0x2e0>
    57ae:	02000793          	li	a5,32
    57b2:	411787b3          	sub	a5,a5,a7
    57b6:	00fe97b3          	sll	a5,t4,a5
    57ba:	011ed8b3          	srl	a7,t4,a7
    57be:	00f037b3          	snez	a5,a5
    57c2:	00f8e7b3          	or	a5,a7,a5
    57c6:	40fe07b3          	sub	a5,t3,a5
    57ca:	00579713          	slli	a4,a5,0x5
    57ce:	18075e63          	bgez	a4,596a <__addsf3+0x21e>
    57d2:	04000437          	lui	s0,0x4000
    57d6:	147d                	addi	s0,s0,-1
    57d8:	8c7d                	and	s0,s0,a5
    57da:	8522                	mv	a0,s0
    57dc:	547000ef          	jal	ra,6522 <__clzsi2>
    57e0:	156d                	addi	a0,a0,-5
    57e2:	00a417b3          	sll	a5,s0,a0
    57e6:	1a954863          	blt	a0,s1,5996 <__addsf3+0x24a>
    57ea:	8d05                	sub	a0,a0,s1
    57ec:	00150413          	addi	s0,a0,1 # 80000001 <_eusrstack+0x5fff9801>
    57f0:	02000713          	li	a4,32
    57f4:	8f01                	sub	a4,a4,s0
    57f6:	00e79733          	sll	a4,a5,a4
    57fa:	00e03733          	snez	a4,a4
    57fe:	0087d7b3          	srl	a5,a5,s0
    5802:	8fd9                	or	a5,a5,a4
    5804:	4481                	li	s1,0
    5806:	0077f713          	andi	a4,a5,7
    580a:	c719                	beqz	a4,5818 <__addsf3+0xcc>
    580c:	00f7f713          	andi	a4,a5,15
    5810:	4691                	li	a3,4
    5812:	00d70363          	beq	a4,a3,5818 <__addsf3+0xcc>
    5816:	0791                	addi	a5,a5,4
    5818:	00579713          	slli	a4,a5,0x5
    581c:	14075b63          	bgez	a4,5972 <__addsf3+0x226>
    5820:	0485                	addi	s1,s1,1
    5822:	0ff00713          	li	a4,255
    5826:	864a                	mv	a2,s2
    5828:	16e48363          	beq	s1,a4,598e <__addsf3+0x242>
    582c:	079a                	slli	a5,a5,0x6
    582e:	83a5                	srli	a5,a5,0x9
    5830:	0ff4f513          	andi	a0,s1,255
    5834:	40b2                	lw	ra,12(sp)
    5836:	4422                	lw	s0,8(sp)
    5838:	07a6                	slli	a5,a5,0x9
    583a:	01751493          	slli	s1,a0,0x17
    583e:	0097d513          	srli	a0,a5,0x9
    5842:	8d45                	or	a0,a0,s1
    5844:	067e                	slli	a2,a2,0x1f
    5846:	4492                	lw	s1,4(sp)
    5848:	4902                	lw	s2,0(sp)
    584a:	8d51                	or	a0,a0,a2
    584c:	0141                	addi	sp,sp,16
    584e:	8082                	ret
    5850:	0a089963          	bnez	a7,5902 <__addsf3+0x1b6>
    5854:	00148713          	addi	a4,s1,1
    5858:	0fe77713          	andi	a4,a4,254
    585c:	14071763          	bnez	a4,59aa <__addsf3+0x25e>
    5860:	22049063          	bnez	s1,5a80 <__addsf3+0x334>
    5864:	1e0e0d63          	beqz	t3,5a5e <__addsf3+0x312>
    5868:	fc0e86e3          	beqz	t4,5834 <__addsf3+0xe8>
    586c:	41de07b3          	sub	a5,t3,t4
    5870:	00579713          	slli	a4,a5,0x5
    5874:	22075063          	bgez	a4,5a94 <__addsf3+0x348>
    5878:	41ce87b3          	sub	a5,t4,t3
    587c:	892e                	mv	s2,a1
    587e:	b761                	j	5806 <__addsf3+0xba>
    5880:	0b105c63          	blez	a7,5938 <__addsf3+0x1ec>
    5884:	08080e63          	beqz	a6,5920 <__addsf3+0x1d4>
    5888:	0ff00793          	li	a5,255
    588c:	06f48363          	beq	s1,a5,58f2 <__addsf3+0x1a6>
    5890:	040007b7          	lui	a5,0x4000
    5894:	00feeeb3          	or	t4,t4,a5
    5898:	47ed                	li	a5,27
    589a:	1f17c963          	blt	a5,a7,5a8c <__addsf3+0x340>
    589e:	02000793          	li	a5,32
    58a2:	411787b3          	sub	a5,a5,a7
    58a6:	00fe97b3          	sll	a5,t4,a5
    58aa:	011ed8b3          	srl	a7,t4,a7
    58ae:	00f037b3          	snez	a5,a5
    58b2:	00f8e7b3          	or	a5,a7,a5
    58b6:	97f2                	add	a5,a5,t3
    58b8:	00579713          	slli	a4,a5,0x5
    58bc:	0a075763          	bgez	a4,596a <__addsf3+0x21e>
    58c0:	0485                	addi	s1,s1,1
    58c2:	0ff00713          	li	a4,255
    58c6:	0ce48463          	beq	s1,a4,598e <__addsf3+0x242>
    58ca:	7e0006b7          	lui	a3,0x7e000
    58ce:	0017d713          	srli	a4,a5,0x1
    58d2:	16fd                	addi	a3,a3,-1
    58d4:	8b85                	andi	a5,a5,1
    58d6:	8f75                	and	a4,a4,a3
    58d8:	8fd9                	or	a5,a5,a4
    58da:	b735                	j	5806 <__addsf3+0xba>
    58dc:	080e8d63          	beqz	t4,5976 <__addsf3+0x22a>
    58e0:	18fd                	addi	a7,a7,-1
    58e2:	41de07b3          	sub	a5,t3,t4
    58e6:	ee0882e3          	beqz	a7,57ca <__addsf3+0x7e>
    58ea:	0ff00793          	li	a5,255
    58ee:	eaf49de3          	bne	s1,a5,57a8 <__addsf3+0x5c>
    58f2:	08030d63          	beqz	t1,598c <__addsf3+0x240>
    58f6:	4601                	li	a2,0
    58f8:	0ff00513          	li	a0,255
    58fc:	004007b7          	lui	a5,0x400
    5900:	bf15                	j	5834 <__addsf3+0xe8>
    5902:	40980733          	sub	a4,a6,s1
    5906:	e8ed                	bnez	s1,59f8 <__addsf3+0x2ac>
    5908:	140e0263          	beqz	t3,5a4c <__addsf3+0x300>
    590c:	177d                	addi	a4,a4,-1
    590e:	18070863          	beqz	a4,5a9e <__addsf3+0x352>
    5912:	0ff00793          	li	a5,255
    5916:	0ef81963          	bne	a6,a5,5a08 <__addsf3+0x2bc>
    591a:	892e                	mv	s2,a1
    591c:	8336                	mv	t1,a3
    591e:	bfd1                	j	58f2 <__addsf3+0x1a6>
    5920:	040e8b63          	beqz	t4,5976 <__addsf3+0x22a>
    5924:	18fd                	addi	a7,a7,-1
    5926:	01de07b3          	add	a5,t3,t4
    592a:	f80887e3          	beqz	a7,58b8 <__addsf3+0x16c>
    592e:	0ff00793          	li	a5,255
    5932:	f6f493e3          	bne	s1,a5,5898 <__addsf3+0x14c>
    5936:	bf75                	j	58f2 <__addsf3+0x1a6>
    5938:	08089563          	bnez	a7,59c2 <__addsf3+0x276>
    593c:	0485                	addi	s1,s1,1
    593e:	0fe4f713          	andi	a4,s1,254
    5942:	12071363          	bnez	a4,5a68 <__addsf3+0x31c>
    5946:	10051763          	bnez	a0,5a54 <__addsf3+0x308>
    594a:	140e0f63          	beqz	t3,5aa8 <__addsf3+0x35c>
    594e:	ee0e83e3          	beqz	t4,5834 <__addsf3+0xe8>
    5952:	01de07b3          	add	a5,t3,t4
    5956:	00579713          	slli	a4,a5,0x5
    595a:	4481                	li	s1,0
    595c:	00075763          	bgez	a4,596a <__addsf3+0x21e>
    5960:	fc000737          	lui	a4,0xfc000
    5964:	177d                	addi	a4,a4,-1
    5966:	8ff9                	and	a5,a5,a4
    5968:	4485                	li	s1,1
    596a:	0077f713          	andi	a4,a5,7
    596e:	e8071fe3          	bnez	a4,580c <__addsf3+0xc0>
    5972:	0037d313          	srli	t1,a5,0x3
    5976:	0ff00793          	li	a5,255
    597a:	f6f48ce3          	beq	s1,a5,58f2 <__addsf3+0x1a6>
    597e:	00931793          	slli	a5,t1,0x9
    5982:	83a5                	srli	a5,a5,0x9
    5984:	0ff4f513          	andi	a0,s1,255
    5988:	864a                	mv	a2,s2
    598a:	b56d                	j	5834 <__addsf3+0xe8>
    598c:	864a                	mv	a2,s2
    598e:	0ff00513          	li	a0,255
    5992:	4781                	li	a5,0
    5994:	b545                	j	5834 <__addsf3+0xe8>
    5996:	fc000737          	lui	a4,0xfc000
    599a:	177d                	addi	a4,a4,-1
    599c:	8ff9                	and	a5,a5,a4
    599e:	0077f713          	andi	a4,a5,7
    59a2:	8c89                	sub	s1,s1,a0
    59a4:	e60714e3          	bnez	a4,580c <__addsf3+0xc0>
    59a8:	b7e9                	j	5972 <__addsf3+0x226>
    59aa:	41de0433          	sub	s0,t3,t4
    59ae:	00541793          	slli	a5,s0,0x5
    59b2:	0c07c363          	bltz	a5,5a78 <__addsf3+0x32c>
    59b6:	e20412e3          	bnez	s0,57da <__addsf3+0x8e>
    59ba:	4601                	li	a2,0
    59bc:	4501                	li	a0,0
    59be:	4781                	li	a5,0
    59c0:	bd95                	j	5834 <__addsf3+0xe8>
    59c2:	40980733          	sub	a4,a6,s1
    59c6:	c4ad                	beqz	s1,5a30 <__addsf3+0x2e4>
    59c8:	0ff00793          	li	a5,255
    59cc:	f4f808e3          	beq	a6,a5,591c <__addsf3+0x1d0>
    59d0:	040007b7          	lui	a5,0x4000
    59d4:	00fe6e33          	or	t3,t3,a5
    59d8:	47ed                	li	a5,27
    59da:	0ce7cc63          	blt	a5,a4,5ab2 <__addsf3+0x366>
    59de:	02000793          	li	a5,32
    59e2:	8f99                	sub	a5,a5,a4
    59e4:	00fe17b3          	sll	a5,t3,a5
    59e8:	00ee5733          	srl	a4,t3,a4
    59ec:	00f037b3          	snez	a5,a5
    59f0:	8fd9                	or	a5,a5,a4
    59f2:	97f6                	add	a5,a5,t4
    59f4:	84c2                	mv	s1,a6
    59f6:	b5c9                	j	58b8 <__addsf3+0x16c>
    59f8:	0ff00793          	li	a5,255
    59fc:	f0f80fe3          	beq	a6,a5,591a <__addsf3+0x1ce>
    5a00:	040007b7          	lui	a5,0x4000
    5a04:	00fe6e33          	or	t3,t3,a5
    5a08:	47ed                	li	a5,27
    5a0a:	08e7c363          	blt	a5,a4,5a90 <__addsf3+0x344>
    5a0e:	02000693          	li	a3,32
    5a12:	8e99                	sub	a3,a3,a4
    5a14:	00de16b3          	sll	a3,t3,a3
    5a18:	00ee57b3          	srl	a5,t3,a4
    5a1c:	00d03733          	snez	a4,a3
    5a20:	8fd9                	or	a5,a5,a4
    5a22:	40fe87b3          	sub	a5,t4,a5
    5a26:	84c2                	mv	s1,a6
    5a28:	892e                	mv	s2,a1
    5a2a:	b345                	j	57ca <__addsf3+0x7e>
    5a2c:	4785                	li	a5,1
    5a2e:	bb61                	j	57c6 <__addsf3+0x7a>
    5a30:	060e0e63          	beqz	t3,5aac <__addsf3+0x360>
    5a34:	177d                	addi	a4,a4,-1
    5a36:	01de07b3          	add	a5,t3,t4
    5a3a:	84c2                	mv	s1,a6
    5a3c:	e6070ee3          	beqz	a4,58b8 <__addsf3+0x16c>
    5a40:	0ff00793          	li	a5,255
    5a44:	f8f81ae3          	bne	a6,a5,59d8 <__addsf3+0x28c>
    5a48:	8336                	mv	t1,a3
    5a4a:	b565                	j	58f2 <__addsf3+0x1a6>
    5a4c:	8336                	mv	t1,a3
    5a4e:	84c2                	mv	s1,a6
    5a50:	892e                	mv	s2,a1
    5a52:	b715                	j	5976 <__addsf3+0x22a>
    5a54:	ec0e04e3          	beqz	t3,591c <__addsf3+0x1d0>
    5a58:	e80e8de3          	beqz	t4,58f2 <__addsf3+0x1a6>
    5a5c:	bd69                	j	58f6 <__addsf3+0x1aa>
    5a5e:	020e8d63          	beqz	t4,5a98 <__addsf3+0x34c>
    5a62:	862e                	mv	a2,a1
    5a64:	87b6                	mv	a5,a3
    5a66:	b3f9                	j	5834 <__addsf3+0xe8>
    5a68:	0ff00793          	li	a5,255
    5a6c:	f2f481e3          	beq	s1,a5,598e <__addsf3+0x242>
    5a70:	01de07b3          	add	a5,t3,t4
    5a74:	8385                	srli	a5,a5,0x1
    5a76:	bdd5                	j	596a <__addsf3+0x21e>
    5a78:	41ce8433          	sub	s0,t4,t3
    5a7c:	892e                	mv	s2,a1
    5a7e:	bbb1                	j	57da <__addsf3+0x8e>
    5a80:	fc0e1ce3          	bnez	t3,5a58 <__addsf3+0x30c>
    5a84:	e60e89e3          	beqz	t4,58f6 <__addsf3+0x1aa>
    5a88:	892e                	mv	s2,a1
    5a8a:	bd49                	j	591c <__addsf3+0x1d0>
    5a8c:	4785                	li	a5,1
    5a8e:	b525                	j	58b6 <__addsf3+0x16a>
    5a90:	4785                	li	a5,1
    5a92:	bf41                	j	5a22 <__addsf3+0x2d6>
    5a94:	ec079be3          	bnez	a5,596a <__addsf3+0x21e>
    5a98:	4601                	li	a2,0
    5a9a:	4781                	li	a5,0
    5a9c:	bb61                	j	5834 <__addsf3+0xe8>
    5a9e:	41ce87b3          	sub	a5,t4,t3
    5aa2:	84c2                	mv	s1,a6
    5aa4:	892e                	mv	s2,a1
    5aa6:	b315                	j	57ca <__addsf3+0x7e>
    5aa8:	87b6                	mv	a5,a3
    5aaa:	b369                	j	5834 <__addsf3+0xe8>
    5aac:	8336                	mv	t1,a3
    5aae:	84c2                	mv	s1,a6
    5ab0:	b5d9                	j	5976 <__addsf3+0x22a>
    5ab2:	4785                	li	a5,1
    5ab4:	bf3d                	j	59f2 <__addsf3+0x2a6>

00005ab6 <__gesf2>:
__gtsf2():
    5ab6:	01755693          	srli	a3,a0,0x17
    5aba:	008007b7          	lui	a5,0x800
    5abe:	17fd                	addi	a5,a5,-1
    5ac0:	0175d613          	srli	a2,a1,0x17
    5ac4:	0ff6f693          	andi	a3,a3,255
    5ac8:	0ff00813          	li	a6,255
    5acc:	00a7f8b3          	and	a7,a5,a0
    5ad0:	01f55713          	srli	a4,a0,0x1f
    5ad4:	8fed                	and	a5,a5,a1
    5ad6:	0ff67613          	andi	a2,a2,255
    5ada:	81fd                	srli	a1,a1,0x1f
    5adc:	03068163          	beq	a3,a6,5afe <__gesf2+0x48>
    5ae0:	01060c63          	beq	a2,a6,5af8 <__gesf2+0x42>
    5ae4:	e28d                	bnez	a3,5b06 <__gesf2+0x50>
    5ae6:	e211                	bnez	a2,5aea <__gesf2+0x34>
    5ae8:	c3b1                	beqz	a5,5b2c <__gesf2+0x76>
    5aea:	02088e63          	beqz	a7,5b26 <__gesf2+0x70>
    5aee:	04b70563          	beq	a4,a1,5b38 <__gesf2+0x82>
    5af2:	4505                	li	a0,1
    5af4:	e71d                	bnez	a4,5b22 <__gesf2+0x6c>
    5af6:	8082                	ret
    5af8:	d7f5                	beqz	a5,5ae4 <__gesf2+0x2e>
    5afa:	5579                	li	a0,-2
    5afc:	8082                	ret
    5afe:	fe089ee3          	bnez	a7,5afa <__gesf2+0x44>
    5b02:	02d60963          	beq	a2,a3,5b34 <__gesf2+0x7e>
    5b06:	e211                	bnez	a2,5b0a <__gesf2+0x54>
    5b08:	d7ed                	beqz	a5,5af2 <__gesf2+0x3c>
    5b0a:	feb714e3          	bne	a4,a1,5af2 <__gesf2+0x3c>
    5b0e:	fed642e3          	blt	a2,a3,5af2 <__gesf2+0x3c>
    5b12:	00c6c763          	blt	a3,a2,5b20 <__gesf2+0x6a>
    5b16:	fd17eee3          	bltu	a5,a7,5af2 <__gesf2+0x3c>
    5b1a:	4501                	li	a0,0
    5b1c:	fcf8fde3          	bgeu	a7,a5,5af6 <__gesf2+0x40>
    5b20:	e701                	bnez	a4,5b28 <__gesf2+0x72>
    5b22:	557d                	li	a0,-1
    5b24:	8082                	ret
    5b26:	ddf5                	beqz	a1,5b22 <__gesf2+0x6c>
    5b28:	4505                	li	a0,1
    5b2a:	8082                	ret
    5b2c:	4501                	li	a0,0
    5b2e:	fc0892e3          	bnez	a7,5af2 <__gesf2+0x3c>
    5b32:	8082                	ret
    5b34:	dbf9                	beqz	a5,5b0a <__gesf2+0x54>
    5b36:	b7d1                	j	5afa <__gesf2+0x44>
    5b38:	4681                	li	a3,0
    5b3a:	bfe1                	j	5b12 <__gesf2+0x5c>

00005b3c <__lesf2>:
__lesf2():
    5b3c:	01755693          	srli	a3,a0,0x17
    5b40:	008007b7          	lui	a5,0x800
    5b44:	17fd                	addi	a5,a5,-1
    5b46:	0175d613          	srli	a2,a1,0x17
    5b4a:	0ff6f693          	andi	a3,a3,255
    5b4e:	0ff00813          	li	a6,255
    5b52:	00a7f8b3          	and	a7,a5,a0
    5b56:	01f55713          	srli	a4,a0,0x1f
    5b5a:	8fed                	and	a5,a5,a1
    5b5c:	0ff67613          	andi	a2,a2,255
    5b60:	81fd                	srli	a1,a1,0x1f
    5b62:	03068763          	beq	a3,a6,5b90 <__lesf2+0x54>
    5b66:	01060963          	beq	a2,a6,5b78 <__lesf2+0x3c>
    5b6a:	ea85                	bnez	a3,5b9a <__lesf2+0x5e>
    5b6c:	ea11                	bnez	a2,5b80 <__lesf2+0x44>
    5b6e:	eb89                	bnez	a5,5b80 <__lesf2+0x44>
    5b70:	4501                	li	a0,0
    5b72:	00089b63          	bnez	a7,5b88 <__lesf2+0x4c>
    5b76:	8082                	ret
    5b78:	4509                	li	a0,2
    5b7a:	fff5                	bnez	a5,5b76 <__lesf2+0x3a>
    5b7c:	dae5                	beqz	a3,5b6c <__lesf2+0x30>
    5b7e:	a831                	j	5b9a <__lesf2+0x5e>
    5b80:	02088c63          	beqz	a7,5bb8 <__lesf2+0x7c>
    5b84:	04b70063          	beq	a4,a1,5bc4 <__lesf2+0x88>
    5b88:	4505                	li	a0,1
    5b8a:	d775                	beqz	a4,5b76 <__lesf2+0x3a>
    5b8c:	557d                	li	a0,-1
    5b8e:	8082                	ret
    5b90:	4509                	li	a0,2
    5b92:	02089863          	bnez	a7,5bc2 <__lesf2+0x86>
    5b96:	02d60463          	beq	a2,a3,5bbe <__lesf2+0x82>
    5b9a:	e211                	bnez	a2,5b9e <__lesf2+0x62>
    5b9c:	d7f5                	beqz	a5,5b88 <__lesf2+0x4c>
    5b9e:	feb715e3          	bne	a4,a1,5b88 <__lesf2+0x4c>
    5ba2:	fed643e3          	blt	a2,a3,5b88 <__lesf2+0x4c>
    5ba6:	00c6c763          	blt	a3,a2,5bb4 <__lesf2+0x78>
    5baa:	fd17efe3          	bltu	a5,a7,5b88 <__lesf2+0x4c>
    5bae:	4501                	li	a0,0
    5bb0:	fcf8f3e3          	bgeu	a7,a5,5b76 <__lesf2+0x3a>
    5bb4:	e319                	bnez	a4,5bba <__lesf2+0x7e>
    5bb6:	bfd9                	j	5b8c <__lesf2+0x50>
    5bb8:	d9f1                	beqz	a1,5b8c <__lesf2+0x50>
    5bba:	4505                	li	a0,1
    5bbc:	8082                	ret
    5bbe:	d3e5                	beqz	a5,5b9e <__lesf2+0x62>
    5bc0:	8082                	ret
    5bc2:	8082                	ret
    5bc4:	4681                	li	a3,0
    5bc6:	b7c5                	j	5ba6 <__lesf2+0x6a>

00005bc8 <__mulsf3>:
__mulsf3():
    5bc8:	7179                	addi	sp,sp,-48
    5bca:	d422                	sw	s0,40(sp)
    5bcc:	01755413          	srli	s0,a0,0x17
    5bd0:	ce4e                	sw	s3,28(sp)
    5bd2:	cc52                	sw	s4,24(sp)
    5bd4:	00951993          	slli	s3,a0,0x9
    5bd8:	d606                	sw	ra,44(sp)
    5bda:	d226                	sw	s1,36(sp)
    5bdc:	d04a                	sw	s2,32(sp)
    5bde:	ca56                	sw	s5,20(sp)
    5be0:	c85a                	sw	s6,16(sp)
    5be2:	0ff47413          	andi	s0,s0,255
    5be6:	0099d993          	srli	s3,s3,0x9
    5bea:	01f55a13          	srli	s4,a0,0x1f
    5bee:	c469                	beqz	s0,5cb8 <__mulsf3+0xf0>
    5bf0:	0ff00793          	li	a5,255
    5bf4:	0ef40863          	beq	s0,a5,5ce4 <__mulsf3+0x11c>
    5bf8:	00399793          	slli	a5,s3,0x3
    5bfc:	04000737          	lui	a4,0x4000
    5c00:	00e7e9b3          	or	s3,a5,a4
    5c04:	f8140413          	addi	s0,s0,-127 # 3ffff81 <_data_lma+0x3ff9189>
    5c08:	4481                	li	s1,0
    5c0a:	4b01                	li	s6,0
    5c0c:	0175d713          	srli	a4,a1,0x17
    5c10:	00959a93          	slli	s5,a1,0x9
    5c14:	0ff77713          	andi	a4,a4,255
    5c18:	009ada93          	srli	s5,s5,0x9
    5c1c:	01f5d913          	srli	s2,a1,0x1f
    5c20:	cf45                	beqz	a4,5cd8 <__mulsf3+0x110>
    5c22:	0ff00793          	li	a5,255
    5c26:	02f70c63          	beq	a4,a5,5c5e <__mulsf3+0x96>
    5c2a:	0a8e                	slli	s5,s5,0x3
    5c2c:	f8170713          	addi	a4,a4,-127 # 3ffff81 <_data_lma+0x3ff9189>
    5c30:	040007b7          	lui	a5,0x4000
    5c34:	00faeab3          	or	s5,s5,a5
    5c38:	943a                	add	s0,s0,a4
    5c3a:	4601                	li	a2,0
    5c3c:	012a4533          	xor	a0,s4,s2
    5c40:	47bd                	li	a5,15
    5c42:	86aa                	mv	a3,a0
    5c44:	00140593          	addi	a1,s0,1
    5c48:	1097e263          	bltu	a5,s1,5d4c <__mulsf3+0x184>
    5c4c:	00001717          	auipc	a4,0x1
    5c50:	06c70713          	addi	a4,a4,108 # 6cb8 <init_jk+0xe0>
    5c54:	048a                	slli	s1,s1,0x2
    5c56:	94ba                	add	s1,s1,a4
    5c58:	409c                	lw	a5,0(s1)
    5c5a:	97ba                	add	a5,a5,a4
    5c5c:	8782                	jr	a5
    5c5e:	0ff40413          	addi	s0,s0,255
    5c62:	0c0a9863          	bnez	s5,5d32 <__mulsf3+0x16a>
    5c66:	0024e493          	ori	s1,s1,2
    5c6a:	4609                	li	a2,2
    5c6c:	bfc1                	j	5c3c <__mulsf3+0x74>
    5c6e:	4501                	li	a0,0
    5c70:	0ff00713          	li	a4,255
    5c74:	004007b7          	lui	a5,0x400
    5c78:	50b2                	lw	ra,44(sp)
    5c7a:	5422                	lw	s0,40(sp)
    5c7c:	07a6                	slli	a5,a5,0x9
    5c7e:	075e                	slli	a4,a4,0x17
    5c80:	83a5                	srli	a5,a5,0x9
    5c82:	057e                	slli	a0,a0,0x1f
    5c84:	8fd9                	or	a5,a5,a4
    5c86:	5492                	lw	s1,36(sp)
    5c88:	5902                	lw	s2,32(sp)
    5c8a:	49f2                	lw	s3,28(sp)
    5c8c:	4a62                	lw	s4,24(sp)
    5c8e:	4ad2                	lw	s5,20(sp)
    5c90:	4b42                	lw	s6,16(sp)
    5c92:	8d5d                	or	a0,a0,a5
    5c94:	6145                	addi	sp,sp,48
    5c96:	8082                	ret
    5c98:	86ca                	mv	a3,s2
    5c9a:	89d6                	mv	s3,s5
    5c9c:	8b32                	mv	s6,a2
    5c9e:	4789                	li	a5,2
    5ca0:	0afb0163          	beq	s6,a5,5d42 <__mulsf3+0x17a>
    5ca4:	478d                	li	a5,3
    5ca6:	fcfb04e3          	beq	s6,a5,5c6e <__mulsf3+0xa6>
    5caa:	4785                	li	a5,1
    5cac:	8536                	mv	a0,a3
    5cae:	1afb1263          	bne	s6,a5,5e52 <__mulsf3+0x28a>
    5cb2:	4701                	li	a4,0
    5cb4:	4781                	li	a5,0
    5cb6:	b7c9                	j	5c78 <__mulsf3+0xb0>
    5cb8:	04099e63          	bnez	s3,5d14 <__mulsf3+0x14c>
    5cbc:	0175d713          	srli	a4,a1,0x17
    5cc0:	00959a93          	slli	s5,a1,0x9
    5cc4:	0ff77713          	andi	a4,a4,255
    5cc8:	4491                	li	s1,4
    5cca:	4401                	li	s0,0
    5ccc:	4b05                	li	s6,1
    5cce:	009ada93          	srli	s5,s5,0x9
    5cd2:	01f5d913          	srli	s2,a1,0x1f
    5cd6:	f731                	bnez	a4,5c22 <__mulsf3+0x5a>
    5cd8:	000a9d63          	bnez	s5,5cf2 <__mulsf3+0x12a>
    5cdc:	0014e493          	ori	s1,s1,1
    5ce0:	4605                	li	a2,1
    5ce2:	bfa9                	j	5c3c <__mulsf3+0x74>
    5ce4:	02099363          	bnez	s3,5d0a <__mulsf3+0x142>
    5ce8:	44a1                	li	s1,8
    5cea:	0ff00413          	li	s0,255
    5cee:	4b09                	li	s6,2
    5cf0:	bf31                	j	5c0c <__mulsf3+0x44>
    5cf2:	8556                	mv	a0,s5
    5cf4:	02f000ef          	jal	ra,6522 <__clzsi2>
    5cf8:	ffb50793          	addi	a5,a0,-5
    5cfc:	8c09                	sub	s0,s0,a0
    5cfe:	00fa9ab3          	sll	s5,s5,a5
    5d02:	f8a40413          	addi	s0,s0,-118
    5d06:	4601                	li	a2,0
    5d08:	bf15                	j	5c3c <__mulsf3+0x74>
    5d0a:	44b1                	li	s1,12
    5d0c:	0ff00413          	li	s0,255
    5d10:	4b0d                	li	s6,3
    5d12:	bded                	j	5c0c <__mulsf3+0x44>
    5d14:	854e                	mv	a0,s3
    5d16:	c62e                	sw	a1,12(sp)
    5d18:	00b000ef          	jal	ra,6522 <__clzsi2>
    5d1c:	ffb50793          	addi	a5,a0,-5
    5d20:	f8a00413          	li	s0,-118
    5d24:	00f999b3          	sll	s3,s3,a5
    5d28:	8c09                	sub	s0,s0,a0
    5d2a:	4481                	li	s1,0
    5d2c:	4b01                	li	s6,0
    5d2e:	45b2                	lw	a1,12(sp)
    5d30:	bdf1                	j	5c0c <__mulsf3+0x44>
    5d32:	0034e493          	ori	s1,s1,3
    5d36:	460d                	li	a2,3
    5d38:	b711                	j	5c3c <__mulsf3+0x74>
    5d3a:	4789                	li	a5,2
    5d3c:	86d2                	mv	a3,s4
    5d3e:	f6fb13e3          	bne	s6,a5,5ca4 <__mulsf3+0xdc>
    5d42:	8536                	mv	a0,a3
    5d44:	0ff00713          	li	a4,255
    5d48:	4781                	li	a5,0
    5d4a:	b73d                	j	5c78 <__mulsf3+0xb0>
    5d4c:	6341                	lui	t1,0x10
    5d4e:	fff30693          	addi	a3,t1,-1 # ffff <_data_lma+0x9207>
    5d52:	0109d613          	srli	a2,s3,0x10
    5d56:	010ad893          	srli	a7,s5,0x10
    5d5a:	00d9f7b3          	and	a5,s3,a3
    5d5e:	00dafab3          	and	s5,s5,a3
    5d62:	03578833          	mul	a6,a5,s5
    5d66:	02f889b3          	mul	s3,a7,a5
    5d6a:	01085713          	srli	a4,a6,0x10
    5d6e:	03560ab3          	mul	s5,a2,s5
    5d72:	99d6                	add	s3,s3,s5
    5d74:	974e                	add	a4,a4,s3
    5d76:	03160633          	mul	a2,a2,a7
    5d7a:	01577363          	bgeu	a4,s5,5d80 <__mulsf3+0x1b8>
    5d7e:	961a                	add	a2,a2,t1
    5d80:	67c1                	lui	a5,0x10
    5d82:	17fd                	addi	a5,a5,-1
    5d84:	00f776b3          	and	a3,a4,a5
    5d88:	00f87833          	and	a6,a6,a5
    5d8c:	06c2                	slli	a3,a3,0x10
    5d8e:	96c2                	add	a3,a3,a6
    5d90:	00669993          	slli	s3,a3,0x6
    5d94:	01075793          	srli	a5,a4,0x10
    5d98:	013039b3          	snez	s3,s3
    5d9c:	82e9                	srli	a3,a3,0x1a
    5d9e:	97b2                	add	a5,a5,a2
    5da0:	079a                	slli	a5,a5,0x6
    5da2:	00d9e6b3          	or	a3,s3,a3
    5da6:	00d7e9b3          	or	s3,a5,a3
    5daa:	00499793          	slli	a5,s3,0x4
    5dae:	0007d963          	bgez	a5,5dc0 <__mulsf3+0x1f8>
    5db2:	0019d713          	srli	a4,s3,0x1
    5db6:	0019f793          	andi	a5,s3,1
    5dba:	00f769b3          	or	s3,a4,a5
    5dbe:	842e                	mv	s0,a1
    5dc0:	07f40713          	addi	a4,s0,127
    5dc4:	04e05063          	blez	a4,5e04 <__mulsf3+0x23c>
    5dc8:	0079f793          	andi	a5,s3,7
    5dcc:	c799                	beqz	a5,5dda <__mulsf3+0x212>
    5dce:	00f9f793          	andi	a5,s3,15
    5dd2:	4691                	li	a3,4
    5dd4:	00d78363          	beq	a5,a3,5dda <__mulsf3+0x212>
    5dd8:	0991                	addi	s3,s3,4
    5dda:	00499793          	slli	a5,s3,0x4
    5dde:	0007d963          	bgez	a5,5df0 <__mulsf3+0x228>
    5de2:	f80007b7          	lui	a5,0xf8000
    5de6:	17fd                	addi	a5,a5,-1
    5de8:	00f9f9b3          	and	s3,s3,a5
    5dec:	08040713          	addi	a4,s0,128
    5df0:	0fe00793          	li	a5,254
    5df4:	04e7cb63          	blt	a5,a4,5e4a <__mulsf3+0x282>
    5df8:	00699793          	slli	a5,s3,0x6
    5dfc:	83a5                	srli	a5,a5,0x9
    5dfe:	0ff77713          	andi	a4,a4,255
    5e02:	bd9d                	j	5c78 <__mulsf3+0xb0>
    5e04:	4785                	li	a5,1
    5e06:	40e786b3          	sub	a3,a5,a4
    5e0a:	c711                	beqz	a4,5e16 <__mulsf3+0x24e>
    5e0c:	466d                	li	a2,27
    5e0e:	4701                	li	a4,0
    5e10:	4781                	li	a5,0
    5e12:	e6d643e3          	blt	a2,a3,5c78 <__mulsf3+0xb0>
    5e16:	09e40713          	addi	a4,s0,158
    5e1a:	00e99733          	sll	a4,s3,a4
    5e1e:	00e03733          	snez	a4,a4
    5e22:	00d9d7b3          	srl	a5,s3,a3
    5e26:	8fd9                	or	a5,a5,a4
    5e28:	0077f713          	andi	a4,a5,7
    5e2c:	c719                	beqz	a4,5e3a <__mulsf3+0x272>
    5e2e:	00f7f713          	andi	a4,a5,15
    5e32:	4691                	li	a3,4
    5e34:	00d70363          	beq	a4,a3,5e3a <__mulsf3+0x272>
    5e38:	0791                	addi	a5,a5,4
    5e3a:	00579713          	slli	a4,a5,0x5
    5e3e:	00074c63          	bltz	a4,5e56 <__mulsf3+0x28e>
    5e42:	079a                	slli	a5,a5,0x6
    5e44:	83a5                	srli	a5,a5,0x9
    5e46:	4701                	li	a4,0
    5e48:	bd05                	j	5c78 <__mulsf3+0xb0>
    5e4a:	0ff00713          	li	a4,255
    5e4e:	4781                	li	a5,0
    5e50:	b525                	j	5c78 <__mulsf3+0xb0>
    5e52:	842e                	mv	s0,a1
    5e54:	b7b5                	j	5dc0 <__mulsf3+0x1f8>
    5e56:	4705                	li	a4,1
    5e58:	4781                	li	a5,0
    5e5a:	bd39                	j	5c78 <__mulsf3+0xb0>

00005e5c <__subsf3>:
__subsf3():
    5e5c:	00800737          	lui	a4,0x800
    5e60:	1141                	addi	sp,sp,-16
    5e62:	177d                	addi	a4,a4,-1
    5e64:	01755693          	srli	a3,a0,0x17
    5e68:	0175d813          	srli	a6,a1,0x17
    5e6c:	00a777b3          	and	a5,a4,a0
    5e70:	0ff6f693          	andi	a3,a3,255
    5e74:	01f55e93          	srli	t4,a0,0x1f
    5e78:	00b77633          	and	a2,a4,a1
    5e7c:	c226                	sw	s1,4(sp)
    5e7e:	c04a                	sw	s2,0(sp)
    5e80:	0ff87813          	andi	a6,a6,255
    5e84:	c606                	sw	ra,12(sp)
    5e86:	c422                	sw	s0,8(sp)
    5e88:	0ff00313          	li	t1,255
    5e8c:	8e3e                	mv	t3,a5
    5e8e:	8936                	mv	s2,a3
    5e90:	84f6                	mv	s1,t4
    5e92:	00379f13          	slli	t5,a5,0x3
    5e96:	81fd                	srli	a1,a1,0x1f
    5e98:	00361513          	slli	a0,a2,0x3
    5e9c:	410688b3          	sub	a7,a3,a6
    5ea0:	10680263          	beq	a6,t1,5fa4 <__subsf3+0x148>
    5ea4:	0015c593          	xori	a1,a1,1
    5ea8:	10be8c63          	beq	t4,a1,5fc0 <__subsf3+0x164>
    5eac:	0d105463          	blez	a7,5f74 <__subsf3+0x118>
    5eb0:	10081063          	bnez	a6,5fb0 <__subsf3+0x154>
    5eb4:	1e050463          	beqz	a0,609c <__subsf3+0x240>
    5eb8:	18fd                	addi	a7,a7,-1
    5eba:	40af07b3          	sub	a5,t5,a0
    5ebe:	02088663          	beqz	a7,5eea <__subsf3+0x8e>
    5ec2:	0ff00793          	li	a5,255
    5ec6:	16f68863          	beq	a3,a5,6036 <__subsf3+0x1da>
    5eca:	47ed                	li	a5,27
    5ecc:	2917c763          	blt	a5,a7,615a <__subsf3+0x2fe>
    5ed0:	02000713          	li	a4,32
    5ed4:	41170733          	sub	a4,a4,a7
    5ed8:	00e51733          	sll	a4,a0,a4
    5edc:	011557b3          	srl	a5,a0,a7
    5ee0:	00e03733          	snez	a4,a4
    5ee4:	8fd9                	or	a5,a5,a4
    5ee6:	40ff07b3          	sub	a5,t5,a5
    5eea:	00579713          	slli	a4,a5,0x5
    5eee:	1a075163          	bgez	a4,6090 <__subsf3+0x234>
    5ef2:	04000437          	lui	s0,0x4000
    5ef6:	147d                	addi	s0,s0,-1
    5ef8:	8c7d                	and	s0,s0,a5
    5efa:	8522                	mv	a0,s0
    5efc:	251d                	jal	6522 <__clzsi2>
    5efe:	156d                	addi	a0,a0,-5
    5f00:	00a417b3          	sll	a5,s0,a0
    5f04:	1b254e63          	blt	a0,s2,60c0 <__subsf3+0x264>
    5f08:	41250533          	sub	a0,a0,s2
    5f0c:	00150413          	addi	s0,a0,1
    5f10:	02000713          	li	a4,32
    5f14:	8f01                	sub	a4,a4,s0
    5f16:	00e79733          	sll	a4,a5,a4
    5f1a:	00e03733          	snez	a4,a4
    5f1e:	0087d7b3          	srl	a5,a5,s0
    5f22:	8fd9                	or	a5,a5,a4
    5f24:	4901                	li	s2,0
    5f26:	0077f713          	andi	a4,a5,7
    5f2a:	c719                	beqz	a4,5f38 <__subsf3+0xdc>
    5f2c:	00f7f713          	andi	a4,a5,15
    5f30:	4691                	li	a3,4
    5f32:	00d70363          	beq	a4,a3,5f38 <__subsf3+0xdc>
    5f36:	0791                	addi	a5,a5,4
    5f38:	00579713          	slli	a4,a5,0x5
    5f3c:	14075e63          	bgez	a4,6098 <__subsf3+0x23c>
    5f40:	00190693          	addi	a3,s2,1 # 800001 <_data_lma+0x7f9209>
    5f44:	0ff00713          	li	a4,255
    5f48:	0014fe93          	andi	t4,s1,1
    5f4c:	16e68663          	beq	a3,a4,60b8 <__subsf3+0x25c>
    5f50:	079a                	slli	a5,a5,0x6
    5f52:	83a5                	srli	a5,a5,0x9
    5f54:	0ff6f693          	andi	a3,a3,255
    5f58:	07a6                	slli	a5,a5,0x9
    5f5a:	40b2                	lw	ra,12(sp)
    5f5c:	4422                	lw	s0,8(sp)
    5f5e:	0097d513          	srli	a0,a5,0x9
    5f62:	06de                	slli	a3,a3,0x17
    5f64:	01fe9793          	slli	a5,t4,0x1f
    5f68:	8d55                	or	a0,a0,a3
    5f6a:	4492                	lw	s1,4(sp)
    5f6c:	4902                	lw	s2,0(sp)
    5f6e:	8d5d                	or	a0,a0,a5
    5f70:	0141                	addi	sp,sp,16
    5f72:	8082                	ret
    5f74:	0a089263          	bnez	a7,6018 <__subsf3+0x1bc>
    5f78:	00168713          	addi	a4,a3,1 # 7e000001 <_eusrstack+0x5dff9801>
    5f7c:	0fe77713          	andi	a4,a4,254
    5f80:	14071b63          	bnez	a4,60d6 <__subsf3+0x27a>
    5f84:	22069463          	bnez	a3,61ac <__subsf3+0x350>
    5f88:	200f0263          	beqz	t5,618c <__subsf3+0x330>
    5f8c:	d571                	beqz	a0,5f58 <__subsf3+0xfc>
    5f8e:	40af07b3          	sub	a5,t5,a0
    5f92:	00579713          	slli	a4,a5,0x5
    5f96:	22075563          	bgez	a4,61c0 <__subsf3+0x364>
    5f9a:	41e507b3          	sub	a5,a0,t5
    5f9e:	4901                	li	s2,0
    5fa0:	84ae                	mv	s1,a1
    5fa2:	b751                	j	5f26 <__subsf3+0xca>
    5fa4:	f00500e3          	beqz	a0,5ea4 <__subsf3+0x48>
    5fa8:	0abe8a63          	beq	t4,a1,605c <__subsf3+0x200>
    5fac:	fd1054e3          	blez	a7,5f74 <__subsf3+0x118>
    5fb0:	0ff00793          	li	a5,255
    5fb4:	08f68163          	beq	a3,a5,6036 <__subsf3+0x1da>
    5fb8:	040007b7          	lui	a5,0x4000
    5fbc:	8d5d                	or	a0,a0,a5
    5fbe:	b731                	j	5eca <__subsf3+0x6e>
    5fc0:	09105e63          	blez	a7,605c <__subsf3+0x200>
    5fc4:	08080163          	beqz	a6,6046 <__subsf3+0x1ea>
    5fc8:	0ff00793          	li	a5,255
    5fcc:	06f68563          	beq	a3,a5,6036 <__subsf3+0x1da>
    5fd0:	040007b7          	lui	a5,0x4000
    5fd4:	8d5d                	or	a0,a0,a5
    5fd6:	47ed                	li	a5,27
    5fd8:	1f17c063          	blt	a5,a7,61b8 <__subsf3+0x35c>
    5fdc:	02000713          	li	a4,32
    5fe0:	41170733          	sub	a4,a4,a7
    5fe4:	00e51733          	sll	a4,a0,a4
    5fe8:	011557b3          	srl	a5,a0,a7
    5fec:	00e03733          	snez	a4,a4
    5ff0:	8fd9                	or	a5,a5,a4
    5ff2:	97fa                	add	a5,a5,t5
    5ff4:	00579713          	slli	a4,a5,0x5
    5ff8:	08075c63          	bgez	a4,6090 <__subsf3+0x234>
    5ffc:	0905                	addi	s2,s2,1
    5ffe:	0ff00713          	li	a4,255
    6002:	0ae90b63          	beq	s2,a4,60b8 <__subsf3+0x25c>
    6006:	7e0006b7          	lui	a3,0x7e000
    600a:	0017d713          	srli	a4,a5,0x1
    600e:	16fd                	addi	a3,a3,-1
    6010:	8b85                	andi	a5,a5,1
    6012:	8f75                	and	a4,a4,a3
    6014:	8fd9                	or	a5,a5,a4
    6016:	bf01                	j	5f26 <__subsf3+0xca>
    6018:	40d80733          	sub	a4,a6,a3
    601c:	10069563          	bnez	a3,6126 <__subsf3+0x2ca>
    6020:	140f0d63          	beqz	t5,617a <__subsf3+0x31e>
    6024:	177d                	addi	a4,a4,-1
    6026:	1a070363          	beqz	a4,61cc <__subsf3+0x370>
    602a:	0ff00793          	li	a5,255
    602e:	10f81463          	bne	a6,a5,6136 <__subsf3+0x2da>
    6032:	84ae                	mv	s1,a1
    6034:	8e32                	mv	t3,a2
    6036:	060e0f63          	beqz	t3,60b4 <__subsf3+0x258>
    603a:	4e81                	li	t4,0
    603c:	0ff00693          	li	a3,255
    6040:	004007b7          	lui	a5,0x400
    6044:	bf11                	j	5f58 <__subsf3+0xfc>
    6046:	c939                	beqz	a0,609c <__subsf3+0x240>
    6048:	18fd                	addi	a7,a7,-1
    604a:	00af07b3          	add	a5,t5,a0
    604e:	fa0883e3          	beqz	a7,5ff4 <__subsf3+0x198>
    6052:	0ff00793          	li	a5,255
    6056:	f8f690e3          	bne	a3,a5,5fd6 <__subsf3+0x17a>
    605a:	bff1                	j	6036 <__subsf3+0x1da>
    605c:	08089963          	bnez	a7,60ee <__subsf3+0x292>
    6060:	00168913          	addi	s2,a3,1 # 7e000001 <_eusrstack+0x5dff9801>
    6064:	0fe97713          	andi	a4,s2,254
    6068:	12071663          	bnez	a4,6194 <__subsf3+0x338>
    606c:	10069b63          	bnez	a3,6182 <__subsf3+0x326>
    6070:	160f0363          	beqz	t5,61d6 <__subsf3+0x37a>
    6074:	ee0502e3          	beqz	a0,5f58 <__subsf3+0xfc>
    6078:	00af07b3          	add	a5,t5,a0
    607c:	00579713          	slli	a4,a5,0x5
    6080:	4901                	li	s2,0
    6082:	00075763          	bgez	a4,6090 <__subsf3+0x234>
    6086:	fc000737          	lui	a4,0xfc000
    608a:	177d                	addi	a4,a4,-1
    608c:	8ff9                	and	a5,a5,a4
    608e:	4905                	li	s2,1
    6090:	0077f713          	andi	a4,a5,7
    6094:	e8071ce3          	bnez	a4,5f2c <__subsf3+0xd0>
    6098:	0037de13          	srli	t3,a5,0x3
    609c:	0ff00793          	li	a5,255
    60a0:	f8f90be3          	beq	s2,a5,6036 <__subsf3+0x1da>
    60a4:	009e1793          	slli	a5,t3,0x9
    60a8:	83a5                	srli	a5,a5,0x9
    60aa:	0ff97693          	andi	a3,s2,255
    60ae:	0014fe93          	andi	t4,s1,1
    60b2:	b55d                	j	5f58 <__subsf3+0xfc>
    60b4:	0014fe93          	andi	t4,s1,1
    60b8:	0ff00693          	li	a3,255
    60bc:	4781                	li	a5,0
    60be:	bd69                	j	5f58 <__subsf3+0xfc>
    60c0:	fc000737          	lui	a4,0xfc000
    60c4:	177d                	addi	a4,a4,-1
    60c6:	8ff9                	and	a5,a5,a4
    60c8:	0077f713          	andi	a4,a5,7
    60cc:	40a90933          	sub	s2,s2,a0
    60d0:	e4071ee3          	bnez	a4,5f2c <__subsf3+0xd0>
    60d4:	b7d1                	j	6098 <__subsf3+0x23c>
    60d6:	40af0433          	sub	s0,t5,a0
    60da:	00541793          	slli	a5,s0,0x5
    60de:	0c07c363          	bltz	a5,61a4 <__subsf3+0x348>
    60e2:	e0041ce3          	bnez	s0,5efa <__subsf3+0x9e>
    60e6:	4e81                	li	t4,0
    60e8:	4681                	li	a3,0
    60ea:	4781                	li	a5,0
    60ec:	b5b5                	j	5f58 <__subsf3+0xfc>
    60ee:	40d80733          	sub	a4,a6,a3
    60f2:	c6b5                	beqz	a3,615e <__subsf3+0x302>
    60f4:	0ff00793          	li	a5,255
    60f8:	f2f80ee3          	beq	a6,a5,6034 <__subsf3+0x1d8>
    60fc:	040007b7          	lui	a5,0x4000
    6100:	00ff6f33          	or	t5,t5,a5
    6104:	47ed                	li	a5,27
    6106:	0ce7cd63          	blt	a5,a4,61e0 <__subsf3+0x384>
    610a:	02000793          	li	a5,32
    610e:	8f99                	sub	a5,a5,a4
    6110:	00ff17b3          	sll	a5,t5,a5
    6114:	00ef5733          	srl	a4,t5,a4
    6118:	00f037b3          	snez	a5,a5
    611c:	8f5d                	or	a4,a4,a5
    611e:	00a707b3          	add	a5,a4,a0
    6122:	8942                	mv	s2,a6
    6124:	bdc1                	j	5ff4 <__subsf3+0x198>
    6126:	0ff00793          	li	a5,255
    612a:	f0f804e3          	beq	a6,a5,6032 <__subsf3+0x1d6>
    612e:	040007b7          	lui	a5,0x4000
    6132:	00ff6f33          	or	t5,t5,a5
    6136:	47ed                	li	a5,27
    6138:	08e7c263          	blt	a5,a4,61bc <__subsf3+0x360>
    613c:	02000793          	li	a5,32
    6140:	8f99                	sub	a5,a5,a4
    6142:	00ff17b3          	sll	a5,t5,a5
    6146:	00ef5733          	srl	a4,t5,a4
    614a:	00f037b3          	snez	a5,a5
    614e:	8fd9                	or	a5,a5,a4
    6150:	40f507b3          	sub	a5,a0,a5
    6154:	8942                	mv	s2,a6
    6156:	84ae                	mv	s1,a1
    6158:	bb49                	j	5eea <__subsf3+0x8e>
    615a:	4785                	li	a5,1
    615c:	b369                	j	5ee6 <__subsf3+0x8a>
    615e:	060f0e63          	beqz	t5,61da <__subsf3+0x37e>
    6162:	177d                	addi	a4,a4,-1
    6164:	00af07b3          	add	a5,t5,a0
    6168:	8942                	mv	s2,a6
    616a:	e80705e3          	beqz	a4,5ff4 <__subsf3+0x198>
    616e:	0ff00793          	li	a5,255
    6172:	f8f819e3          	bne	a6,a5,6104 <__subsf3+0x2a8>
    6176:	8e32                	mv	t3,a2
    6178:	bd7d                	j	6036 <__subsf3+0x1da>
    617a:	8e32                	mv	t3,a2
    617c:	8942                	mv	s2,a6
    617e:	84ae                	mv	s1,a1
    6180:	bf31                	j	609c <__subsf3+0x240>
    6182:	ea0f09e3          	beqz	t5,6034 <__subsf3+0x1d8>
    6186:	ea0508e3          	beqz	a0,6036 <__subsf3+0x1da>
    618a:	bd45                	j	603a <__subsf3+0x1de>
    618c:	cd0d                	beqz	a0,61c6 <__subsf3+0x36a>
    618e:	8eae                	mv	t4,a1
    6190:	87b2                	mv	a5,a2
    6192:	b3d9                	j	5f58 <__subsf3+0xfc>
    6194:	0ff00793          	li	a5,255
    6198:	f2f900e3          	beq	s2,a5,60b8 <__subsf3+0x25c>
    619c:	00af07b3          	add	a5,t5,a0
    61a0:	8385                	srli	a5,a5,0x1
    61a2:	b5fd                	j	6090 <__subsf3+0x234>
    61a4:	41e50433          	sub	s0,a0,t5
    61a8:	84ae                	mv	s1,a1
    61aa:	bb81                	j	5efa <__subsf3+0x9e>
    61ac:	fc0f1de3          	bnez	t5,6186 <__subsf3+0x32a>
    61b0:	e80505e3          	beqz	a0,603a <__subsf3+0x1de>
    61b4:	84ae                	mv	s1,a1
    61b6:	bdbd                	j	6034 <__subsf3+0x1d8>
    61b8:	4785                	li	a5,1
    61ba:	bd25                	j	5ff2 <__subsf3+0x196>
    61bc:	4785                	li	a5,1
    61be:	bf49                	j	6150 <__subsf3+0x2f4>
    61c0:	4901                	li	s2,0
    61c2:	ec0797e3          	bnez	a5,6090 <__subsf3+0x234>
    61c6:	4e81                	li	t4,0
    61c8:	4781                	li	a5,0
    61ca:	b379                	j	5f58 <__subsf3+0xfc>
    61cc:	41e507b3          	sub	a5,a0,t5
    61d0:	8942                	mv	s2,a6
    61d2:	84ae                	mv	s1,a1
    61d4:	bb19                	j	5eea <__subsf3+0x8e>
    61d6:	87b2                	mv	a5,a2
    61d8:	b341                	j	5f58 <__subsf3+0xfc>
    61da:	8e32                	mv	t3,a2
    61dc:	8942                	mv	s2,a6
    61de:	bd7d                	j	609c <__subsf3+0x240>
    61e0:	4705                	li	a4,1
    61e2:	bf35                	j	611e <__subsf3+0x2c2>

000061e4 <__fixsfsi>:
__fixsfsi():
    61e4:	00800637          	lui	a2,0x800
    61e8:	01755713          	srli	a4,a0,0x17
    61ec:	fff60793          	addi	a5,a2,-1 # 7fffff <_data_lma+0x7f9207>
    61f0:	0ff77713          	andi	a4,a4,255
    61f4:	07e00593          	li	a1,126
    61f8:	00a7f6b3          	and	a3,a5,a0
    61fc:	01f55793          	srli	a5,a0,0x1f
    6200:	00e5fc63          	bgeu	a1,a4,6218 <__fixsfsi+0x34>
    6204:	09d00593          	li	a1,157
    6208:	00e5fa63          	bgeu	a1,a4,621c <__fixsfsi+0x38>
    620c:	80000537          	lui	a0,0x80000
    6210:	fff54513          	not	a0,a0
    6214:	953e                	add	a0,a0,a5
    6216:	8082                	ret
    6218:	4501                	li	a0,0
    621a:	8082                	ret
    621c:	09500593          	li	a1,149
    6220:	8ed1                	or	a3,a3,a2
    6222:	00e5cd63          	blt	a1,a4,623c <__fixsfsi+0x58>
    6226:	09600613          	li	a2,150
    622a:	40e60733          	sub	a4,a2,a4
    622e:	00e6d733          	srl	a4,a3,a4
    6232:	40e00533          	neg	a0,a4
    6236:	f3f5                	bnez	a5,621a <__fixsfsi+0x36>
    6238:	853a                	mv	a0,a4
    623a:	8082                	ret
    623c:	f6a70713          	addi	a4,a4,-150 # fbffff6a <_eusrstack+0xdbff976a>
    6240:	00e69733          	sll	a4,a3,a4
    6244:	b7fd                	j	6232 <__fixsfsi+0x4e>

00006246 <__floatsisf>:
__floatsisf():
    6246:	1141                	addi	sp,sp,-16
    6248:	c606                	sw	ra,12(sp)
    624a:	c422                	sw	s0,8(sp)
    624c:	c226                	sw	s1,4(sp)
    624e:	cd0d                	beqz	a0,6288 <__floatsisf+0x42>
    6250:	41f55793          	srai	a5,a0,0x1f
    6254:	00a7c433          	xor	s0,a5,a0
    6258:	8c1d                	sub	s0,s0,a5
    625a:	84aa                	mv	s1,a0
    625c:	8522                	mv	a0,s0
    625e:	24d1                	jal	6522 <__clzsi2>
    6260:	09e00793          	li	a5,158
    6264:	40a78733          	sub	a4,a5,a0
    6268:	09600793          	li	a5,150
    626c:	80fd                	srli	s1,s1,0x1f
    626e:	02e7cc63          	blt	a5,a4,62a6 <__floatsisf+0x60>
    6272:	46a1                	li	a3,8
    6274:	0ff77793          	andi	a5,a4,255
    6278:	00a6d563          	bge	a3,a0,6282 <__floatsisf+0x3c>
    627c:	1561                	addi	a0,a0,-8
    627e:	00a41433          	sll	s0,s0,a0
    6282:	0426                	slli	s0,s0,0x9
    6284:	8025                	srli	s0,s0,0x9
    6286:	a021                	j	628e <__floatsisf+0x48>
    6288:	4481                	li	s1,0
    628a:	4781                	li	a5,0
    628c:	4401                	li	s0,0
    628e:	0426                	slli	s0,s0,0x9
    6290:	00945513          	srli	a0,s0,0x9
    6294:	40b2                	lw	ra,12(sp)
    6296:	4422                	lw	s0,8(sp)
    6298:	07de                	slli	a5,a5,0x17
    629a:	04fe                	slli	s1,s1,0x1f
    629c:	8d5d                	or	a0,a0,a5
    629e:	8d45                	or	a0,a0,s1
    62a0:	4492                	lw	s1,4(sp)
    62a2:	0141                	addi	sp,sp,16
    62a4:	8082                	ret
    62a6:	09900793          	li	a5,153
    62aa:	00e7dd63          	bge	a5,a4,62c4 <__floatsisf+0x7e>
    62ae:	01b50793          	addi	a5,a0,27 # 8000001b <_eusrstack+0x5fff981b>
    62b2:	4695                	li	a3,5
    62b4:	00f417b3          	sll	a5,s0,a5
    62b8:	8e89                	sub	a3,a3,a0
    62ba:	00d45433          	srl	s0,s0,a3
    62be:	00f037b3          	snez	a5,a5
    62c2:	8c5d                	or	s0,s0,a5
    62c4:	4795                	li	a5,5
    62c6:	00a7d663          	bge	a5,a0,62d2 <__floatsisf+0x8c>
    62ca:	ffb50793          	addi	a5,a0,-5
    62ce:	00f41433          	sll	s0,s0,a5
    62d2:	fc0006b7          	lui	a3,0xfc000
    62d6:	16fd                	addi	a3,a3,-1
    62d8:	00747793          	andi	a5,s0,7
    62dc:	00d47633          	and	a2,s0,a3
    62e0:	c385                	beqz	a5,6300 <__floatsisf+0xba>
    62e2:	00f47793          	andi	a5,s0,15
    62e6:	4591                	li	a1,4
    62e8:	00b78c63          	beq	a5,a1,6300 <__floatsisf+0xba>
    62ec:	0611                	addi	a2,a2,4
    62ee:	00561793          	slli	a5,a2,0x5
    62f2:	0007d763          	bgez	a5,6300 <__floatsisf+0xba>
    62f6:	09f00793          	li	a5,159
    62fa:	8e75                	and	a2,a2,a3
    62fc:	40a78733          	sub	a4,a5,a0
    6300:	00661413          	slli	s0,a2,0x6
    6304:	8025                	srli	s0,s0,0x9
    6306:	0ff77793          	andi	a5,a4,255
    630a:	b751                	j	628e <__floatsisf+0x48>

0000630c <__extendsfdf2>:
__extendsfdf2():
    630c:	01755713          	srli	a4,a0,0x17
    6310:	0ff77713          	andi	a4,a4,255
    6314:	1141                	addi	sp,sp,-16
    6316:	00170793          	addi	a5,a4,1
    631a:	c422                	sw	s0,8(sp)
    631c:	c226                	sw	s1,4(sp)
    631e:	00951413          	slli	s0,a0,0x9
    6322:	c606                	sw	ra,12(sp)
    6324:	0fe7f793          	andi	a5,a5,254
    6328:	8025                	srli	s0,s0,0x9
    632a:	01f55493          	srli	s1,a0,0x1f
    632e:	c785                	beqz	a5,6356 <__extendsfdf2+0x4a>
    6330:	00345793          	srli	a5,s0,0x3
    6334:	38070713          	addi	a4,a4,896
    6338:	0476                	slli	s0,s0,0x1d
    633a:	07b2                	slli	a5,a5,0xc
    633c:	0752                	slli	a4,a4,0x14
    633e:	83b1                	srli	a5,a5,0xc
    6340:	01f49513          	slli	a0,s1,0x1f
    6344:	8fd9                	or	a5,a5,a4
    6346:	8fc9                	or	a5,a5,a0
    6348:	40b2                	lw	ra,12(sp)
    634a:	8522                	mv	a0,s0
    634c:	4422                	lw	s0,8(sp)
    634e:	4492                	lw	s1,4(sp)
    6350:	85be                	mv	a1,a5
    6352:	0141                	addi	sp,sp,16
    6354:	8082                	ret
    6356:	eb05                	bnez	a4,6386 <__extendsfdf2+0x7a>
    6358:	c439                	beqz	s0,63a6 <__extendsfdf2+0x9a>
    635a:	8522                	mv	a0,s0
    635c:	22d9                	jal	6522 <__clzsi2>
    635e:	47a9                	li	a5,10
    6360:	04a7c663          	blt	a5,a0,63ac <__extendsfdf2+0xa0>
    6364:	472d                	li	a4,11
    6366:	8f09                	sub	a4,a4,a0
    6368:	01550793          	addi	a5,a0,21
    636c:	00e45733          	srl	a4,s0,a4
    6370:	00f41433          	sll	s0,s0,a5
    6374:	00c71793          	slli	a5,a4,0xc
    6378:	38900713          	li	a4,905
    637c:	8f09                	sub	a4,a4,a0
    637e:	83b1                	srli	a5,a5,0xc
    6380:	7ff77713          	andi	a4,a4,2047
    6384:	bf5d                	j	633a <__extendsfdf2+0x2e>
    6386:	cc01                	beqz	s0,639e <__extendsfdf2+0x92>
    6388:	00345713          	srli	a4,s0,0x3
    638c:	000807b7          	lui	a5,0x80
    6390:	8fd9                	or	a5,a5,a4
    6392:	07b2                	slli	a5,a5,0xc
    6394:	0476                	slli	s0,s0,0x1d
    6396:	83b1                	srli	a5,a5,0xc
    6398:	7ff00713          	li	a4,2047
    639c:	bf79                	j	633a <__extendsfdf2+0x2e>
    639e:	7ff00713          	li	a4,2047
    63a2:	4781                	li	a5,0
    63a4:	bf59                	j	633a <__extendsfdf2+0x2e>
    63a6:	4701                	li	a4,0
    63a8:	4781                	li	a5,0
    63aa:	bf41                	j	633a <__extendsfdf2+0x2e>
    63ac:	ff550713          	addi	a4,a0,-11
    63b0:	00e41733          	sll	a4,s0,a4
    63b4:	4401                	li	s0,0
    63b6:	bf7d                	j	6374 <__extendsfdf2+0x68>

000063b8 <__truncdfsf2>:
__truncdfsf2():
    63b8:	0145d693          	srli	a3,a1,0x14
    63bc:	00c59793          	slli	a5,a1,0xc
    63c0:	7ff6f693          	andi	a3,a3,2047
    63c4:	83b1                	srli	a5,a5,0xc
    63c6:	00168613          	addi	a2,a3,1 # fc000001 <_eusrstack+0xdbff9801>
    63ca:	078e                	slli	a5,a5,0x3
    63cc:	01d55713          	srli	a4,a0,0x1d
    63d0:	7fe67613          	andi	a2,a2,2046
    63d4:	81fd                	srli	a1,a1,0x1f
    63d6:	8f5d                	or	a4,a4,a5
    63d8:	00351893          	slli	a7,a0,0x3
    63dc:	ce35                	beqz	a2,6458 <__truncdfsf2+0xa0>
    63de:	c8068813          	addi	a6,a3,-896
    63e2:	0fe00793          	li	a5,254
    63e6:	0107dd63          	bge	a5,a6,6400 <__truncdfsf2+0x48>
    63ea:	4781                	li	a5,0
    63ec:	00979513          	slli	a0,a5,0x9
    63f0:	0ff00693          	li	a3,255
    63f4:	06de                	slli	a3,a3,0x17
    63f6:	8125                	srli	a0,a0,0x9
    63f8:	05fe                	slli	a1,a1,0x1f
    63fa:	8d55                	or	a0,a0,a3
    63fc:	8d4d                	or	a0,a0,a1
    63fe:	8082                	ret
    6400:	0b005563          	blez	a6,64aa <__truncdfsf2+0xf2>
    6404:	00651793          	slli	a5,a0,0x6
    6408:	070e                	slli	a4,a4,0x3
    640a:	00f037b3          	snez	a5,a5
    640e:	8fd9                	or	a5,a5,a4
    6410:	01d8d893          	srli	a7,a7,0x1d
    6414:	0117e7b3          	or	a5,a5,a7
    6418:	0077f713          	andi	a4,a5,7
    641c:	10070163          	beqz	a4,651e <__truncdfsf2+0x166>
    6420:	00f7f713          	andi	a4,a5,15
    6424:	4691                	li	a3,4
    6426:	00d70363          	beq	a4,a3,642c <__truncdfsf2+0x74>
    642a:	0791                	addi	a5,a5,4
    642c:	04000737          	lui	a4,0x4000
    6430:	8f7d                	and	a4,a4,a5
    6432:	c775                	beqz	a4,651e <__truncdfsf2+0x166>
    6434:	00180713          	addi	a4,a6,1
    6438:	0ff00613          	li	a2,255
    643c:	0ff77693          	andi	a3,a4,255
    6440:	fac705e3          	beq	a4,a2,63ea <__truncdfsf2+0x32>
    6444:	079a                	slli	a5,a5,0x6
    6446:	83a5                	srli	a5,a5,0x9
    6448:	00979513          	slli	a0,a5,0x9
    644c:	06de                	slli	a3,a3,0x17
    644e:	8125                	srli	a0,a0,0x9
    6450:	05fe                	slli	a1,a1,0x1f
    6452:	8d55                	or	a0,a0,a3
    6454:	8d4d                	or	a0,a0,a1
    6456:	8082                	ret
    6458:	011767b3          	or	a5,a4,a7
    645c:	ee99                	bnez	a3,647a <__truncdfsf2+0xc2>
    645e:	cf85                	beqz	a5,6496 <__truncdfsf2+0xde>
    6460:	4795                	li	a5,5
    6462:	079a                	slli	a5,a5,0x6
    6464:	83a5                	srli	a5,a5,0x9
    6466:	00979513          	slli	a0,a5,0x9
    646a:	0ff6f693          	andi	a3,a3,255
    646e:	06de                	slli	a3,a3,0x17
    6470:	8125                	srli	a0,a0,0x9
    6472:	05fe                	slli	a1,a1,0x1f
    6474:	8d55                	or	a0,a0,a3
    6476:	8d4d                	or	a0,a0,a1
    6478:	8082                	ret
    647a:	dba5                	beqz	a5,63ea <__truncdfsf2+0x32>
    647c:	004007b7          	lui	a5,0x400
    6480:	00979513          	slli	a0,a5,0x9
    6484:	0ff00693          	li	a3,255
    6488:	06de                	slli	a3,a3,0x17
    648a:	4581                	li	a1,0
    648c:	8125                	srli	a0,a0,0x9
    648e:	05fe                	slli	a1,a1,0x1f
    6490:	8d55                	or	a0,a0,a3
    6492:	8d4d                	or	a0,a0,a1
    6494:	8082                	ret
    6496:	4781                	li	a5,0
    6498:	00979513          	slli	a0,a5,0x9
    649c:	4681                	li	a3,0
    649e:	06de                	slli	a3,a3,0x17
    64a0:	8125                	srli	a0,a0,0x9
    64a2:	05fe                	slli	a1,a1,0x1f
    64a4:	8d55                	or	a0,a0,a3
    64a6:	8d4d                	or	a0,a0,a1
    64a8:	8082                	ret
    64aa:	57a5                	li	a5,-23
    64ac:	04f84863          	blt	a6,a5,64fc <__truncdfsf2+0x144>
    64b0:	47f9                	li	a5,30
    64b2:	00800637          	lui	a2,0x800
    64b6:	410787b3          	sub	a5,a5,a6
    64ba:	457d                	li	a0,31
    64bc:	8e59                	or	a2,a2,a4
    64be:	04f55163          	bge	a0,a5,6500 <__truncdfsf2+0x148>
    64c2:	5779                	li	a4,-2
    64c4:	41070733          	sub	a4,a4,a6
    64c8:	02000513          	li	a0,32
    64cc:	00e65733          	srl	a4,a2,a4
    64d0:	00a78863          	beq	a5,a0,64e0 <__truncdfsf2+0x128>
    64d4:	ca268693          	addi	a3,a3,-862
    64d8:	00d616b3          	sll	a3,a2,a3
    64dc:	00d8e8b3          	or	a7,a7,a3
    64e0:	011037b3          	snez	a5,a7
    64e4:	8fd9                	or	a5,a5,a4
    64e6:	0077f713          	andi	a4,a5,7
    64ea:	4801                	li	a6,0
    64ec:	fb15                	bnez	a4,6420 <__truncdfsf2+0x68>
    64ee:	00579713          	slli	a4,a5,0x5
    64f2:	4685                	li	a3,1
    64f4:	f40748e3          	bltz	a4,6444 <__truncdfsf2+0x8c>
    64f8:	4681                	li	a3,0
    64fa:	b7a5                	j	6462 <__truncdfsf2+0xaa>
    64fc:	4681                	li	a3,0
    64fe:	b78d                	j	6460 <__truncdfsf2+0xa8>
    6500:	c8268693          	addi	a3,a3,-894
    6504:	00d89733          	sll	a4,a7,a3
    6508:	00e03733          	snez	a4,a4
    650c:	00d616b3          	sll	a3,a2,a3
    6510:	00f8d8b3          	srl	a7,a7,a5
    6514:	00d767b3          	or	a5,a4,a3
    6518:	00f8e7b3          	or	a5,a7,a5
    651c:	b7e9                	j	64e6 <__truncdfsf2+0x12e>
    651e:	86c2                	mv	a3,a6
    6520:	b789                	j	6462 <__truncdfsf2+0xaa>

00006522 <__clzsi2>:
__clzsi2():
    6522:	67c1                	lui	a5,0x10
    6524:	02f57e63          	bgeu	a0,a5,6560 <__clzsi2+0x3e>
    6528:	0ff00793          	li	a5,255
    652c:	02000713          	li	a4,32
    6530:	00a7ec63          	bltu	a5,a0,6548 <__clzsi2+0x26>
    6534:	00000797          	auipc	a5,0x0
    6538:	7c478793          	addi	a5,a5,1988 # 6cf8 <__clz_tab>
    653c:	97aa                	add	a5,a5,a0
    653e:	0007c503          	lbu	a0,0(a5)
    6542:	40a70533          	sub	a0,a4,a0
    6546:	8082                	ret
    6548:	8121                	srli	a0,a0,0x8
    654a:	00000797          	auipc	a5,0x0
    654e:	7ae78793          	addi	a5,a5,1966 # 6cf8 <__clz_tab>
    6552:	97aa                	add	a5,a5,a0
    6554:	0007c503          	lbu	a0,0(a5)
    6558:	4761                	li	a4,24
    655a:	40a70533          	sub	a0,a4,a0
    655e:	8082                	ret
    6560:	010007b7          	lui	a5,0x1000
    6564:	00f56e63          	bltu	a0,a5,6580 <__clzsi2+0x5e>
    6568:	8161                	srli	a0,a0,0x18
    656a:	00000797          	auipc	a5,0x0
    656e:	78e78793          	addi	a5,a5,1934 # 6cf8 <__clz_tab>
    6572:	97aa                	add	a5,a5,a0
    6574:	0007c503          	lbu	a0,0(a5)
    6578:	4721                	li	a4,8
    657a:	40a70533          	sub	a0,a4,a0
    657e:	8082                	ret
    6580:	8141                	srli	a0,a0,0x10
    6582:	00000797          	auipc	a5,0x0
    6586:	77678793          	addi	a5,a5,1910 # 6cf8 <__clz_tab>
    658a:	97aa                	add	a5,a5,a0
    658c:	0007c503          	lbu	a0,0(a5)
    6590:	4741                	li	a4,16
    6592:	40a70533          	sub	a0,a4,a0
    6596:	8082                	ret

00006598 <malloc>:
malloc():
    6598:	1fffa797          	auipc	a5,0x1fffa
    659c:	2c878793          	addi	a5,a5,712 # 20000860 <_impure_ptr>
    65a0:	85aa                	mv	a1,a0
    65a2:	4388                	lw	a0,0(a5)
    65a4:	a009                	j	65a6 <_malloc_r>

000065a6 <_malloc_r>:
_malloc_r():
    65a6:	1101                	addi	sp,sp,-32
    65a8:	ca26                	sw	s1,20(sp)
    65aa:	00358493          	addi	s1,a1,3
    65ae:	98f1                	andi	s1,s1,-4
    65b0:	ce06                	sw	ra,28(sp)
    65b2:	cc22                	sw	s0,24(sp)
    65b4:	c84a                	sw	s2,16(sp)
    65b6:	c64e                	sw	s3,12(sp)
    65b8:	04a1                	addi	s1,s1,8
    65ba:	47b1                	li	a5,12
    65bc:	04f4f163          	bgeu	s1,a5,65fe <_malloc_r+0x58>
    65c0:	44b1                	li	s1,12
    65c2:	04b4e063          	bltu	s1,a1,6602 <_malloc_r+0x5c>
    65c6:	892a                	mv	s2,a0
    65c8:	2c39                	jal	67e6 <__malloc_lock>
    65ca:	80c18793          	addi	a5,gp,-2036 # 2000086c <__malloc_free_list>
    65ce:	4398                	lw	a4,0(a5)
    65d0:	843a                	mv	s0,a4
    65d2:	e031                	bnez	s0,6616 <_malloc_r+0x70>
    65d4:	81018793          	addi	a5,gp,-2032 # 20000870 <__malloc_sbrk_start>
    65d8:	439c                	lw	a5,0(a5)
    65da:	e791                	bnez	a5,65e6 <_malloc_r+0x40>
    65dc:	4581                	li	a1,0
    65de:	854a                	mv	a0,s2
    65e0:	2abd                	jal	675e <_sbrk_r>
    65e2:	80a1a823          	sw	a0,-2032(gp) # 20000870 <__malloc_sbrk_start>
    65e6:	85a6                	mv	a1,s1
    65e8:	854a                	mv	a0,s2
    65ea:	2a95                	jal	675e <_sbrk_r>
    65ec:	59fd                	li	s3,-1
    65ee:	07351763          	bne	a0,s3,665c <_malloc_r+0xb6>
    65f2:	47b1                	li	a5,12
    65f4:	00f92023          	sw	a5,0(s2)
    65f8:	854a                	mv	a0,s2
    65fa:	22fd                	jal	67e8 <__malloc_unlock>
    65fc:	a029                	j	6606 <_malloc_r+0x60>
    65fe:	fc04d2e3          	bgez	s1,65c2 <_malloc_r+0x1c>
    6602:	47b1                	li	a5,12
    6604:	c11c                	sw	a5,0(a0)
    6606:	4501                	li	a0,0
    6608:	40f2                	lw	ra,28(sp)
    660a:	4462                	lw	s0,24(sp)
    660c:	44d2                	lw	s1,20(sp)
    660e:	4942                	lw	s2,16(sp)
    6610:	49b2                	lw	s3,12(sp)
    6612:	6105                	addi	sp,sp,32
    6614:	8082                	ret
    6616:	401c                	lw	a5,0(s0)
    6618:	8f85                	sub	a5,a5,s1
    661a:	0207ce63          	bltz	a5,6656 <_malloc_r+0xb0>
    661e:	46ad                	li	a3,11
    6620:	00f6f663          	bgeu	a3,a5,662c <_malloc_r+0x86>
    6624:	c01c                	sw	a5,0(s0)
    6626:	943e                	add	s0,s0,a5
    6628:	c004                	sw	s1,0(s0)
    662a:	a031                	j	6636 <_malloc_r+0x90>
    662c:	405c                	lw	a5,4(s0)
    662e:	02871263          	bne	a4,s0,6652 <_malloc_r+0xac>
    6632:	80f1a623          	sw	a5,-2036(gp) # 2000086c <__malloc_free_list>
    6636:	854a                	mv	a0,s2
    6638:	2a45                	jal	67e8 <__malloc_unlock>
    663a:	00b40513          	addi	a0,s0,11 # 400000b <_data_lma+0x3ff9213>
    663e:	00440793          	addi	a5,s0,4
    6642:	9961                	andi	a0,a0,-8
    6644:	40f50733          	sub	a4,a0,a5
    6648:	d361                	beqz	a4,6608 <_malloc_r+0x62>
    664a:	943a                	add	s0,s0,a4
    664c:	8f89                	sub	a5,a5,a0
    664e:	c01c                	sw	a5,0(s0)
    6650:	bf65                	j	6608 <_malloc_r+0x62>
    6652:	c35c                	sw	a5,4(a4)
    6654:	b7cd                	j	6636 <_malloc_r+0x90>
    6656:	8722                	mv	a4,s0
    6658:	4040                	lw	s0,4(s0)
    665a:	bfa5                	j	65d2 <_malloc_r+0x2c>
    665c:	00350413          	addi	s0,a0,3
    6660:	9871                	andi	s0,s0,-4
    6662:	fc8503e3          	beq	a0,s0,6628 <_malloc_r+0x82>
    6666:	40a405b3          	sub	a1,s0,a0
    666a:	854a                	mv	a0,s2
    666c:	28cd                	jal	675e <_sbrk_r>
    666e:	fb351de3          	bne	a0,s3,6628 <_malloc_r+0x82>
    6672:	b741                	j	65f2 <_malloc_r+0x4c>

00006674 <srand>:
srand():
    6674:	1141                	addi	sp,sp,-16
    6676:	1fffa797          	auipc	a5,0x1fffa
    667a:	1ea78793          	addi	a5,a5,490 # 20000860 <_impure_ptr>
    667e:	c422                	sw	s0,8(sp)
    6680:	4380                	lw	s0,0(a5)
    6682:	c226                	sw	s1,4(sp)
    6684:	c606                	sw	ra,12(sp)
    6686:	5c1c                	lw	a5,56(s0)
    6688:	84aa                	mv	s1,a0
    668a:	eb9d                	bnez	a5,66c0 <srand+0x4c>
    668c:	4561                	li	a0,24
    668e:	f0bff0ef          	jal	ra,6598 <malloc>
    6692:	abcd37b7          	lui	a5,0xabcd3
    6696:	dc08                	sw	a0,56(s0)
    6698:	30e78793          	addi	a5,a5,782 # abcd330e <_eusrstack+0x8bcccb0e>
    669c:	c11c                	sw	a5,0(a0)
    669e:	e66d17b7          	lui	a5,0xe66d1
    66a2:	23478793          	addi	a5,a5,564 # e66d1234 <_eusrstack+0xc66caa34>
    66a6:	c15c                	sw	a5,4(a0)
    66a8:	0005e7b7          	lui	a5,0x5e
    66ac:	eec78793          	addi	a5,a5,-276 # 5deec <_data_lma+0x570f4>
    66b0:	c51c                	sw	a5,8(a0)
    66b2:	47ad                	li	a5,11
    66b4:	00f51623          	sh	a5,12(a0)
    66b8:	4705                	li	a4,1
    66ba:	4781                	li	a5,0
    66bc:	c918                	sw	a4,16(a0)
    66be:	c95c                	sw	a5,20(a0)
    66c0:	5c1c                	lw	a5,56(s0)
    66c2:	40b2                	lw	ra,12(sp)
    66c4:	4422                	lw	s0,8(sp)
    66c6:	cb84                	sw	s1,16(a5)
    66c8:	0007aa23          	sw	zero,20(a5)
    66cc:	4492                	lw	s1,4(sp)
    66ce:	0141                	addi	sp,sp,16
    66d0:	8082                	ret

000066d2 <rand>:
rand():
    66d2:	1141                	addi	sp,sp,-16
    66d4:	1fffa797          	auipc	a5,0x1fffa
    66d8:	18c78793          	addi	a5,a5,396 # 20000860 <_impure_ptr>
    66dc:	c422                	sw	s0,8(sp)
    66de:	4380                	lw	s0,0(a5)
    66e0:	c606                	sw	ra,12(sp)
    66e2:	5c1c                	lw	a5,56(s0)
    66e4:	eb9d                	bnez	a5,671a <rand+0x48>
    66e6:	4561                	li	a0,24
    66e8:	eb1ff0ef          	jal	ra,6598 <malloc>
    66ec:	abcd37b7          	lui	a5,0xabcd3
    66f0:	dc08                	sw	a0,56(s0)
    66f2:	30e78793          	addi	a5,a5,782 # abcd330e <_eusrstack+0x8bcccb0e>
    66f6:	c11c                	sw	a5,0(a0)
    66f8:	e66d17b7          	lui	a5,0xe66d1
    66fc:	23478793          	addi	a5,a5,564 # e66d1234 <_eusrstack+0xc66caa34>
    6700:	c15c                	sw	a5,4(a0)
    6702:	0005e7b7          	lui	a5,0x5e
    6706:	eec78793          	addi	a5,a5,-276 # 5deec <_data_lma+0x570f4>
    670a:	c51c                	sw	a5,8(a0)
    670c:	47ad                	li	a5,11
    670e:	00f51623          	sh	a5,12(a0)
    6712:	4705                	li	a4,1
    6714:	4781                	li	a5,0
    6716:	c918                	sw	a4,16(a0)
    6718:	c95c                	sw	a5,20(a0)
    671a:	5c10                	lw	a2,56(s0)
    671c:	4c958737          	lui	a4,0x4c958
    6720:	5851f7b7          	lui	a5,0x5851f
    6724:	4a14                	lw	a3,16(a2)
    6726:	4a48                	lw	a0,20(a2)
    6728:	f2d70713          	addi	a4,a4,-211 # 4c957f2d <_eusrstack+0x2c95172d>
    672c:	42d78793          	addi	a5,a5,1069 # 5851f42d <_eusrstack+0x38518c2d>
    6730:	02f687b3          	mul	a5,a3,a5
    6734:	40b2                	lw	ra,12(sp)
    6736:	4422                	lw	s0,8(sp)
    6738:	02e50533          	mul	a0,a0,a4
    673c:	953e                	add	a0,a0,a5
    673e:	02e687b3          	mul	a5,a3,a4
    6742:	02e6b733          	mulhu	a4,a3,a4
    6746:	00178693          	addi	a3,a5,1
    674a:	ca14                	sw	a3,16(a2)
    674c:	972a                	add	a4,a4,a0
    674e:	00f6b533          	sltu	a0,a3,a5
    6752:	953a                	add	a0,a0,a4
    6754:	ca48                	sw	a0,20(a2)
    6756:	0506                	slli	a0,a0,0x1
    6758:	8105                	srli	a0,a0,0x1
    675a:	0141                	addi	sp,sp,16
    675c:	8082                	ret

0000675e <_sbrk_r>:
_sbrk_r():
    675e:	1141                	addi	sp,sp,-16
    6760:	c422                	sw	s0,8(sp)
    6762:	842a                	mv	s0,a0
    6764:	852e                	mv	a0,a1
    6766:	8a01ac23          	sw	zero,-1864(gp) # 20000918 <errno>
    676a:	c606                	sw	ra,12(sp)
    676c:	2069                	jal	67f6 <_sbrk>
    676e:	57fd                	li	a5,-1
    6770:	00f51763          	bne	a0,a5,677e <_sbrk_r+0x20>
    6774:	8b818793          	addi	a5,gp,-1864 # 20000918 <errno>
    6778:	439c                	lw	a5,0(a5)
    677a:	c391                	beqz	a5,677e <_sbrk_r+0x20>
    677c:	c01c                	sw	a5,0(s0)
    677e:	40b2                	lw	ra,12(sp)
    6780:	4422                	lw	s0,8(sp)
    6782:	0141                	addi	sp,sp,16
    6784:	8082                	ret

00006786 <time>:
time():
    6786:	1101                	addi	sp,sp,-32
    6788:	1fffa797          	auipc	a5,0x1fffa
    678c:	0d878793          	addi	a5,a5,216 # 20000860 <_impure_ptr>
    6790:	cc22                	sw	s0,24(sp)
    6792:	842a                	mv	s0,a0
    6794:	4388                	lw	a0,0(a5)
    6796:	4601                	li	a2,0
    6798:	858a                	mv	a1,sp
    679a:	ce06                	sw	ra,28(sp)
    679c:	2005                	jal	67bc <_gettimeofday_r>
    679e:	00055663          	bgez	a0,67aa <time+0x24>
    67a2:	577d                	li	a4,-1
    67a4:	57fd                	li	a5,-1
    67a6:	c03a                	sw	a4,0(sp)
    67a8:	c23e                	sw	a5,4(sp)
    67aa:	4502                	lw	a0,0(sp)
    67ac:	4592                	lw	a1,4(sp)
    67ae:	c019                	beqz	s0,67b4 <time+0x2e>
    67b0:	c008                	sw	a0,0(s0)
    67b2:	c04c                	sw	a1,4(s0)
    67b4:	40f2                	lw	ra,28(sp)
    67b6:	4462                	lw	s0,24(sp)
    67b8:	6105                	addi	sp,sp,32
    67ba:	8082                	ret

000067bc <_gettimeofday_r>:
_gettimeofday_r():
    67bc:	1141                	addi	sp,sp,-16
    67be:	c422                	sw	s0,8(sp)
    67c0:	842a                	mv	s0,a0
    67c2:	852e                	mv	a0,a1
    67c4:	85b2                	mv	a1,a2
    67c6:	8a01ac23          	sw	zero,-1864(gp) # 20000918 <errno>
    67ca:	c606                	sw	ra,12(sp)
    67cc:	2839                	jal	67ea <_gettimeofday>
    67ce:	57fd                	li	a5,-1
    67d0:	00f51763          	bne	a0,a5,67de <_gettimeofday_r+0x22>
    67d4:	8b818793          	addi	a5,gp,-1864 # 20000918 <errno>
    67d8:	439c                	lw	a5,0(a5)
    67da:	c391                	beqz	a5,67de <_gettimeofday_r+0x22>
    67dc:	c01c                	sw	a5,0(s0)
    67de:	40b2                	lw	ra,12(sp)
    67e0:	4422                	lw	s0,8(sp)
    67e2:	0141                	addi	sp,sp,16
    67e4:	8082                	ret

000067e6 <__malloc_lock>:
__malloc_lock():
    67e6:	8082                	ret

000067e8 <__malloc_unlock>:
__malloc_unlock():
    67e8:	8082                	ret

000067ea <_gettimeofday>:
_gettimeofday():
    67ea:	05800793          	li	a5,88
    67ee:	8af1ac23          	sw	a5,-1864(gp) # 20000918 <errno>
    67f2:	557d                	li	a0,-1
    67f4:	8082                	ret

000067f6 <_sbrk>:
_sbrk():
    67f6:	81418793          	addi	a5,gp,-2028 # 20000874 <heap_end.1518>
    67fa:	439c                	lw	a5,0(a5)
    67fc:	c791                	beqz	a5,6808 <_sbrk+0x12>
    67fe:	953e                	add	a0,a0,a5
    6800:	80a1aa23          	sw	a0,-2028(gp) # 20000874 <heap_end.1518>
    6804:	853e                	mv	a0,a5
    6806:	8082                	ret
    6808:	8bc18793          	addi	a5,gp,-1860 # 2000091c <_ebss>
    680c:	953e                	add	a0,a0,a5
    680e:	80a1aa23          	sw	a0,-2028(gp) # 20000874 <heap_end.1518>
    6812:	853e                	mv	a0,a5
    6814:	8082                	ret
	...
    681e:	4010                	lw	a2,0(s0)
    6820:	0000                	unimp
    6822:	0000                	unimp
    6824:	0000                	unimp
    6826:	3ff0                	fld	fa2,248(a5)
    6828:	0000                	unimp
    682a:	0000                	unimp
    682c:	0000                	unimp
    682e:	4034                	lw	a3,64(s0)
    6830:	cccd                	beqz	s1,68ea <original_vertices+0x3a>
    6832:	3e4c                	fld	fa1,184(a2)
	...
    683c:	0000                	unimp
    683e:	4020                	lw	s0,64(s0)
    6840:	0000                	unimp
    6842:	0000                	unimp
    6844:	0000                	unimp
    6846:	4030                	lw	a2,64(s0)
    6848:	2d18                	fld	fa4,24(a0)
    684a:	5444                	lw	s1,44(s0)
    684c:	400921fb          	0x400921fb

00006850 <edges>:
    6850:	00000000 00000001 00000001 00000002     ................
    6860:	00000002 00000003 00000003 00000000     ................
    6870:	00000004 00000005 00000005 00000006     ................
    6880:	00000006 00000007 00000007 00000004     ................
    6890:	00000000 00000004 00000001 00000005     ................
    68a0:	00000002 00000006 00000003 00000007     ................

000068b0 <original_vertices>:
    68b0:	bf800000 bf800000 bf800000 3f800000     ...............?
    68c0:	bf800000 bf800000 3f800000 3f800000     ...........?...?
    68d0:	bf800000 bf800000 3f800000 bf800000     ...........?....
    68e0:	bf800000 bf800000 3f800000 3f800000     ...........?...?
    68f0:	bf800000 3f800000 3f800000 3f800000     .......?...?...?
    6900:	3f800000 bf800000 3f800000 3f800000     ...?.......?...?
    6910:	3f7d70a4 41000000 c1000000 42480000     .p}?...A......HB
    6920:	c2480000 40a00000 c0a00000 3c23d70a     ..H....@......#<
    6930:	bf866666 c2600000 42600000 40c5dca8     ff....`...`B...@
    6940:	3dcccccd 3f99999a 00000000 3fe00000     ...=...?.......?
    6950:	ffffb850 ffffb878 ffffb8a0 ffffb832     P...x.......2...
    6960:	ffffb818 ffffb904 ffffb92c ffffb954     ........,...T...
    6970:	ffffb8e6 ffffb8cc 54400000 3ff921fb     ..........@T.!.?
    6980:	1a626331 3dd0b461 1a600000 3dd0b461     1cb.a..=..`.a..=
    6990:	2e037073 3ba3198a 6dc9c883 3fe45f30     sp.....;...m0_.?
    69a0:	2e000000 3ba3198a 252049c1 397b839a     .......;.I %..{9
    69b0:	00000000 41700000                       ......pA

000069b8 <npio2_hw>:
    69b8:	3ff921fb 400921fb 4012d97c 401921fb     .!.?.!.@|..@.!.@
    69c8:	401f6a7a 4022d97c 4025fdbb 402921fb     zj.@|."@..%@.!)@
    69d8:	402c463a 402f6a7a 4031475c 4032d97c     :F,@zj/@\G1@|.2@
    69e8:	40346b9c 4035fdbb 40378fdb 403921fb     .k4@..5@..7@.!9@
    69f8:	403ab41b 403c463a 403dd85a 403f6a7a     ..:@:F<@Z.=@zj?@
    6a08:	40407e4c 4041475c 4042106c 4042d97c     L~@@\GA@l.B@|.B@
    6a18:	4043a28c 40446b9c 404534ac 4045fdbb     ..C@.kD@.4E@..E@
    6a28:	4046c6cb 40478fdb 404858eb 404921fb     ..F@..G@.XH@.!I@

00006a38 <two_over_pi>:
    6a38:	00a2f983 006e4e44 001529fc 002757d1     ....DNn..)...W'.
    6a48:	00f534dd 00c0db62 0095993c 00439041     .4..b...<...A.C.
    6a58:	00fe5163 00abdebb 00c561b7 00246e3a     cQ.......a..:n$.
    6a68:	00424dd2 00e00649 002eea09 00d1921c     .MB.I...........
    6a78:	00fe1deb 001cb129 00a73ee8 008235f5     ....)....>...5..
    6a88:	002ebb44 0084e99c 007026b4 005f7e41     D........&p.A~_.
    6a98:	003991d6 00398353 0039f49c 00845f8b     ..9.S.9...9.._..
    6aa8:	00bdf928 003b1ff8 0097ffde 0005980f     (.....;.........
    6ab8:	00ef2f11 008b5a0a 006d1f6d 00367ecf     ./...Z..m.m..~6.
    6ac8:	0027cb09 00b74f46 003f669e 005fea2d     ..'.FO...f?.-._.
    6ad8:	007527ba 00c7ebe5 00f17b3d 000739f7     .'u.....={...9..
    6ae8:	008a5292 00ea6bfb 005fb11f 008d5d08     .R...k...._..]..
    6af8:	00560330 0046fc7b 006babf0 00cfbc20     0.V.{.F...k. ...
    6b08:	009af436 001da9e3 0091615e 00e61b08     6.......^a......
    6b18:	00659985 005f14a0 0068408d 00ffd880     ..e..._..@h.....
    6b28:	004d7327 00310606 001556ca 0073a8c9     'sM...1..V....s.
    6b38:	0060e27b 00c08c6b 00000000 3fe70000     {.`.k..........?
    6b48:	00000000 3fd20000 be8838d4 bda8fae9     .......?.8......
    6b58:	bdb4b1c4 3e21ee9e 809c52ad 3e927e4f     ......!>.R..O~.>
    6b68:	19cb1590 3efa01a0 16c15177 3f56c16c     .......>wQ..l.V?
    6b78:	5555554c 3fa55555                       LUUUUU.?

00006b80 <PIo2>:
    6b80:	40000000 3ff921fb 00000000 3e74442d     ...@.!.?....-Dt>
    6b90:	80000000 3cf84698 60000000 3b78cc51     .....F.<...`Q.x;
    6ba0:	80000000 39f01b83 40000000 387a2520     .......9...@ %z8
    6bb0:	80000000 36e38222 00000000 3569f31d     ...."..6......i5
    6bc0:	40000000 3ff921fb 00000000 3e700000     ...@.!.?......p>
    6bd0:	00000000 3fc00000                       .......?

00006bd8 <init_jk>:
    6bd8:	00000002 00000003 00000004 00000006     ................
    6be8:	5acfd57c 3de5d93a 8a2b9ceb 3e5ae5e6     |..Z:..=..+...Z>
    6bf8:	57b1fe7d 3ec71de3 19c161d5 3f2a01a0     }..W...>.a....*?
    6c08:	1110f8a6 3f811111 55555549 3fc55555     .......?IUUUUU.?
    6c18:	8800759c 7e37e43c 00000000 43500000     .u..<.7~......PC
    6c28:	c2f8f359 01a56e1f 00000000 3c900000     Y....n.........<
    6c38:	ffffd9ba ffffd83e ffffd94e ffffd956     ....>...N...V...
    6c48:	ffffd94e ffffd86e ffffd94e ffffd956     N...n...N...V...
    6c58:	ffffd83e ffffd83e ffffd86e ffffd956     >...>...n...V...
    6c68:	ffffd9b0 ffffd9b0 ffffd9b0 ffffd86e     ............n...
    6c78:	ffffe014 ffffdf06 ffffdf06 ffffdf04     ................
    6c88:	ffffdf0c ffffdf0c ffffded2 ffffdf04     ................
    6c98:	ffffdf0c ffffded2 ffffdf0c ffffdf04     ................
    6ca8:	ffffe000 ffffe000 ffffe000 ffffded2     ................
    6cb8:	fffff094 ffffefe2 ffffefe2 ffffefe0     ................
    6cc8:	ffffefe6 ffffefe6 ffffefb6 ffffefe0     ................
    6cd8:	ffffefe6 ffffefb6 ffffefe6 ffffefe0     ................
    6ce8:	fffff082 fffff082 fffff082 ffffefb6     ................

00006cf8 <__clz_tab>:
    6cf8:	02020100 03030303 04040404 04040404     ................
    6d08:	05050505 05050505 05050505 05050505     ................
    6d18:	06060606 06060606 06060606 06060606     ................
    6d28:	06060606 06060606 06060606 06060606     ................
    6d38:	07070707 07070707 07070707 07070707     ................
    6d48:	07070707 07070707 07070707 07070707     ................
    6d58:	07070707 07070707 07070707 07070707     ................
    6d68:	07070707 07070707 07070707 07070707     ................
    6d78:	08080808 08080808 08080808 08080808     ................
    6d88:	08080808 08080808 08080808 08080808     ................
    6d98:	08080808 08080808 08080808 08080808     ................
    6da8:	08080808 08080808 08080808 08080808     ................
    6db8:	08080808 08080808 08080808 08080808     ................
    6dc8:	08080808 08080808 08080808 08080808     ................
    6dd8:	08080808 08080808 08080808 08080808     ................
    6de8:	08080808 08080808 08080808 08080808     ................
