
CH592F_SSD1306.elf:     file format elf32-littleriscv
CH592F_SSD1306.elf
architecture: riscv:rv32, flags 0x00000112:
EXEC_P, HAS_SYMS, D_PAGED
start address 0x00000000

Program Header:
    LOAD off    0x00001000 vaddr 0x00000000 paddr 0x00000000 align 2**12
         filesz 0x00000004 memsz 0x00000004 flags r-x
    LOAD off    0x00002000 vaddr 0x20000000 paddr 0x00000004 align 2**12
         filesz 0x00000788 memsz 0x00000788 flags r-x
    LOAD off    0x00002790 vaddr 0x00000790 paddr 0x00000790 align 2**12
         filesz 0x00006118 memsz 0x00006118 flags r-x
    LOAD off    0x00009788 vaddr 0x20000788 paddr 0x000068a8 align 2**12
         filesz 0x00000000 memsz 0x00000078 flags rw-
    LOAD off    0x00009800 vaddr 0x20000800 paddr 0x000068a8 align 2**12
         filesz 0x00000068 memsz 0x0000011c flags rw-
    LOAD off    0x0000a600 vaddr 0x20006600 paddr 0x20006600 align 2**12
         filesz 0x00000000 memsz 0x00000200 flags rw-

Sections:
Idx Name            Size      VMA       LMA       File off  Algn  Flags
  0 .init           00000004  00000000  00000000  00001000  2**1  CONTENTS, ALLOC, LOAD, READONLY, CODE
  1 .highcodelalign 00000000  00000004  00000004  00009868  2**0  CONTENTS
  2 .highcode       00000788  20000000  00000004  00002000  2**1  CONTENTS, ALLOC, LOAD, READONLY, CODE
  3 .text           00006118  00000790  00000790  00002790  2**3  CONTENTS, ALLOC, LOAD, READONLY, CODE
  4 .fini           00000000  000068a8  000068a8  00009868  2**0  CONTENTS, ALLOC, LOAD, CODE
  5 .dalign         00000078  20000788  000068a8  00009788  2**0  ALLOC
  6 .dlalign        00000000  000068a8  000068a8  00009868  2**0  CONTENTS
  7 .data           00000068  20000800  000068a8  00009800  2**2  CONTENTS, ALLOC, LOAD, DATA
  8 .bss            000000b4  20000868  00006910  00009868  2**2  ALLOC
  9 .stack          00000200  20006600  20006600  0000a600  2**0  ALLOC
 10 .debug_info     0000d488  00000000  00000000  00009868  2**0  CONTENTS, READONLY, DEBUGGING
 11 .debug_abbrev   00001bdf  00000000  00000000  00016cf0  2**0  CONTENTS, READONLY, DEBUGGING
 12 .debug_loc      00002acc  00000000  00000000  000188cf  2**0  CONTENTS, READONLY, DEBUGGING
 13 .debug_aranges  00000368  00000000  00000000  0001b3a0  2**3  CONTENTS, READONLY, DEBUGGING
 14 .debug_ranges   00000ce0  00000000  00000000  0001b708  2**3  CONTENTS, READONLY, DEBUGGING
 15 .debug_line     0000afac  00000000  00000000  0001c3e8  2**0  CONTENTS, READONLY, DEBUGGING
 16 .debug_str      0000167d  00000000  00000000  00027394  2**0  CONTENTS, READONLY, DEBUGGING
 17 .comment        00000033  00000000  00000000  00028a11  2**0  CONTENTS, READONLY
 18 .debug_frame    0000118c  00000000  00000000  00028a44  2**2  CONTENTS, READONLY, DEBUGGING
 19 .stab           00000024  00000000  00000000  00029bd0  2**2  CONTENTS, READONLY, DEBUGGING
 20 .stabstr        0000004e  00000000  00000000  00029bf4  2**0  CONTENTS, READONLY, DEBUGGING
SYMBOL TABLE:
00000000 l    d  .init	00000000 .init
00000004 l    d  .highcodelalign	00000000 .highcodelalign
20000000 l    d  .highcode	00000000 .highcode
00000790 l    d  .text	00000000 .text
000068a8 l    d  .fini	00000000 .fini
20000788 l    d  .dalign	00000000 .dalign
000068a8 l    d  .dlalign	00000000 .dlalign
20000800 l    d  .data	00000000 .data
20000868 l    d  .bss	00000000 .bss
20006600 l    d  .stack	00000000 .stack
00000000 l    d  .debug_info	00000000 .debug_info
00000000 l    d  .debug_abbrev	00000000 .debug_abbrev
00000000 l    d  .debug_loc	00000000 .debug_loc
00000000 l    d  .debug_aranges	00000000 .debug_aranges
00000000 l    d  .debug_ranges	00000000 .debug_ranges
00000000 l    d  .debug_line	00000000 .debug_line
00000000 l    d  .debug_str	00000000 .debug_str
00000000 l    d  .comment	00000000 .comment
00000000 l    d  .debug_frame	00000000 .debug_frame
00000000 l    d  .stab	00000000 .stab
00000000 l    d  .stabstr	00000000 .stabstr
00000000 l    df *ABS*	00000000 ./Startup/startup_CH592.o
20000000 l       .highcode	00000000 _vector_base
00000000 l    df *ABS*	00000000 CH59x_sys.c
20000092 l     F .highcode	0000000e mDelayuS.constprop.0
00000000 l    df *ABS*	00000000 ISP583.c
20000372 l       .highcode	00000000 .loop18
20000380 l       .highcode	00000000 .loop29
2000038e l       .highcode	00000000 .loop40
2000061a l       .highcode	00000000 .loop402
00000000 l    df *ABS*	00000000 renderer.c
20000878 l     O .bss	00000040 projected
200008b8 l     O .bss	00000060 vertices
20000868 l     O .bss	00000004 buffer
00000000 l    df *ABS*	00000000 Main.c
00000000 l    df *ABS*	00000000 board.c
00000000 l    df *ABS*	00000000 CH59x_gpio.c
00000000 l    df *ABS*	00000000 CH59x_i2c.c
00000000 l    df *ABS*	00000000 CH59x_pwr.c
00000000 l    df *ABS*	00000000 CH59x_uart0.c
00000000 l    df *ABS*	00000000 s_cos.c
00000000 l    df *ABS*	00000000 s_sin.c
00000000 l    df *ABS*	00000000 e_rem_pio2.c
00006460 l     O .text	00000080 npio2_hw
000064e0 l     O .text	00000108 two_over_pi
00000000 l    df *ABS*	00000000 k_cos.c
00000000 l    df *ABS*	00000000 k_rem_pio2.c
00006628 l     O .text	00000040 PIo2
00006688 l     O .text	00000010 init_jk
00000000 l    df *ABS*	00000000 k_sin.c
00000000 l    df *ABS*	00000000 s_fabs.c
00000000 l    df *ABS*	00000000 s_floor.c
00000000 l    df *ABS*	00000000 s_scalbn.c
00000000 l    df *ABS*	00000000 s_copysign.c
00000000 l    df *ABS*	00000000 adddf3.c
00000000 l    df *ABS*	00000000 divdf3.c
00000000 l    df *ABS*	00000000 eqdf2.c
00000000 l    df *ABS*	00000000 gedf2.c
00000000 l    df *ABS*	00000000 muldf3.c
00000000 l    df *ABS*	00000000 subdf3.c
00000000 l    df *ABS*	00000000 fixdfsi.c
00000000 l    df *ABS*	00000000 floatsidf.c
00000000 l    df *ABS*	00000000 addsf3.c
00000000 l    df *ABS*	00000000 gesf2.c
00000000 l    df *ABS*	00000000 lesf2.c
00000000 l    df *ABS*	00000000 mulsf3.c
00000000 l    df *ABS*	00000000 subsf3.c
00000000 l    df *ABS*	00000000 fixsfsi.c
00000000 l    df *ABS*	00000000 floatsisf.c
00000000 l    df *ABS*	00000000 extendsfdf2.c
00000000 l    df *ABS*	00000000 truncdfsf2.c
00000000 l    df *ABS*	00000000 libgcc2.c
00000000 l    df *ABS*	00000000 malloc.c
00000000 l    df *ABS*	00000000 nano-mallocr.c
00000000 l    df *ABS*	00000000 rand.c
00000000 l    df *ABS*	00000000 sbrkr.c
00000000 l    df *ABS*	00000000 time.c
00000000 l    df *ABS*	00000000 gettimeofdayr.c
00000000 l    df *ABS*	00000000 mlock.c
00000000 l    df *ABS*	00000000 gettod.c
00000000 l    df *ABS*	00000000 sbrk.c
20000874 l     O .bss	00000004 heap_end.1518
00000000 l    df *ABS*	00000000 libgcc2.c
00000000 l    df *ABS*	00000000 impure.c
20000800 l     O .data	00000060 impure_data
00000000 l    df *ABS*	00000000 reent.c
000034a2 g     F .text	00000006 fabs
2000038e g     F .highcode	0000000e FLASH_ROM_OUT
00004430 g     F .text	0000006a .hidden __eqdf2
00006288 g     F .text	0000002a _gettimeofday_r
20001060 g       .data	00000000 __global_pointer$
2000032a g     F .highcode	00000010 mDelayuS
00006300 g     O .text	00000060 edges
200002aa  w    F .highcode	00000080 HardFault_Handler
20000090  w      .highcode	00000000 GPIOB_IRQHandler
000062b4 g     F .text	00000002 __malloc_unlock
20000090  w      .highcode	00000000 GPIOA_IRQHandler
20000090  w      .highcode	00000000 SysTick_Handler
20000090  w      .highcode	00000000 NMI_Handler
00005cb0 g     F .text	00000062 .hidden __fixsfsi
20000090  w      .highcode	00000000 UART1_IRQHandler
0000449a g     F .text	000000ae .hidden __gtdf2
00001fd8 g     F .text	00000130 PWR_DCDCCfg
20000918 g     O .bss	00000004 errno
000034a8 g     F .text	00000150 floor
20000868 g       .bss	00000000 _sbss
00000200 g       *ABS*	00000000 __stack_size
20000380 g     F .highcode	0000000e FLASH_ROM_IN
00005928 g     F .text	00000388 .hidden __subsf3
000012fa g     F .text	0000017c OLED_UpdateScreen
20000090  w      .highcode	00000000 UART0_IRQHandler
000022b0 g     F .text	00000464 __ieee754_rem_pio2
000008e2 g     F .text	00000a18 OLED_Init
000051a6 g     F .text	00000072 .hidden __floatsidf
00006064 g     F .text	0000000e malloc
00000004 g       .init	00000000 _einit
00002714 g     F .text	000002b8 __kernel_cos
00005608 g     F .text	0000008c .hidden __lesf2
20000090  w      .highcode	00000000 BB_IRQHandler
2000041c g     F .highcode	0000036a FLASH_EEPROM_CMD
20000090  w      .highcode	00000000 Break_Point_Handler
00001ce6 g     F .text	000000c8 GPIOB_ModeCfg
0000622a g     F .text	00000028 _sbrk_r
20000090  w      .highcode	00000000 TMR0_IRQHandler
20000360 g     F .highcode	00000012 FLASH_ROM_BEG
00003310 g     F .text	00000192 __kernel_sin
00005dd8 g     F .text	000000ac .hidden __extendsfdf2
0000374c g     F .text	00000730 .hidden __adddf3
2000033a g     F .highcode	00000026 mDelaymS
20000090  w      .highcode	00000000 Ecall_M_Mode_Handler
2000039c g     F .highcode	00000048 FLASH_ROM_ADDR
00001f94 g     F .text	0000000a I2C_SendData
000062c2 g     F .text	00000020 _sbrk
00001dae g     F .text	0000019a I2C_Init
000029cc g     F .text	00000944 __kernel_rem_pio2
20000090  w      .highcode	00000000 RTC_IRQHandler
2000091c g       .bss	00000000 _ebss
0000513e g     F .text	00000068 .hidden __fixdfsi
200003e4 g     F .highcode	00000038 FLASH_ROM_WAIT
00005582 g     F .text	00000086 .hidden __gtsf2
00001f48 g     F .text	00000026 I2C_GenerateSTART
2000091c g       .bss	00000000 end
20000090  w      .highcode	00000000 UART2_IRQHandler
20000090  w      .highcode	00000000 PWMX_IRQHandler
00005fee g     F .text	00000076 .hidden __clzsi2
00002198 g     F .text	0000008a cos
00001be4 g     F .text	00000022 DebugInit
00000000 g       .init	00000000 _start
00002222 g     F .text	0000008e sin
0000619e g     F .text	0000008c rand
00005d12 g     F .text	000000c6 .hidden __floatsisf
20000090  w      .highcode	00000000 ADC_IRQHandler
20000000 g       .highcode	00000000 _highcode_vma_start
00006360 g     O .text	00000060 original_vertices
20000090  w      .highcode	00000000 TMR2_IRQHandler
00001476 g     F .text	000000be OLED_DrawLine
0000214c g     F .text	0000004c UART0_DefInit
20000800 g       .data	00000000 _data_vma
200000a0 g     F .highcode	000001b2 SetSysClock
20000090  w      .highcode	00000000 USB_IRQHandler
00003e7c g     F .text	000005b4 .hidden __divdf3
00004548 g     F .text	000004b8 .hidden __muldf3
00001f9e g     F .text	00000018 I2C_Send7bitAddress
000062b2 g     F .text	00000002 __malloc_lock
20000090  w      .highcode	00000000 I2C_IRQHandler
0000083a g     F .text	000000a8 memset
000017f6 g     F .text	000003ee main
00006140 g     F .text	0000005e srand
00005608 g     F .text	0000008c .hidden __ltsf2
00005e84 g     F .text	0000016a .hidden __truncdfsf2
00006072 g     F .text	000000ce _malloc_r
00006252 g     F .text	00000036 time
00001534 g     F .text	000002c2 OLED_Draw3DCube
00005694 g     F .text	00000294 .hidden __mulsf3
00000004 g       .highcodelalign	00000000 _highcode_lma
00003736 g     F .text	00000016 copysign
00004430 g     F .text	0000006a .hidden __nedf2
000067a8 g     O .text	00000100 .hidden __clz_tab
20000090  w      .highcode	00000000 LLE_IRQHandler
00000000 g       .init	00000000 _sinit
00005582 g     F .text	00000086 .hidden __gesf2
20000860 g     O .data	00000004 _impure_ptr
000035f8 g     F .text	0000013e scalbn
20000090  w      .highcode	00000000 WDOG_BAT_IRQHandler
20000090  w      .highcode	00000000 Ecall_U_Mode_Handler
20000090  w      .highcode	00000000 TMR3_IRQHandler
00001c06 g     F .text	00000018 led_init
20006800 g       .stack	00000000 _eusrstack
20000090  w      .highcode	00000000 SW_Handler
00001c1e g     F .text	000000c8 GPIOA_ModeCfg
00002108 g     F .text	00000044 GetSysClock
20000868 g       .data	00000000 _edata
20000090  w      .highcode	00000000 SPI0_IRQHandler
20000788 g       .highcode	00000000 _highcode_vma_end
000068a8 g       .dlalign	00000000 _data_lma
000062b6 g     F .text	0000000c _gettimeofday
00000790  w      .text	00000000 handle_reset
0000449a g     F .text	000000ae .hidden __gedf2
20000090  w      .highcode	00000000 UART3_IRQHandler
20000870 g     O .bss	00000004 __malloc_sbrk_start
00001fb6 g     F .text	00000022 I2C_CheckEvent
00001f6e g     F .text	00000026 I2C_GenerateSTOP
20000372 g     F .highcode	0000000e FLASH_ROM_END
2000086c g     O .bss	00000004 __malloc_free_list
00004a00 g     F .text	0000073e .hidden __subdf3
20000090  w      .highcode	00000000 TMR1_IRQHandler
00005218 g     F .text	0000036a .hidden __addsf3
20000252 g     F .highcode	00000058 SYS_ResetExecute



Disassembly of section .init:

00000000 <_sinit>:
_start():
C:\MRS_DATA\workspace\CH592F_SSD1306\obj/../Startup/startup_CH592.S:17

	.section	.init,"ax",@progbits
	.global	_start
	.align	1
_start:
	j	handle_reset
   0:	7900006f          	j	790 <handle_reset>

Disassembly of section .highcode:

20000000 <_highcode_vma_start>:
	...
_vector_base():
20000008:	0090                	addi	a2,sp,64
2000000a:	2000                	fld	fs0,0(s0)
2000000c:	02aa                	slli	t0,t0,0xa
2000000e:	2000                	fld	fs0,0(s0)
20000010:	bda9                	j	1ffffe6a <_data_lma+0x1fff95c2>
20000012:	f5f9                	bnez	a1,1fffffe0 <_data_lma+0x1fff9738>
20000014:	0090                	addi	a2,sp,64
20000016:	2000                	fld	fs0,0(s0)
	...
20000020:	0090                	addi	a2,sp,64
20000022:	2000                	fld	fs0,0(s0)
20000024:	0090                	addi	a2,sp,64
20000026:	2000                	fld	fs0,0(s0)
	...
20000030:	0090                	addi	a2,sp,64
20000032:	2000                	fld	fs0,0(s0)
20000034:	0000                	unimp
20000036:	0000                	unimp
20000038:	0090                	addi	a2,sp,64
2000003a:	2000                	fld	fs0,0(s0)
2000003c:	0000                	unimp
2000003e:	0000                	unimp
20000040:	0090                	addi	a2,sp,64
20000042:	2000                	fld	fs0,0(s0)
20000044:	0090                	addi	a2,sp,64
20000046:	2000                	fld	fs0,0(s0)
20000048:	0090                	addi	a2,sp,64
2000004a:	2000                	fld	fs0,0(s0)
2000004c:	0090                	addi	a2,sp,64
2000004e:	2000                	fld	fs0,0(s0)
20000050:	0090                	addi	a2,sp,64
20000052:	2000                	fld	fs0,0(s0)
20000054:	0090                	addi	a2,sp,64
20000056:	2000                	fld	fs0,0(s0)
20000058:	0090                	addi	a2,sp,64
2000005a:	2000                	fld	fs0,0(s0)
2000005c:	0000                	unimp
2000005e:	0000                	unimp
20000060:	0090                	addi	a2,sp,64
20000062:	2000                	fld	fs0,0(s0)
20000064:	0090                	addi	a2,sp,64
20000066:	2000                	fld	fs0,0(s0)
20000068:	0090                	addi	a2,sp,64
2000006a:	2000                	fld	fs0,0(s0)
2000006c:	0090                	addi	a2,sp,64
2000006e:	2000                	fld	fs0,0(s0)
20000070:	0090                	addi	a2,sp,64
20000072:	2000                	fld	fs0,0(s0)
20000074:	0090                	addi	a2,sp,64
20000076:	2000                	fld	fs0,0(s0)
20000078:	0090                	addi	a2,sp,64
2000007a:	2000                	fld	fs0,0(s0)
2000007c:	0090                	addi	a2,sp,64
2000007e:	2000                	fld	fs0,0(s0)
20000080:	0090                	addi	a2,sp,64
20000082:	2000                	fld	fs0,0(s0)
20000084:	0090                	addi	a2,sp,64
20000086:	2000                	fld	fs0,0(s0)
20000088:	0090                	addi	a2,sp,64
2000008a:	2000                	fld	fs0,0(s0)
2000008c:	0090                	addi	a2,sp,64
2000008e:	2000                	fld	fs0,0(s0)

20000090 <ADC_IRQHandler>:
GPIOB_IRQHandler():
C:\MRS_DATA\workspace\CH592F_SSD1306\obj/../Startup/startup_CH592.S:119
TMR3_IRQHandler:
UART2_IRQHandler:
UART3_IRQHandler:
WDOG_BAT_IRQHandler: 
1:  
	j 1b
20000090:	a001                	j	20000090 <ADC_IRQHandler>

20000092 <mDelayuS.constprop.0>:
mDelayuS():
C:\MRS_DATA\workspace\CH592F_SSD1306\obj/../StdPeriphDriver/CH59x_sys.c:289
 * @param   t       - 时间参数
 *
 * @return  none
 */
__HIGH_CODE
void mDelayuS(uint16_t t)
20000092:	6791                	lui	a5,0x4
20000094:	a9878793          	addi	a5,a5,-1384 # 3a98 <__adddf3+0x34c>
C:\MRS_DATA\workspace\CH592F_SSD1306\obj/../StdPeriphDriver/CH59x_sys.c:319
#else
    i = t << 1;
#endif
    do
    {
        __nop();
20000098:	0001                	nop
2000009a:	17fd                	addi	a5,a5,-1
C:\MRS_DATA\workspace\CH592F_SSD1306\obj/../StdPeriphDriver/CH59x_sys.c:320
    } while(--i);
2000009c:	fff5                	bnez	a5,20000098 <mDelayuS.constprop.0+0x6>
C:\MRS_DATA\workspace\CH592F_SSD1306\obj/../StdPeriphDriver/CH59x_sys.c:321
}
2000009e:	8082                	ret

200000a0 <SetSysClock>:
SetSysClock():
C:\MRS_DATA\workspace\CH592F_SSD1306\obj/../StdPeriphDriver/CH59x_sys.c:26
{
200000a0:	1101                	addi	sp,sp,-32
__risc_v_disable_irq():
C:\MRS_DATA\workspace\CH592F_SSD1306\RVMSIS/core_riscv.h:130
 */
__attribute__((always_inline)) RV_STATIC_INLINE uint32_t __risc_v_disable_irq(void)
{
  uint32_t result;

  __asm volatile ("csrrc %0, 0x800, %1" : \
200000a2:	08800713          	li	a4,136
200000a6:	800737f3          	csrrc	a5,0x800,a4
C:\MRS_DATA\workspace\CH592F_SSD1306\RVMSIS/core_riscv.h:132
          "=r"(result): "r"(0x88) : "memory");
  return result & 0x88;
200000aa:	0887f793          	andi	a5,a5,136
SetSysClock():
C:\MRS_DATA\workspace\CH592F_SSD1306\obj/../StdPeriphDriver/CH59x_sys.c:27
    sys_safe_access_enable();
200000ae:	c23e                	sw	a5,4(sp)
200000b0:	0001                	nop
200000b2:	0001                	nop
200000b4:	400017b7          	lui	a5,0x40001
200000b8:	05700593          	li	a1,87
200000bc:	04b78023          	sb	a1,64(a5) # 40001040 <_eusrstack+0x1fffa840>
200000c0:	fa800613          	li	a2,-88
200000c4:	04c78023          	sb	a2,64(a5)
200000c8:	0001                	nop
200000ca:	0001                	nop
C:\MRS_DATA\workspace\CH592F_SSD1306\obj/../StdPeriphDriver/CH59x_sys.c:28
    R8_PLL_CONFIG &= ~(1 << 5); //
200000cc:	04b7c683          	lbu	a3,75(a5)
200000d0:	0df6f693          	andi	a3,a3,223
200000d4:	04d785a3          	sb	a3,75(a5)
C:\MRS_DATA\workspace\CH592F_SSD1306\obj/../StdPeriphDriver/CH59x_sys.c:29
    sys_safe_access_disable();
200000d8:	04078023          	sb	zero,64(a5)
200000dc:	4692                	lw	a3,4(sp)
__risc_v_enable_irq():
C:\MRS_DATA\workspace\CH592F_SSD1306\RVMSIS/core_riscv.h:114
  __asm volatile ("csrrs %0, 0x800, %1" : \
200000de:	8006a6f3          	csrrs	a3,0x800,a3
SetSysClock():
C:\MRS_DATA\workspace\CH592F_SSD1306\obj/../StdPeriphDriver/CH59x_sys.c:29
200000e2:	0001                	nop
200000e4:	0001                	nop
C:\MRS_DATA\workspace\CH592F_SSD1306\obj/../StdPeriphDriver/CH59x_sys.c:30
    if(sc & 0x20)  // HSE div
200000e6:	02057693          	andi	a3,a0,32
200000ea:	ced5                	beqz	a3,200001a6 <SetSysClock+0x106>
__risc_v_disable_irq():
C:\MRS_DATA\workspace\CH592F_SSD1306\RVMSIS/core_riscv.h:130
  __asm volatile ("csrrc %0, 0x800, %1" : \
200000ec:	800736f3          	csrrc	a3,0x800,a4
C:\MRS_DATA\workspace\CH592F_SSD1306\RVMSIS/core_riscv.h:132
  return result & 0x88;
200000f0:	0886f693          	andi	a3,a3,136
SetSysClock():
C:\MRS_DATA\workspace\CH592F_SSD1306\obj/../StdPeriphDriver/CH59x_sys.c:32
        sys_safe_access_enable();
200000f4:	c436                	sw	a3,8(sp)
200000f6:	0001                	nop
200000f8:	0001                	nop
200000fa:	04b78023          	sb	a1,64(a5)
200000fe:	04c78023          	sb	a2,64(a5)
20000102:	0001                	nop
20000104:	0001                	nop
C:\MRS_DATA\workspace\CH592F_SSD1306\obj/../StdPeriphDriver/CH59x_sys.c:33
        R32_CLK_SYS_CFG = (0 << 6) | (sc & 0x1f) | RB_TX_32M_PWR_EN | RB_PLL_PWR_EN;
20000106:	001406b7          	lui	a3,0x140
2000010a:	897d                	andi	a0,a0,31
2000010c:	8d55                	or	a0,a0,a3
2000010e:	c788                	sw	a0,8(a5)
C:\MRS_DATA\workspace\CH592F_SSD1306\obj/../StdPeriphDriver/CH59x_sys.c:34
        __nop();
20000110:	0001                	nop
C:\MRS_DATA\workspace\CH592F_SSD1306\obj/../StdPeriphDriver/CH59x_sys.c:35
        __nop();
20000112:	0001                	nop
C:\MRS_DATA\workspace\CH592F_SSD1306\obj/../StdPeriphDriver/CH59x_sys.c:36
        __nop();
20000114:	0001                	nop
C:\MRS_DATA\workspace\CH592F_SSD1306\obj/../StdPeriphDriver/CH59x_sys.c:37
        __nop();
20000116:	0001                	nop
C:\MRS_DATA\workspace\CH592F_SSD1306\obj/../StdPeriphDriver/CH59x_sys.c:38
        sys_safe_access_disable();
20000118:	04078023          	sb	zero,64(a5)
2000011c:	46a2                	lw	a3,8(sp)
__risc_v_enable_irq():
C:\MRS_DATA\workspace\CH592F_SSD1306\RVMSIS/core_riscv.h:114
  __asm volatile ("csrrs %0, 0x800, %1" : \
2000011e:	8006a6f3          	csrrs	a3,0x800,a3
SetSysClock():
C:\MRS_DATA\workspace\CH592F_SSD1306\obj/../StdPeriphDriver/CH59x_sys.c:38
20000122:	0001                	nop
20000124:	0001                	nop
__risc_v_disable_irq():
C:\MRS_DATA\workspace\CH592F_SSD1306\RVMSIS/core_riscv.h:130
  __asm volatile ("csrrc %0, 0x800, %1" : \
20000126:	80073773          	csrrc	a4,0x800,a4
C:\MRS_DATA\workspace\CH592F_SSD1306\RVMSIS/core_riscv.h:132
  return result & 0x88;
2000012a:	08877713          	andi	a4,a4,136
SetSysClock():
C:\MRS_DATA\workspace\CH592F_SSD1306\obj/../StdPeriphDriver/CH59x_sys.c:39
        sys_safe_access_enable();
2000012e:	c63a                	sw	a4,12(sp)
20000130:	0001                	nop
20000132:	0001                	nop
20000134:	04b78023          	sb	a1,64(a5)
20000138:	04c78023          	sb	a2,64(a5)
2000013c:	0001                	nop
2000013e:	0001                	nop
C:\MRS_DATA\workspace\CH592F_SSD1306\obj/../StdPeriphDriver/CH59x_sys.c:40
        SAFEOPERATE;
20000140:	0001                	nop
20000142:	0001                	nop
C:\MRS_DATA\workspace\CH592F_SSD1306\obj/../StdPeriphDriver/CH59x_sys.c:41
        R8_FLASH_CFG = 0X51;
20000144:	40002737          	lui	a4,0x40002
20000148:	05100693          	li	a3,81
2000014c:	80d703a3          	sb	a3,-2041(a4) # 40001807 <_eusrstack+0x1fffb007>
C:\MRS_DATA\workspace\CH592F_SSD1306\obj/../StdPeriphDriver/CH59x_sys.c:42
        sys_safe_access_disable();
20000150:	04078023          	sb	zero,64(a5)
20000154:	47b2                	lw	a5,12(sp)
__risc_v_enable_irq():
C:\MRS_DATA\workspace\CH592F_SSD1306\RVMSIS/core_riscv.h:114
  __asm volatile ("csrrs %0, 0x800, %1" : \
20000156:	8007a7f3          	csrrs	a5,0x800,a5
SetSysClock():
C:\MRS_DATA\workspace\CH592F_SSD1306\obj/../StdPeriphDriver/CH59x_sys.c:42
2000015a:	0001                	nop
2000015c:	0001                	nop
__risc_v_disable_irq():
C:\MRS_DATA\workspace\CH592F_SSD1306\RVMSIS/core_riscv.h:130
  __asm volatile ("csrrc %0, 0x800, %1" : \
2000015e:	08800793          	li	a5,136
20000162:	8007b7f3          	csrrc	a5,0x800,a5
C:\MRS_DATA\workspace\CH592F_SSD1306\RVMSIS/core_riscv.h:132
  return result & 0x88;
20000166:	0887f793          	andi	a5,a5,136
SetSysClock():
C:\MRS_DATA\workspace\CH592F_SSD1306\obj/../StdPeriphDriver/CH59x_sys.c:65
    sys_safe_access_enable();
2000016a:	ce3e                	sw	a5,28(sp)
2000016c:	0001                	nop
2000016e:	0001                	nop
20000170:	400017b7          	lui	a5,0x40001
20000174:	05700713          	li	a4,87
20000178:	04e78023          	sb	a4,64(a5) # 40001040 <_eusrstack+0x1fffa840>
2000017c:	fa800713          	li	a4,-88
20000180:	04e78023          	sb	a4,64(a5)
20000184:	0001                	nop
20000186:	0001                	nop
C:\MRS_DATA\workspace\CH592F_SSD1306\obj/../StdPeriphDriver/CH59x_sys.c:66
    R8_PLL_CONFIG |= 1 << 7;
20000188:	04b7c703          	lbu	a4,75(a5)
2000018c:	08076713          	ori	a4,a4,128
20000190:	04e785a3          	sb	a4,75(a5)
C:\MRS_DATA\workspace\CH592F_SSD1306\obj/../StdPeriphDriver/CH59x_sys.c:67
    sys_safe_access_disable();
20000194:	04078023          	sb	zero,64(a5)
20000198:	47f2                	lw	a5,28(sp)
__risc_v_enable_irq():
C:\MRS_DATA\workspace\CH592F_SSD1306\RVMSIS/core_riscv.h:114
  __asm volatile ("csrrs %0, 0x800, %1" : \
2000019a:	8007a7f3          	csrrs	a5,0x800,a5
SetSysClock():
C:\MRS_DATA\workspace\CH592F_SSD1306\obj/../StdPeriphDriver/CH59x_sys.c:67
2000019e:	0001                	nop
200001a0:	0001                	nop
C:\MRS_DATA\workspace\CH592F_SSD1306\obj/../StdPeriphDriver/CH59x_sys.c:68
}
200001a2:	6105                	addi	sp,sp,32
200001a4:	8082                	ret
C:\MRS_DATA\workspace\CH592F_SSD1306\obj/../StdPeriphDriver/CH59x_sys.c:45
    else if(sc & 0x40) // PLL div
200001a6:	04057693          	andi	a3,a0,64
200001aa:	cabd                	beqz	a3,20000220 <SetSysClock+0x180>
__risc_v_disable_irq():
C:\MRS_DATA\workspace\CH592F_SSD1306\RVMSIS/core_riscv.h:130
  __asm volatile ("csrrc %0, 0x800, %1" : \
200001ac:	800736f3          	csrrc	a3,0x800,a4
C:\MRS_DATA\workspace\CH592F_SSD1306\RVMSIS/core_riscv.h:132
  return result & 0x88;
200001b0:	0886f693          	andi	a3,a3,136
SetSysClock():
C:\MRS_DATA\workspace\CH592F_SSD1306\obj/../StdPeriphDriver/CH59x_sys.c:47
        sys_safe_access_enable();
200001b4:	c836                	sw	a3,16(sp)
200001b6:	0001                	nop
200001b8:	0001                	nop
200001ba:	04b78023          	sb	a1,64(a5)
200001be:	04c78023          	sb	a2,64(a5)
200001c2:	0001                	nop
200001c4:	0001                	nop
C:\MRS_DATA\workspace\CH592F_SSD1306\obj/../StdPeriphDriver/CH59x_sys.c:48
        R32_CLK_SYS_CFG = (1 << 6) | (sc & 0x1f) | RB_TX_32M_PWR_EN | RB_PLL_PWR_EN;
200001c6:	001406b7          	lui	a3,0x140
200001ca:	04068693          	addi	a3,a3,64 # 140040 <_data_lma+0x139798>
200001ce:	897d                	andi	a0,a0,31
200001d0:	8d55                	or	a0,a0,a3
200001d2:	c788                	sw	a0,8(a5)
C:\MRS_DATA\workspace\CH592F_SSD1306\obj/../StdPeriphDriver/CH59x_sys.c:49
        __nop();
200001d4:	0001                	nop
C:\MRS_DATA\workspace\CH592F_SSD1306\obj/../StdPeriphDriver/CH59x_sys.c:50
        __nop();
200001d6:	0001                	nop
C:\MRS_DATA\workspace\CH592F_SSD1306\obj/../StdPeriphDriver/CH59x_sys.c:51
        __nop();
200001d8:	0001                	nop
C:\MRS_DATA\workspace\CH592F_SSD1306\obj/../StdPeriphDriver/CH59x_sys.c:52
        __nop();
200001da:	0001                	nop
C:\MRS_DATA\workspace\CH592F_SSD1306\obj/../StdPeriphDriver/CH59x_sys.c:53
        sys_safe_access_disable();
200001dc:	04078023          	sb	zero,64(a5)
200001e0:	46c2                	lw	a3,16(sp)
__risc_v_enable_irq():
C:\MRS_DATA\workspace\CH592F_SSD1306\RVMSIS/core_riscv.h:114
  __asm volatile ("csrrs %0, 0x800, %1" : \
200001e2:	8006a6f3          	csrrs	a3,0x800,a3
SetSysClock():
C:\MRS_DATA\workspace\CH592F_SSD1306\obj/../StdPeriphDriver/CH59x_sys.c:53
200001e6:	0001                	nop
200001e8:	0001                	nop
__risc_v_disable_irq():
C:\MRS_DATA\workspace\CH592F_SSD1306\RVMSIS/core_riscv.h:130
  __asm volatile ("csrrc %0, 0x800, %1" : \
200001ea:	80073773          	csrrc	a4,0x800,a4
C:\MRS_DATA\workspace\CH592F_SSD1306\RVMSIS/core_riscv.h:132
  return result & 0x88;
200001ee:	08877713          	andi	a4,a4,136
SetSysClock():
C:\MRS_DATA\workspace\CH592F_SSD1306\obj/../StdPeriphDriver/CH59x_sys.c:54
        sys_safe_access_enable();
200001f2:	ca3a                	sw	a4,20(sp)
200001f4:	0001                	nop
200001f6:	0001                	nop
200001f8:	04b78023          	sb	a1,64(a5)
200001fc:	04c78023          	sb	a2,64(a5)
20000200:	0001                	nop
20000202:	0001                	nop
C:\MRS_DATA\workspace\CH592F_SSD1306\obj/../StdPeriphDriver/CH59x_sys.c:55
        R8_FLASH_CFG = 0X52;
20000204:	40002737          	lui	a4,0x40002
20000208:	05200693          	li	a3,82
2000020c:	80d703a3          	sb	a3,-2041(a4) # 40001807 <_eusrstack+0x1fffb007>
C:\MRS_DATA\workspace\CH592F_SSD1306\obj/../StdPeriphDriver/CH59x_sys.c:56
        sys_safe_access_disable();
20000210:	04078023          	sb	zero,64(a5)
20000214:	47d2                	lw	a5,20(sp)
__risc_v_enable_irq():
C:\MRS_DATA\workspace\CH592F_SSD1306\RVMSIS/core_riscv.h:114
  __asm volatile ("csrrs %0, 0x800, %1" : \
20000216:	8007a7f3          	csrrs	a5,0x800,a5
SetSysClock():
C:\MRS_DATA\workspace\CH592F_SSD1306\obj/../StdPeriphDriver/CH59x_sys.c:56
2000021a:	0001                	nop
2000021c:	0001                	nop
2000021e:	b781                	j	2000015e <SetSysClock+0xbe>
__risc_v_disable_irq():
C:\MRS_DATA\workspace\CH592F_SSD1306\RVMSIS/core_riscv.h:130
  __asm volatile ("csrrc %0, 0x800, %1" : \
20000220:	80073773          	csrrc	a4,0x800,a4
C:\MRS_DATA\workspace\CH592F_SSD1306\RVMSIS/core_riscv.h:132
  return result & 0x88;
20000224:	08877713          	andi	a4,a4,136
SetSysClock():
C:\MRS_DATA\workspace\CH592F_SSD1306\obj/../StdPeriphDriver/CH59x_sys.c:60
        sys_safe_access_enable();
20000228:	cc3a                	sw	a4,24(sp)
2000022a:	0001                	nop
2000022c:	0001                	nop
2000022e:	04b78023          	sb	a1,64(a5)
20000232:	04c78023          	sb	a2,64(a5)
20000236:	0001                	nop
20000238:	0001                	nop
C:\MRS_DATA\workspace\CH592F_SSD1306\obj/../StdPeriphDriver/CH59x_sys.c:61
        R32_CLK_SYS_CFG |= RB_CLK_SYS_MOD;
2000023a:	4798                	lw	a4,8(a5)
2000023c:	0c076713          	ori	a4,a4,192
20000240:	c798                	sw	a4,8(a5)
C:\MRS_DATA\workspace\CH592F_SSD1306\obj/../StdPeriphDriver/CH59x_sys.c:62
        sys_safe_access_disable();
20000242:	04078023          	sb	zero,64(a5)
20000246:	47e2                	lw	a5,24(sp)
__risc_v_enable_irq():
C:\MRS_DATA\workspace\CH592F_SSD1306\RVMSIS/core_riscv.h:114
  __asm volatile ("csrrs %0, 0x800, %1" : \
20000248:	8007a7f3          	csrrs	a5,0x800,a5
SetSysClock():
C:\MRS_DATA\workspace\CH592F_SSD1306\obj/../StdPeriphDriver/CH59x_sys.c:62
2000024c:	0001                	nop
2000024e:	0001                	nop
20000250:	b739                	j	2000015e <SetSysClock+0xbe>

20000252 <SYS_ResetExecute>:
SYS_ResetExecute():
C:\MRS_DATA\workspace\CH592F_SSD1306\obj/../StdPeriphDriver/CH59x_sys.c:130
{
20000252:	1101                	addi	sp,sp,-32
C:\MRS_DATA\workspace\CH592F_SSD1306\obj/../StdPeriphDriver/CH59x_sys.c:131
    FLASH_ROM_SW_RESET();
20000254:	4681                	li	a3,0
20000256:	4601                	li	a2,0
20000258:	4581                	li	a1,0
2000025a:	4511                	li	a0,4
C:\MRS_DATA\workspace\CH592F_SSD1306\obj/../StdPeriphDriver/CH59x_sys.c:130
{
2000025c:	ce06                	sw	ra,28(sp)
C:\MRS_DATA\workspace\CH592F_SSD1306\obj/../StdPeriphDriver/CH59x_sys.c:131
    FLASH_ROM_SW_RESET();
2000025e:	2a7d                	jal	2000041c <FLASH_EEPROM_CMD>
__risc_v_disable_irq():
C:\MRS_DATA\workspace\CH592F_SSD1306\RVMSIS/core_riscv.h:130
  __asm volatile ("csrrc %0, 0x800, %1" : \
20000260:	08800793          	li	a5,136
20000264:	8007b7f3          	csrrc	a5,0x800,a5
C:\MRS_DATA\workspace\CH592F_SSD1306\RVMSIS/core_riscv.h:132
  return result & 0x88;
20000268:	0887f793          	andi	a5,a5,136
SYS_ResetExecute():
C:\MRS_DATA\workspace\CH592F_SSD1306\obj/../StdPeriphDriver/CH59x_sys.c:132
    sys_safe_access_enable();
2000026c:	c63e                	sw	a5,12(sp)
2000026e:	0001                	nop
20000270:	0001                	nop
20000272:	400017b7          	lui	a5,0x40001
20000276:	05700713          	li	a4,87
2000027a:	04e78023          	sb	a4,64(a5) # 40001040 <_eusrstack+0x1fffa840>
2000027e:	fa800713          	li	a4,-88
20000282:	04e78023          	sb	a4,64(a5)
20000286:	0001                	nop
20000288:	0001                	nop
C:\MRS_DATA\workspace\CH592F_SSD1306\obj/../StdPeriphDriver/CH59x_sys.c:133
    R8_RST_WDOG_CTRL |= RB_SOFTWARE_RESET;
2000028a:	0467c703          	lbu	a4,70(a5)
2000028e:	00176713          	ori	a4,a4,1
20000292:	04e78323          	sb	a4,70(a5)
C:\MRS_DATA\workspace\CH592F_SSD1306\obj/../StdPeriphDriver/CH59x_sys.c:134
    sys_safe_access_disable();
20000296:	04078023          	sb	zero,64(a5)
2000029a:	47b2                	lw	a5,12(sp)
__risc_v_enable_irq():
C:\MRS_DATA\workspace\CH592F_SSD1306\RVMSIS/core_riscv.h:114
  __asm volatile ("csrrs %0, 0x800, %1" : \
2000029c:	8007a7f3          	csrrs	a5,0x800,a5
SYS_ResetExecute():
C:\MRS_DATA\workspace\CH592F_SSD1306\obj/../StdPeriphDriver/CH59x_sys.c:134
200002a0:	0001                	nop
200002a2:	0001                	nop
C:\MRS_DATA\workspace\CH592F_SSD1306\obj/../StdPeriphDriver/CH59x_sys.c:135
}
200002a4:	40f2                	lw	ra,28(sp)
200002a6:	6105                	addi	sp,sp,32
200002a8:	8082                	ret

200002aa <HardFault_Handler>:
HardFault_Handler():
C:\MRS_DATA\workspace\CH592F_SSD1306\obj/../StdPeriphDriver/CH59x_sys.c:268
{
200002aa:	1141                	addi	sp,sp,-16
C:\MRS_DATA\workspace\CH592F_SSD1306\obj/../StdPeriphDriver/CH59x_sys.c:269
    FLASH_ROM_SW_RESET();
200002ac:	4681                	li	a3,0
200002ae:	4601                	li	a2,0
200002b0:	4581                	li	a1,0
200002b2:	4511                	li	a0,4
200002b4:	22a5                	jal	2000041c <FLASH_EEPROM_CMD>
__risc_v_disable_irq():
C:\MRS_DATA\workspace\CH592F_SSD1306\RVMSIS/core_riscv.h:130
  __asm volatile ("csrrc %0, 0x800, %1" : \
200002b6:	08800713          	li	a4,136
200002ba:	800737f3          	csrrc	a5,0x800,a4
C:\MRS_DATA\workspace\CH592F_SSD1306\RVMSIS/core_riscv.h:132
  return result & 0x88;
200002be:	0887f793          	andi	a5,a5,136
HardFault_Handler():
C:\MRS_DATA\workspace\CH592F_SSD1306\obj/../StdPeriphDriver/CH59x_sys.c:270
    sys_safe_access_enable();
200002c2:	c43e                	sw	a5,8(sp)
200002c4:	0001                	nop
200002c6:	0001                	nop
200002c8:	400017b7          	lui	a5,0x40001
200002cc:	05700613          	li	a2,87
200002d0:	04c78023          	sb	a2,64(a5) # 40001040 <_eusrstack+0x1fffa840>
200002d4:	fa800693          	li	a3,-88
200002d8:	04d78023          	sb	a3,64(a5)
200002dc:	0001                	nop
200002de:	0001                	nop
C:\MRS_DATA\workspace\CH592F_SSD1306\obj/../StdPeriphDriver/CH59x_sys.c:271
    R16_INT32K_TUNE = 0xFFFF;
200002e0:	55fd                	li	a1,-1
200002e2:	02b79623          	sh	a1,44(a5)
C:\MRS_DATA\workspace\CH592F_SSD1306\obj/../StdPeriphDriver/CH59x_sys.c:272
    sys_safe_access_disable();
200002e6:	04078023          	sb	zero,64(a5)
200002ea:	45a2                	lw	a1,8(sp)
__risc_v_enable_irq():
C:\MRS_DATA\workspace\CH592F_SSD1306\RVMSIS/core_riscv.h:114
  __asm volatile ("csrrs %0, 0x800, %1" : \
200002ec:	8005a5f3          	csrrs	a1,0x800,a1
HardFault_Handler():
C:\MRS_DATA\workspace\CH592F_SSD1306\obj/../StdPeriphDriver/CH59x_sys.c:272
200002f0:	0001                	nop
200002f2:	0001                	nop
__risc_v_disable_irq():
C:\MRS_DATA\workspace\CH592F_SSD1306\RVMSIS/core_riscv.h:130
  __asm volatile ("csrrc %0, 0x800, %1" : \
200002f4:	80073773          	csrrc	a4,0x800,a4
C:\MRS_DATA\workspace\CH592F_SSD1306\RVMSIS/core_riscv.h:132
  return result & 0x88;
200002f8:	08877713          	andi	a4,a4,136
HardFault_Handler():
C:\MRS_DATA\workspace\CH592F_SSD1306\obj/../StdPeriphDriver/CH59x_sys.c:273
    sys_safe_access_enable();
200002fc:	c63a                	sw	a4,12(sp)
200002fe:	0001                	nop
20000300:	0001                	nop
20000302:	04c78023          	sb	a2,64(a5)
20000306:	04d78023          	sb	a3,64(a5)
2000030a:	0001                	nop
2000030c:	0001                	nop
C:\MRS_DATA\workspace\CH592F_SSD1306\obj/../StdPeriphDriver/CH59x_sys.c:274
    R8_RST_WDOG_CTRL |= RB_SOFTWARE_RESET;
2000030e:	0467c703          	lbu	a4,70(a5)
20000312:	00176713          	ori	a4,a4,1
20000316:	04e78323          	sb	a4,70(a5)
C:\MRS_DATA\workspace\CH592F_SSD1306\obj/../StdPeriphDriver/CH59x_sys.c:275
    sys_safe_access_disable();
2000031a:	04078023          	sb	zero,64(a5)
2000031e:	47b2                	lw	a5,12(sp)
__risc_v_enable_irq():
C:\MRS_DATA\workspace\CH592F_SSD1306\RVMSIS/core_riscv.h:114
  __asm volatile ("csrrs %0, 0x800, %1" : \
20000320:	8007a7f3          	csrrs	a5,0x800,a5
HardFault_Handler():
C:\MRS_DATA\workspace\CH592F_SSD1306\obj/../StdPeriphDriver/CH59x_sys.c:275
20000324:	0001                	nop
20000326:	0001                	nop
C:\MRS_DATA\workspace\CH592F_SSD1306\obj/../StdPeriphDriver/CH59x_sys.c:276 (discriminator 1)
    while(1);
20000328:	a001                	j	20000328 <HardFault_Handler+0x7e>

2000032a <mDelayuS>:
mDelayuS():
C:\MRS_DATA\workspace\CH592F_SSD1306\obj/../StdPeriphDriver/CH59x_sys.c:295
    i = t * 15;
2000032a:	00451793          	slli	a5,a0,0x4
2000032e:	40a78533          	sub	a0,a5,a0
C:\MRS_DATA\workspace\CH592F_SSD1306\obj/../StdPeriphDriver/CH59x_sys.c:319 (discriminator 1)
        __nop();
20000332:	0001                	nop
C:\MRS_DATA\workspace\CH592F_SSD1306\obj/../StdPeriphDriver/CH59x_sys.c:320 (discriminator 1)
    } while(--i);
20000334:	157d                	addi	a0,a0,-1
20000336:	fd75                	bnez	a0,20000332 <mDelayuS+0x8>
C:\MRS_DATA\workspace\CH592F_SSD1306\obj/../StdPeriphDriver/CH59x_sys.c:321
}
20000338:	8082                	ret

2000033a <mDelaymS>:
mDelaymS():
C:\MRS_DATA\workspace\CH592F_SSD1306\obj/../StdPeriphDriver/CH59x_sys.c:337
__HIGH_CODE
void mDelaymS(uint16_t t)
{
    uint16_t i;

    for(i = 0; i < t; i++)
2000033a:	c115                	beqz	a0,2000035e <mDelaymS+0x24>
C:\MRS_DATA\workspace\CH592F_SSD1306\obj/../StdPeriphDriver/CH59x_sys.c:334
{
2000033c:	1141                	addi	sp,sp,-16
2000033e:	c422                	sw	s0,8(sp)
20000340:	c226                	sw	s1,4(sp)
20000342:	c606                	sw	ra,12(sp)
20000344:	84aa                	mv	s1,a0
C:\MRS_DATA\workspace\CH592F_SSD1306\obj/../StdPeriphDriver/CH59x_sys.c:337
    for(i = 0; i < t; i++)
20000346:	4401                	li	s0,0
C:\MRS_DATA\workspace\CH592F_SSD1306\obj/../StdPeriphDriver/CH59x_sys.c:337 (discriminator 3)
20000348:	0405                	addi	s0,s0,1
2000034a:	0442                	slli	s0,s0,0x10
2000034c:	8041                	srli	s0,s0,0x10
C:\MRS_DATA\workspace\CH592F_SSD1306\obj/../StdPeriphDriver/CH59x_sys.c:339 (discriminator 3)
    {
        mDelayuS(1000);
2000034e:	3391                	jal	20000092 <mDelayuS.constprop.0>
C:\MRS_DATA\workspace\CH592F_SSD1306\obj/../StdPeriphDriver/CH59x_sys.c:337 (discriminator 3)
    for(i = 0; i < t; i++)
20000350:	fe849ce3          	bne	s1,s0,20000348 <mDelaymS+0xe>
C:\MRS_DATA\workspace\CH592F_SSD1306\obj/../StdPeriphDriver/CH59x_sys.c:341
    }
}
20000354:	40b2                	lw	ra,12(sp)
20000356:	4422                	lw	s0,8(sp)
20000358:	4492                	lw	s1,4(sp)
2000035a:	0141                	addi	sp,sp,16
2000035c:	8082                	ret
2000035e:	8082                	ret

20000360 <FLASH_ROM_BEG>:
FLASH_ROM_BEG():
20000360:	80040323          	sb	zero,-2042(s0)
20000364:	4715                	li	a4,5
20000366:	80e40323          	sb	a4,-2042(s0)
2000036a:	0001                	nop
2000036c:	80a40223          	sb	a0,-2044(s0)
20000370:	8082                	ret

20000372 <FLASH_ROM_END>:
FLASH_ROM_END():
20000372:	80640783          	lb	a5,-2042(s0)
20000376:	fe07cee3          	bltz	a5,20000372 <FLASH_ROM_END>
2000037a:	80040323          	sb	zero,-2042(s0)
2000037e:	8082                	ret

20000380 <FLASH_ROM_IN>:
FLASH_ROM_IN():
20000380:	80640783          	lb	a5,-2042(s0)
20000384:	fe07cee3          	bltz	a5,20000380 <FLASH_ROM_IN>
20000388:	80444503          	lbu	a0,-2044(s0)
2000038c:	8082                	ret

2000038e <FLASH_ROM_OUT>:
FLASH_ROM_OUT():
2000038e:	80640783          	lb	a5,-2042(s0)
20000392:	fe07cee3          	bltz	a5,2000038e <FLASH_ROM_OUT>
20000396:	80a40223          	sb	a0,-2044(s0)
2000039a:	8082                	ret

2000039c <FLASH_ROM_ADDR>:
FLASH_ROM_ADDR():
2000039c:	1141                	addi	sp,sp,-16
2000039e:	c426                	sw	s1,8(sp)
200003a0:	c24a                	sw	s2,4(sp)
200003a2:	c04e                	sw	s3,0(sp)
200003a4:	c606                	sw	ra,12(sp)
200003a6:	0bf57713          	andi	a4,a0,191
200003aa:	47ad                	li	a5,11
200003ac:	89aa                	mv	s3,a0
200003ae:	892e                	mv	s2,a1
200003b0:	4495                	li	s1,5
200003b2:	00f70663          	beq	a4,a5,200003be <FLASH_ROM_ADDR+0x22>
200003b6:	4519                	li	a0,6
200003b8:	3765                	jal	20000360 <FLASH_ROM_BEG>
200003ba:	3f65                	jal	20000372 <FLASH_ROM_END>
200003bc:	448d                	li	s1,3
200003be:	854e                	mv	a0,s3
200003c0:	3745                	jal	20000360 <FLASH_ROM_BEG>
200003c2:	59fd                	li	s3,-1
200003c4:	14fd                	addi	s1,s1,-1
200003c6:	01349863          	bne	s1,s3,200003d6 <FLASH_ROM_ADDR+0x3a>
200003ca:	40b2                	lw	ra,12(sp)
200003cc:	44a2                	lw	s1,8(sp)
200003ce:	4912                	lw	s2,4(sp)
200003d0:	4982                	lw	s3,0(sp)
200003d2:	0141                	addi	sp,sp,16
200003d4:	8082                	ret
200003d6:	01095513          	srli	a0,s2,0x10
200003da:	0ff57513          	andi	a0,a0,255
200003de:	3f45                	jal	2000038e <FLASH_ROM_OUT>
200003e0:	0922                	slli	s2,s2,0x8
200003e2:	b7cd                	j	200003c4 <FLASH_ROM_ADDR+0x28>

200003e4 <FLASH_ROM_WAIT>:
FLASH_ROM_WAIT():
200003e4:	1101                	addi	sp,sp,-32
200003e6:	cc26                	sw	s1,24(sp)
200003e8:	ce06                	sw	ra,28(sp)
200003ea:	000804b7          	lui	s1,0x80
200003ee:	3751                	jal	20000372 <FLASH_ROM_END>
200003f0:	4515                	li	a0,5
200003f2:	37bd                	jal	20000360 <FLASH_ROM_BEG>
200003f4:	3771                	jal	20000380 <FLASH_ROM_IN>
200003f6:	3769                	jal	20000380 <FLASH_ROM_IN>
200003f8:	c62a                	sw	a0,12(sp)
200003fa:	3fa5                	jal	20000372 <FLASH_ROM_END>
200003fc:	4532                	lw	a0,12(sp)
200003fe:	00157793          	andi	a5,a0,1
20000402:	eb89                	bnez	a5,20000414 <FLASH_ROM_WAIT+0x30>
20000404:	00156513          	ori	a0,a0,1
20000408:	0ff57513          	andi	a0,a0,255
2000040c:	40f2                	lw	ra,28(sp)
2000040e:	44e2                	lw	s1,24(sp)
20000410:	6105                	addi	sp,sp,32
20000412:	8082                	ret
20000414:	14fd                	addi	s1,s1,-1
20000416:	fce9                	bnez	s1,200003f0 <FLASH_ROM_WAIT+0xc>
20000418:	4501                	li	a0,0
2000041a:	bfcd                	j	2000040c <FLASH_ROM_WAIT+0x28>

2000041c <FLASH_EEPROM_CMD>:
FLASH_EEPROM_CMD():
2000041c:	7139                	addi	sp,sp,-64
2000041e:	dc26                	sw	s1,56(sp)
20000420:	da4a                	sw	s2,52(sp)
20000422:	d84e                	sw	s3,48(sp)
20000424:	d652                	sw	s4,44(sp)
20000426:	d456                	sw	s5,40(sp)
20000428:	d25a                	sw	s6,36(sp)
2000042a:	d05e                	sw	s7,32(sp)
2000042c:	de06                	sw	ra,60(sp)
2000042e:	ce62                	sw	s8,28(sp)
20000430:	cc66                	sw	s9,24(sp)
20000432:	e000e7b7          	lui	a5,0xe000e
20000436:	577d                	li	a4,-1
20000438:	0007aa83          	lw	s5,0(a5) # e000e000 <_eusrstack+0xc0007800>
2000043c:	c622                	sw	s0,12(sp)
2000043e:	0047aa03          	lw	s4,4(a5)
20000442:	18e7a023          	sw	a4,384(a5)
20000446:	18e7a223          	sw	a4,388(a5)
2000044a:	400017b7          	lui	a5,0x40001
2000044e:	05700713          	li	a4,87
20000452:	04e78023          	sb	a4,64(a5) # 40001040 <_eusrstack+0x1fffa840>
20000456:	fa800713          	li	a4,-88
2000045a:	04e78023          	sb	a4,64(a5)
2000045e:	0447c783          	lbu	a5,68(a5)
20000462:	ff750b93          	addi	s7,a0,-9
20000466:	84b6                	mv	s1,a3
20000468:	07e2                	slli	a5,a5,0x18
2000046a:	0ffbfb93          	andi	s7,s7,255
2000046e:	4685                	li	a3,1
20000470:	89aa                	mv	s3,a0
20000472:	8b2e                	mv	s6,a1
20000474:	8932                	mv	s2,a2
20000476:	40002437          	lui	s0,0x40002
2000047a:	87e1                	srai	a5,a5,0x18
2000047c:	5701                	li	a4,-32
2000047e:	0176fa63          	bgeu	a3,s7,20000492 <FLASH_EEPROM_CMD+0x76>
20000482:	00d50863          	beq	a0,a3,20000492 <FLASH_EEPROM_CMD+0x76>
20000486:	4689                	li	a3,2
20000488:	02000713          	li	a4,32
2000048c:	00d51363          	bne	a0,a3,20000492 <FLASH_EEPROM_CMD+0x76>
20000490:	5701                	li	a4,-32
20000492:	8fd9                	or	a5,a5,a4
20000494:	0ff7f793          	andi	a5,a5,255
20000498:	40001cb7          	lui	s9,0x40001
2000049c:	04fc8223          	sb	a5,68(s9) # 40001044 <_eusrstack+0x1fffa844>
200004a0:	4711                	li	a4,4
200004a2:	80e40323          	sb	a4,-2042(s0) # 40001806 <_eusrstack+0x1fffb006>
200004a6:	0ff00513          	li	a0,255
200004aa:	3d5d                	jal	20000360 <FLASH_ROM_BEG>
200004ac:	4c09                	li	s8,2
200004ae:	35d1                	jal	20000372 <FLASH_ROM_END>
200004b0:	117c6d63          	bltu	s8,s7,200005ca <FLASH_EEPROM_CMD+0x1ae>
200004b4:	000705b7          	lui	a1,0x70
200004b8:	95da                	add	a1,a1,s6
200004ba:	00078737          	lui	a4,0x78
200004be:	5579                	li	a0,-2
200004c0:	04e5f263          	bgeu	a1,a4,20000504 <FLASH_EEPROM_CMD+0xe8>
200004c4:	009587b3          	add	a5,a1,s1
200004c8:	02f76e63          	bltu	a4,a5,20000504 <FLASH_EEPROM_CMD+0xe8>
200004cc:	00080b37          	lui	s6,0x80
200004d0:	47a9                	li	a5,10
200004d2:	0165eb33          	or	s6,a1,s6
200004d6:	06f99963          	bne	s3,a5,20000548 <FLASH_EEPROM_CMD+0x12c>
200004da:	e489                	bnez	s1,200004e4 <FLASH_EEPROM_CMD+0xc8>
200004dc:	4481                	li	s1,0
200004de:	3d51                	jal	20000372 <FLASH_ROM_END>
200004e0:	8526                	mv	a0,s1
200004e2:	a00d                	j	20000504 <FLASH_EEPROM_CMD+0xe8>
200004e4:	85da                	mv	a1,s6
200004e6:	4509                	li	a0,2
200004e8:	3d55                	jal	2000039c <FLASH_ROM_ADDR>
200004ea:	0905                	addi	s2,s2,1
200004ec:	fff94503          	lbu	a0,-1(s2)
200004f0:	14fd                	addi	s1,s1,-1
200004f2:	0b05                	addi	s6,s6,1
200004f4:	3d69                	jal	2000038e <FLASH_ROM_OUT>
200004f6:	c481                	beqz	s1,200004fe <FLASH_EEPROM_CMD+0xe2>
200004f8:	0ffb7793          	andi	a5,s6,255
200004fc:	f7fd                	bnez	a5,200004ea <FLASH_EEPROM_CMD+0xce>
200004fe:	35dd                	jal	200003e4 <FLASH_ROM_WAIT>
20000500:	fd69                	bnez	a0,200004da <FLASH_EEPROM_CMD+0xbe>
20000502:	557d                	li	a0,-1
20000504:	400017b7          	lui	a5,0x40001
20000508:	05700713          	li	a4,87
2000050c:	04e78023          	sb	a4,64(a5) # 40001040 <_eusrstack+0x1fffa840>
20000510:	fa800713          	li	a4,-88
20000514:	04e78023          	sb	a4,64(a5)
20000518:	0447c703          	lbu	a4,68(a5)
2000051c:	8b41                	andi	a4,a4,16
2000051e:	04e78223          	sb	a4,68(a5)
20000522:	50f2                	lw	ra,60(sp)
20000524:	e000e7b7          	lui	a5,0xe000e
20000528:	1157a023          	sw	s5,256(a5) # e000e100 <_eusrstack+0xc0007900>
2000052c:	1147a223          	sw	s4,260(a5)
20000530:	54e2                	lw	s1,56(sp)
20000532:	4432                	lw	s0,12(sp)
20000534:	5952                	lw	s2,52(sp)
20000536:	59c2                	lw	s3,48(sp)
20000538:	5a32                	lw	s4,44(sp)
2000053a:	5aa2                	lw	s5,40(sp)
2000053c:	5b12                	lw	s6,36(sp)
2000053e:	5b82                	lw	s7,32(sp)
20000540:	4c72                	lw	s8,28(sp)
20000542:	4ce2                	lw	s9,24(sp)
20000544:	6121                	addi	sp,sp,64
20000546:	8082                	ret
20000548:	47a5                	li	a5,9
2000054a:	06f99563          	bne	s3,a5,200005b4 <FLASH_EEPROM_CMD+0x198>
2000054e:	6985                	lui	s3,0x1
20000550:	0ff00913          	li	s2,255
20000554:	009906b3          	add	a3,s2,s1
20000558:	012b74b3          	and	s1,s6,s2
2000055c:	94b6                	add	s1,s1,a3
2000055e:	fff94913          	not	s2,s2
20000562:	009974b3          	and	s1,s2,s1
20000566:	6b85                	lui	s7,0x1
20000568:	01697933          	and	s2,s2,s6
2000056c:	6b41                	lui	s6,0x10
2000056e:	fff98793          	addi	a5,s3,-1 # fff <OLED_Init+0x71d>
20000572:	0127f7b3          	and	a5,a5,s2
20000576:	e399                	bnez	a5,2000057c <FLASH_EEPROM_CMD+0x160>
20000578:	0134fc63          	bgeu	s1,s3,20000590 <FLASH_EEPROM_CMD+0x174>
2000057c:	0049d993          	srli	s3,s3,0x4
20000580:	47c1                	li	a5,16
20000582:	ff37e6e3          	bltu	a5,s3,2000056e <FLASH_EEPROM_CMD+0x152>
20000586:	bf99                	j	200004dc <FLASH_EEPROM_CMD+0xc0>
20000588:	6905                	lui	s2,0x1
2000058a:	69c1                	lui	s3,0x10
2000058c:	197d                	addi	s2,s2,-1
2000058e:	b7d9                	j	20000554 <FLASH_EEPROM_CMD+0x138>
20000590:	0d800513          	li	a0,216
20000594:	01698863          	beq	s3,s6,200005a4 <FLASH_EEPROM_CMD+0x188>
20000598:	02000513          	li	a0,32
2000059c:	01798463          	beq	s3,s7,200005a4 <FLASH_EEPROM_CMD+0x188>
200005a0:	08100513          	li	a0,129
200005a4:	85ca                	mv	a1,s2
200005a6:	3bdd                	jal	2000039c <FLASH_ROM_ADDR>
200005a8:	3d35                	jal	200003e4 <FLASH_ROM_WAIT>
200005aa:	dd21                	beqz	a0,20000502 <FLASH_EEPROM_CMD+0xe6>
200005ac:	994e                	add	s2,s2,s3
200005ae:	413484b3          	sub	s1,s1,s3
200005b2:	b7d9                	j	20000578 <FLASH_EEPROM_CMD+0x15c>
200005b4:	85da                	mv	a1,s6
200005b6:	452d                	li	a0,11
200005b8:	33d5                	jal	2000039c <FLASH_ROM_ADDR>
200005ba:	94ca                	add	s1,s1,s2
200005bc:	f29900e3          	beq	s2,s1,200004dc <FLASH_EEPROM_CMD+0xc0>
200005c0:	0905                	addi	s2,s2,1
200005c2:	3b7d                	jal	20000380 <FLASH_ROM_IN>
200005c4:	fea90fa3          	sb	a0,-1(s2) # fff <OLED_Init+0x71d>
200005c8:	bfd5                	j	200005bc <FLASH_EEPROM_CMD+0x1a0>
200005ca:	fff98793          	addi	a5,s3,-1 # ffff <_data_lma+0x9757>
200005ce:	0ff7f793          	andi	a5,a5,255
200005d2:	0cfc6163          	bltu	s8,a5,20000694 <.loop402+0x7a>
200005d6:	041cc783          	lbu	a5,65(s9)
200005da:	08300713          	li	a4,131
200005de:	04f71f63          	bne	a4,a5,2000063c <.loop402+0x22>
200005e2:	00080737          	lui	a4,0x80
200005e6:	04eb6b63          	bltu	s6,a4,2000063c <.loop402+0x22>
200005ea:	009b07b3          	add	a5,s6,s1
200005ee:	001006b7          	lui	a3,0x100
200005f2:	04d7f563          	bgeu	a5,a3,2000063c <.loop402+0x22>
200005f6:	00eb4b33          	xor	s6,s6,a4
200005fa:	4789                	li	a5,2
200005fc:	06f99363          	bne	s3,a5,20000662 <.loop402+0x48>
20000600:	8089                	srli	s1,s1,0x2
20000602:	49d5                	li	s3,21
20000604:	ec048ce3          	beqz	s1,200004dc <FLASH_EEPROM_CMD+0xc0>
20000608:	85da                	mv	a1,s6
2000060a:	4509                	li	a0,2
2000060c:	3b41                	jal	2000039c <FLASH_ROM_ADDR>
2000060e:	0911                	addi	s2,s2,4
20000610:	ffc92703          	lw	a4,-4(s2)
20000614:	4791                	li	a5,4
20000616:	80e42023          	sw	a4,-2048(s0)

2000061a <.loop402>:
2000061a:	80640703          	lb	a4,-2042(s0)
2000061e:	fe074ee3          	bltz	a4,2000061a <.loop402>
20000622:	81340323          	sb	s3,-2042(s0)
20000626:	17fd                	addi	a5,a5,-1
20000628:	fbed                	bnez	a5,2000061a <.loop402>
2000062a:	14fd                	addi	s1,s1,-1
2000062c:	0b11                	addi	s6,s6,4
2000062e:	c481                	beqz	s1,20000636 <.loop402+0x1c>
20000630:	0ffb7793          	andi	a5,s6,255
20000634:	ffe9                	bnez	a5,2000060e <FLASH_EEPROM_CMD+0x1f2>
20000636:	337d                	jal	200003e4 <FLASH_ROM_WAIT>
20000638:	f571                	bnez	a0,20000604 <FLASH_EEPROM_CMD+0x1e8>
2000063a:	b5e1                	j	20000502 <FLASH_EEPROM_CMD+0xe6>
2000063c:	400017b7          	lui	a5,0x40001
20000640:	0457c703          	lbu	a4,69(a5) # 40001045 <_eusrstack+0x1fffa845>
20000644:	000807b7          	lui	a5,0x80
20000648:	02077713          	andi	a4,a4,32
2000064c:	e319                	bnez	a4,20000652 <.loop402+0x38>
2000064e:	000787b7          	lui	a5,0x78
20000652:	5579                	li	a0,-2
20000654:	eafb78e3          	bgeu	s6,a5,20000504 <FLASH_EEPROM_CMD+0xe8>
20000658:	009b0733          	add	a4,s6,s1
2000065c:	f8e7ffe3          	bgeu	a5,a4,200005fa <FLASH_EEPROM_CMD+0x1de>
20000660:	b555                	j	20000504 <FLASH_EEPROM_CMD+0xe8>
20000662:	4785                	li	a5,1
20000664:	f2f982e3          	beq	s3,a5,20000588 <FLASH_EEPROM_CMD+0x16c>
20000668:	85da                	mv	a1,s6
2000066a:	452d                	li	a0,11
2000066c:	3b05                	jal	2000039c <FLASH_ROM_ADDR>
2000066e:	fff48993          	addi	s3,s1,-1 # 7ffff <_data_lma+0x79757>
20000672:	e60485e3          	beqz	s1,200004dc <FLASH_EEPROM_CMD+0xc0>
20000676:	3329                	jal	20000380 <FLASH_ROM_IN>
20000678:	0039f793          	andi	a5,s3,3
2000067c:	eb91                	bnez	a5,20000690 <.loop402+0x76>
2000067e:	80042683          	lw	a3,-2048(s0)
20000682:	00092703          	lw	a4,0(s2)
20000686:	00490793          	addi	a5,s2,4
2000068a:	e4e69ae3          	bne	a3,a4,200004de <FLASH_EEPROM_CMD+0xc2>
2000068e:	893e                	mv	s2,a5
20000690:	84ce                	mv	s1,s3
20000692:	bff1                	j	2000066e <.loop402+0x54>
20000694:	47b5                	li	a5,13
20000696:	00f99663          	bne	s3,a5,200006a2 <.loop402+0x88>
2000069a:	0b900513          	li	a0,185
2000069e:	31c9                	jal	20000360 <FLASH_ROM_BEG>
200006a0:	bd35                	j	200004dc <FLASH_EEPROM_CMD+0xc0>
200006a2:	47b1                	li	a5,12
200006a4:	0ab00513          	li	a0,171
200006a8:	fef98be3          	beq	s3,a5,2000069e <.loop402+0x84>
200006ac:	4799                	li	a5,6
200006ae:	04f99163          	bne	s3,a5,200006f0 <.loop402+0xd6>
200006b2:	000805b7          	lui	a1,0x80
200006b6:	00bb65b3          	or	a1,s6,a1
200006ba:	452d                	li	a0,11
200006bc:	31c5                	jal	2000039c <FLASH_ROM_ADDR>
200006be:	4481                	li	s1,0
200006c0:	4b8d                	li	s7,3
200006c2:	49a1                	li	s3,8
200006c4:	3975                	jal	20000380 <FLASH_ROM_IN>
200006c6:	01749663          	bne	s1,s7,200006d2 <.loop402+0xb8>
200006ca:	80042783          	lw	a5,-2048(s0)
200006ce:	00f92023          	sw	a5,0(s2)
200006d2:	0485                	addi	s1,s1,1
200006d4:	ff3498e3          	bne	s1,s3,200006c4 <.loop402+0xaa>
200006d8:	80042783          	lw	a5,-2048(s0)
200006dc:	012b1713          	slli	a4,s6,0x12
200006e0:	00075563          	bgez	a4,200006ea <.loop402+0xd0>
200006e4:	00f91223          	sh	a5,4(s2)
200006e8:	bbd5                	j	200004dc <FLASH_EEPROM_CMD+0xc0>
200006ea:	00f92223          	sw	a5,4(s2)
200006ee:	b3fd                	j	200004dc <FLASH_EEPROM_CMD+0xc0>
200006f0:	479d                	li	a5,7
200006f2:	02f99963          	bne	s3,a5,20000724 <.loop402+0x10a>
200006f6:	4581                	li	a1,0
200006f8:	04b00513          	li	a0,75
200006fc:	3145                	jal	2000039c <FLASH_ROM_ADDR>
200006fe:	44bd                	li	s1,15
20000700:	00092023          	sw	zero,0(s2)
20000704:	00092223          	sw	zero,4(s2)
20000708:	59fd                	li	s3,-1
2000070a:	399d                	jal	20000380 <FLASH_ROM_IN>
2000070c:	0074f793          	andi	a5,s1,7
20000710:	97ca                	add	a5,a5,s2
20000712:	0007c703          	lbu	a4,0(a5) # 78000 <_data_lma+0x71758>
20000716:	14fd                	addi	s1,s1,-1
20000718:	8d39                	xor	a0,a0,a4
2000071a:	00a78023          	sb	a0,0(a5)
2000071e:	ff3496e3          	bne	s1,s3,2000070a <.loop402+0xf0>
20000722:	bb6d                	j	200004dc <FLASH_EEPROM_CMD+0xc0>
20000724:	47a1                	li	a5,8
20000726:	04f99263          	bne	s3,a5,2000076a <.loop402+0x150>
2000072a:	396d                	jal	200003e4 <FLASH_ROM_WAIT>
2000072c:	4481                	li	s1,0
2000072e:	000b0d63          	beqz	s6,20000748 <.loop402+0x12e>
20000732:	478d                	li	a5,3
20000734:	03c00493          	li	s1,60
20000738:	00fb0863          	beq	s6,a5,20000748 <.loop402+0x12e>
2000073c:	05000493          	li	s1,80
20000740:	018b0463          	beq	s6,s8,20000748 <.loop402+0x12e>
20000744:	04400493          	li	s1,68
20000748:	07c57513          	andi	a0,a0,124
2000074c:	d89508e3          	beq	a0,s1,200004dc <FLASH_EEPROM_CMD+0xc0>
20000750:	4519                	li	a0,6
20000752:	3139                	jal	20000360 <FLASH_ROM_BEG>
20000754:	3939                	jal	20000372 <FLASH_ROM_END>
20000756:	4505                	li	a0,1
20000758:	3121                	jal	20000360 <FLASH_ROM_BEG>
2000075a:	8526                	mv	a0,s1
2000075c:	390d                	jal	2000038e <FLASH_ROM_OUT>
2000075e:	4509                	li	a0,2
20000760:	313d                	jal	2000038e <FLASH_ROM_OUT>
20000762:	3149                	jal	200003e4 <FLASH_ROM_WAIT>
20000764:	d6051ce3          	bnez	a0,200004dc <FLASH_EEPROM_CMD+0xc0>
20000768:	bb69                	j	20000502 <FLASH_EEPROM_CMD+0xe6>
2000076a:	4791                	li	a5,4
2000076c:	00f99963          	bne	s3,a5,2000077e <.loop402+0x164>
20000770:	06600513          	li	a0,102
20000774:	36f5                	jal	20000360 <FLASH_ROM_BEG>
20000776:	3ef5                	jal	20000372 <FLASH_ROM_END>
20000778:	09900513          	li	a0,153
2000077c:	b70d                	j	2000069e <.loop402+0x84>
2000077e:	d4098fe3          	beqz	s3,200004dc <FLASH_EEPROM_CMD+0xc0>
20000782:	54f1                	li	s1,-4
20000784:	bba9                	j	200004de <FLASH_EEPROM_CMD+0xc2>
	...

Disassembly of section .text:

00000790 <handle_reset>:
handle_reset():
C:\MRS_DATA\workspace\CH592F_SSD1306\obj/../Startup/startup_CH592.S:127
	.weak	handle_reset
	.align	1
handle_reset:
.option push 
.option	norelax 
	la gp, __global_pointer$
     790:	20001197          	auipc	gp,0x20001
     794:	8d018193          	addi	gp,gp,-1840 # 20001060 <__global_pointer$>
C:\MRS_DATA\workspace\CH592F_SSD1306\obj/../Startup/startup_CH592.S:130
.option	pop 
1:
	la sp, _eusrstack 
     798:	20006117          	auipc	sp,0x20006
     79c:	06810113          	addi	sp,sp,104 # 20006800 <_eusrstack>
C:\MRS_DATA\workspace\CH592F_SSD1306\obj/../Startup/startup_CH592.S:134

/* Load highcode code  section from flash to RAM */
2:
    la a0, _highcode_lma
     7a0:	00400513          	li	a0,4
C:\MRS_DATA\workspace\CH592F_SSD1306\obj/../Startup/startup_CH592.S:135
    la a1, _highcode_vma_start
     7a4:	20000597          	auipc	a1,0x20000
     7a8:	85c58593          	addi	a1,a1,-1956 # 20000000 <_highcode_vma_start>
C:\MRS_DATA\workspace\CH592F_SSD1306\obj/../Startup/startup_CH592.S:136
    la a2, _highcode_vma_end
     7ac:	20000617          	auipc	a2,0x20000
     7b0:	fdc60613          	addi	a2,a2,-36 # 20000788 <_highcode_vma_end>
C:\MRS_DATA\workspace\CH592F_SSD1306\obj/../Startup/startup_CH592.S:137
    bgeu a1, a2, 2f
     7b4:	00c5fa63          	bgeu	a1,a2,7c8 <handle_reset+0x38>
C:\MRS_DATA\workspace\CH592F_SSD1306\obj/../Startup/startup_CH592.S:139
1:
    lw t0, (a0)
     7b8:	00052283          	lw	t0,0(a0)
C:\MRS_DATA\workspace\CH592F_SSD1306\obj/../Startup/startup_CH592.S:140
    sw t0, (a1)
     7bc:	0055a023          	sw	t0,0(a1)
C:\MRS_DATA\workspace\CH592F_SSD1306\obj/../Startup/startup_CH592.S:141
    addi a0, a0, 4
     7c0:	0511                	addi	a0,a0,4
C:\MRS_DATA\workspace\CH592F_SSD1306\obj/../Startup/startup_CH592.S:142
    addi a1, a1, 4
     7c2:	0591                	addi	a1,a1,4
C:\MRS_DATA\workspace\CH592F_SSD1306\obj/../Startup/startup_CH592.S:143
    bltu a1, a2, 1b
     7c4:	fec5eae3          	bltu	a1,a2,7b8 <handle_reset+0x28>
C:\MRS_DATA\workspace\CH592F_SSD1306\obj/../Startup/startup_CH592.S:147

/* Load data section from flash to RAM */
2:
	la a0, _data_lma
     7c8:	00006517          	auipc	a0,0x6
     7cc:	0e050513          	addi	a0,a0,224 # 68a8 <_data_lma>
C:\MRS_DATA\workspace\CH592F_SSD1306\obj/../Startup/startup_CH592.S:148
	la a1, _data_vma
     7d0:	20000597          	auipc	a1,0x20000
     7d4:	03058593          	addi	a1,a1,48 # 20000800 <_data_vma>
C:\MRS_DATA\workspace\CH592F_SSD1306\obj/../Startup/startup_CH592.S:149
	la a2, _edata
     7d8:	80818613          	addi	a2,gp,-2040 # 20000868 <_edata>
C:\MRS_DATA\workspace\CH592F_SSD1306\obj/../Startup/startup_CH592.S:150
	bgeu a1, a2, 2f
     7dc:	00c5fa63          	bgeu	a1,a2,7f0 <handle_reset+0x60>
C:\MRS_DATA\workspace\CH592F_SSD1306\obj/../Startup/startup_CH592.S:152
1:
	lw t0, (a0)
     7e0:	00052283          	lw	t0,0(a0)
C:\MRS_DATA\workspace\CH592F_SSD1306\obj/../Startup/startup_CH592.S:153
	sw t0, (a1)
     7e4:	0055a023          	sw	t0,0(a1)
C:\MRS_DATA\workspace\CH592F_SSD1306\obj/../Startup/startup_CH592.S:154
	addi a0, a0, 4
     7e8:	0511                	addi	a0,a0,4
C:\MRS_DATA\workspace\CH592F_SSD1306\obj/../Startup/startup_CH592.S:155
	addi a1, a1, 4
     7ea:	0591                	addi	a1,a1,4
C:\MRS_DATA\workspace\CH592F_SSD1306\obj/../Startup/startup_CH592.S:156
	bltu a1, a2, 1b
     7ec:	fec5eae3          	bltu	a1,a2,7e0 <handle_reset+0x50>
C:\MRS_DATA\workspace\CH592F_SSD1306\obj/../Startup/startup_CH592.S:159
2:
	/* clear bss section */
	la a0, _sbss
     7f0:	80818513          	addi	a0,gp,-2040 # 20000868 <_edata>
C:\MRS_DATA\workspace\CH592F_SSD1306\obj/../Startup/startup_CH592.S:160
	la a1, _ebss
     7f4:	8bc18593          	addi	a1,gp,-1860 # 2000091c <_ebss>
C:\MRS_DATA\workspace\CH592F_SSD1306\obj/../Startup/startup_CH592.S:161
	bgeu a0, a1, 2f
     7f8:	00b57763          	bgeu	a0,a1,806 <handle_reset+0x76>
C:\MRS_DATA\workspace\CH592F_SSD1306\obj/../Startup/startup_CH592.S:163
1:
	sw zero, (a0)
     7fc:	00052023          	sw	zero,0(a0)
C:\MRS_DATA\workspace\CH592F_SSD1306\obj/../Startup/startup_CH592.S:164
	addi a0, a0, 4
     800:	0511                	addi	a0,a0,4
C:\MRS_DATA\workspace\CH592F_SSD1306\obj/../Startup/startup_CH592.S:165
	bltu a0, a1, 1b
     802:	feb56de3          	bltu	a0,a1,7fc <handle_reset+0x6c>
C:\MRS_DATA\workspace\CH592F_SSD1306\obj/../Startup/startup_CH592.S:168
2:
	/* 流水线控制位 & 动态预测控制位 */
	li t0, 0x1f
     806:	42fd                	li	t0,31
C:\MRS_DATA\workspace\CH592F_SSD1306\obj/../Startup/startup_CH592.S:169
	csrw 0xbc0, t0
     808:	bc029073          	csrw	0xbc0,t0
C:\MRS_DATA\workspace\CH592F_SSD1306\obj/../Startup/startup_CH592.S:171
	/* 打开嵌套中断、硬件压栈功能 */
	li t0, 0x3
     80c:	428d                	li	t0,3
C:\MRS_DATA\workspace\CH592F_SSD1306\obj/../Startup/startup_CH592.S:172
	csrw 0x804, t0
     80e:	80429073          	csrw	0x804,t0
C:\MRS_DATA\workspace\CH592F_SSD1306\obj/../Startup/startup_CH592.S:174
	
    li t0, 0x88
     812:	08800293          	li	t0,136
C:\MRS_DATA\workspace\CH592F_SSD1306\obj/../Startup/startup_CH592.S:175
    csrw mstatus, t0
     816:	30029073          	csrw	mstatus,t0
C:\MRS_DATA\workspace\CH592F_SSD1306\obj/../Startup/startup_CH592.S:176
	la t0, _vector_base
     81a:	1ffff297          	auipc	t0,0x1ffff
     81e:	7e628293          	addi	t0,t0,2022 # 20000000 <_highcode_vma_start>
C:\MRS_DATA\workspace\CH592F_SSD1306\obj/../Startup/startup_CH592.S:179

	/* 配置向量表模式为绝对地址模式 */
    ori t0, t0, 3
     822:	0032e293          	ori	t0,t0,3
C:\MRS_DATA\workspace\CH592F_SSD1306\obj/../Startup/startup_CH592.S:180
	csrw mtvec, t0
     826:	30529073          	csrw	mtvec,t0
C:\MRS_DATA\workspace\CH592F_SSD1306\obj/../Startup/startup_CH592.S:182

	la t0, main
     82a:	00001297          	auipc	t0,0x1
     82e:	fcc28293          	addi	t0,t0,-52 # 17f6 <main>
C:\MRS_DATA\workspace\CH592F_SSD1306\obj/../Startup/startup_CH592.S:183
	csrw mepc, t0
     832:	34129073          	csrw	mepc,t0
C:\MRS_DATA\workspace\CH592F_SSD1306\obj/../Startup/startup_CH592.S:185
	
	mret
     836:	30200073          	mret

0000083a <memset>:
memset():
     83a:	433d                	li	t1,15
     83c:	872a                	mv	a4,a0
     83e:	02c37363          	bgeu	t1,a2,864 <memset+0x2a>
     842:	00f77793          	andi	a5,a4,15
     846:	efbd                	bnez	a5,8c4 <memset+0x8a>
     848:	e5ad                	bnez	a1,8b2 <memset+0x78>
     84a:	ff067693          	andi	a3,a2,-16
     84e:	8a3d                	andi	a2,a2,15
     850:	96ba                	add	a3,a3,a4
     852:	c30c                	sw	a1,0(a4)
     854:	c34c                	sw	a1,4(a4)
     856:	c70c                	sw	a1,8(a4)
     858:	c74c                	sw	a1,12(a4)
     85a:	0741                	addi	a4,a4,16
     85c:	fed76be3          	bltu	a4,a3,852 <memset+0x18>
     860:	e211                	bnez	a2,864 <memset+0x2a>
     862:	8082                	ret
     864:	40c306b3          	sub	a3,t1,a2
     868:	068a                	slli	a3,a3,0x2
     86a:	00000297          	auipc	t0,0x0
     86e:	9696                	add	a3,a3,t0
     870:	00a68067          	jr	10(a3) # 10000a <_data_lma+0xf9762>
     874:	00b70723          	sb	a1,14(a4) # 8000e <_data_lma+0x79766>
     878:	00b706a3          	sb	a1,13(a4)
     87c:	00b70623          	sb	a1,12(a4)
     880:	00b705a3          	sb	a1,11(a4)
     884:	00b70523          	sb	a1,10(a4)
     888:	00b704a3          	sb	a1,9(a4)
     88c:	00b70423          	sb	a1,8(a4)
     890:	00b703a3          	sb	a1,7(a4)
     894:	00b70323          	sb	a1,6(a4)
     898:	00b702a3          	sb	a1,5(a4)
     89c:	00b70223          	sb	a1,4(a4)
     8a0:	00b701a3          	sb	a1,3(a4)
     8a4:	00b70123          	sb	a1,2(a4)
     8a8:	00b700a3          	sb	a1,1(a4)
     8ac:	00b70023          	sb	a1,0(a4)
     8b0:	8082                	ret
     8b2:	0ff5f593          	andi	a1,a1,255
     8b6:	00859693          	slli	a3,a1,0x8
     8ba:	8dd5                	or	a1,a1,a3
     8bc:	01059693          	slli	a3,a1,0x10
     8c0:	8dd5                	or	a1,a1,a3
     8c2:	b761                	j	84a <memset+0x10>
     8c4:	00279693          	slli	a3,a5,0x2
     8c8:	00000297          	auipc	t0,0x0
     8cc:	9696                	add	a3,a3,t0
     8ce:	8286                	mv	t0,ra
     8d0:	fa8680e7          	jalr	-88(a3)
     8d4:	8096                	mv	ra,t0
     8d6:	17c1                	addi	a5,a5,-16
     8d8:	8f1d                	sub	a4,a4,a5
     8da:	963e                	add	a2,a2,a5
     8dc:	f8c374e3          	bgeu	t1,a2,864 <memset+0x2a>
     8e0:	b7a5                	j	848 <memset+0xe>

000008e2 <OLED_Init>:
OLED_Init():
C:\MRS_DATA\workspace\CH592F_SSD1306\obj/../src/ssd1306/renderer.c:51
    while (!I2C_CheckEvent(I2C_EVENT_MASTER_BYTE_TRANSMITTED));
    I2C_GenerateSTOP(ENABLE);
}

int OLED_Init(void) {
    if ((!buffer) && !(buffer = (uint8_t *)malloc(OLED_WIDTH * ((OLED_HEIGHT + 7) / 8)))) {
     8e2:	80818793          	addi	a5,gp,-2040 # 20000868 <_edata>
     8e6:	439c                	lw	a5,0(a5)
C:\MRS_DATA\workspace\CH592F_SSD1306\obj/../src/ssd1306/renderer.c:50
int OLED_Init(void) {
     8e8:	1141                	addi	sp,sp,-16
     8ea:	c606                	sw	ra,12(sp)
     8ec:	c422                	sw	s0,8(sp)
C:\MRS_DATA\workspace\CH592F_SSD1306\obj/../src/ssd1306/renderer.c:51
    if ((!buffer) && !(buffer = (uint8_t *)malloc(OLED_WIDTH * ((OLED_HEIGHT + 7) / 8)))) {
     8ee:	1e078ce3          	beqz	a5,12e6 <OLED_Init+0xa04>
I2C_WriteCommand():
C:\MRS_DATA\workspace\CH592F_SSD1306\obj/../src/ssd1306/renderer.c:27
    I2C_GenerateSTART(ENABLE);
     8f2:	4505                	li	a0,1
C:\MRS_DATA\workspace\CH592F_SSD1306\obj/../src/ssd1306/renderer.c:28
    while (!I2C_CheckEvent(I2C_EVENT_MASTER_MODE_SELECT));
     8f4:	00030437          	lui	s0,0x30
C:\MRS_DATA\workspace\CH592F_SSD1306\obj/../src/ssd1306/renderer.c:27
    I2C_GenerateSTART(ENABLE);
     8f8:	650010ef          	jal	ra,1f48 <I2C_GenerateSTART>
C:\MRS_DATA\workspace\CH592F_SSD1306\obj/../src/ssd1306/renderer.c:28
    while (!I2C_CheckEvent(I2C_EVENT_MASTER_MODE_SELECT));
     8fc:	0405                	addi	s0,s0,1
     8fe:	8522                	mv	a0,s0
     900:	6b6010ef          	jal	ra,1fb6 <I2C_CheckEvent>
     904:	dd6d                	beqz	a0,8fe <OLED_Init+0x1c>
C:\MRS_DATA\workspace\CH592F_SSD1306\obj/../src/ssd1306/renderer.c:29
    I2C_Send7bitAddress(OLED_I2C_ADDR << 1, I2C_Direction_Transmitter);
     906:	4581                	li	a1,0
     908:	07800513          	li	a0,120
C:\MRS_DATA\workspace\CH592F_SSD1306\obj/../src/ssd1306/renderer.c:30
    while (!I2C_CheckEvent(I2C_EVENT_MASTER_TRANSMITTER_MODE_SELECTED));
     90c:	00070437          	lui	s0,0x70
C:\MRS_DATA\workspace\CH592F_SSD1306\obj/../src/ssd1306/renderer.c:29
    I2C_Send7bitAddress(OLED_I2C_ADDR << 1, I2C_Direction_Transmitter);
     910:	68e010ef          	jal	ra,1f9e <I2C_Send7bitAddress>
C:\MRS_DATA\workspace\CH592F_SSD1306\obj/../src/ssd1306/renderer.c:30
    while (!I2C_CheckEvent(I2C_EVENT_MASTER_TRANSMITTER_MODE_SELECTED));
     914:	08240413          	addi	s0,s0,130 # 70082 <_data_lma+0x697da>
     918:	8522                	mv	a0,s0
     91a:	69c010ef          	jal	ra,1fb6 <I2C_CheckEvent>
     91e:	dd6d                	beqz	a0,918 <OLED_Init+0x36>
C:\MRS_DATA\workspace\CH592F_SSD1306\obj/../src/ssd1306/renderer.c:31
    I2C_SendData(0x00);     // Command mode
     920:	4501                	li	a0,0
C:\MRS_DATA\workspace\CH592F_SSD1306\obj/../src/ssd1306/renderer.c:32
    while (!I2C_CheckEvent(I2C_EVENT_MASTER_BYTE_TRANSMITTED));
     922:	00070437          	lui	s0,0x70
C:\MRS_DATA\workspace\CH592F_SSD1306\obj/../src/ssd1306/renderer.c:31
    I2C_SendData(0x00);     // Command mode
     926:	66e010ef          	jal	ra,1f94 <I2C_SendData>
C:\MRS_DATA\workspace\CH592F_SSD1306\obj/../src/ssd1306/renderer.c:32
    while (!I2C_CheckEvent(I2C_EVENT_MASTER_BYTE_TRANSMITTED));
     92a:	08440413          	addi	s0,s0,132 # 70084 <_data_lma+0x697dc>
     92e:	8522                	mv	a0,s0
     930:	686010ef          	jal	ra,1fb6 <I2C_CheckEvent>
     934:	dd6d                	beqz	a0,92e <OLED_Init+0x4c>
C:\MRS_DATA\workspace\CH592F_SSD1306\obj/../src/ssd1306/renderer.c:33
    I2C_SendData(command);
     936:	0ae00513          	li	a0,174
C:\MRS_DATA\workspace\CH592F_SSD1306\obj/../src/ssd1306/renderer.c:34
    while (!I2C_CheckEvent(I2C_EVENT_MASTER_BYTE_TRANSMITTED));
     93a:	00070437          	lui	s0,0x70
C:\MRS_DATA\workspace\CH592F_SSD1306\obj/../src/ssd1306/renderer.c:33
    I2C_SendData(command);
     93e:	656010ef          	jal	ra,1f94 <I2C_SendData>
C:\MRS_DATA\workspace\CH592F_SSD1306\obj/../src/ssd1306/renderer.c:34
    while (!I2C_CheckEvent(I2C_EVENT_MASTER_BYTE_TRANSMITTED));
     942:	08440413          	addi	s0,s0,132 # 70084 <_data_lma+0x697dc>
     946:	8522                	mv	a0,s0
     948:	66e010ef          	jal	ra,1fb6 <I2C_CheckEvent>
     94c:	dd6d                	beqz	a0,946 <OLED_Init+0x64>
C:\MRS_DATA\workspace\CH592F_SSD1306\obj/../src/ssd1306/renderer.c:35
    I2C_GenerateSTOP(ENABLE);
     94e:	4505                	li	a0,1
     950:	61e010ef          	jal	ra,1f6e <I2C_GenerateSTOP>
C:\MRS_DATA\workspace\CH592F_SSD1306\obj/../src/ssd1306/renderer.c:27
    I2C_GenerateSTART(ENABLE);
     954:	4505                	li	a0,1
C:\MRS_DATA\workspace\CH592F_SSD1306\obj/../src/ssd1306/renderer.c:28
    while (!I2C_CheckEvent(I2C_EVENT_MASTER_MODE_SELECT));
     956:	00030437          	lui	s0,0x30
C:\MRS_DATA\workspace\CH592F_SSD1306\obj/../src/ssd1306/renderer.c:27
    I2C_GenerateSTART(ENABLE);
     95a:	5ee010ef          	jal	ra,1f48 <I2C_GenerateSTART>
C:\MRS_DATA\workspace\CH592F_SSD1306\obj/../src/ssd1306/renderer.c:28
    while (!I2C_CheckEvent(I2C_EVENT_MASTER_MODE_SELECT));
     95e:	0405                	addi	s0,s0,1
     960:	8522                	mv	a0,s0
     962:	654010ef          	jal	ra,1fb6 <I2C_CheckEvent>
     966:	dd6d                	beqz	a0,960 <OLED_Init+0x7e>
C:\MRS_DATA\workspace\CH592F_SSD1306\obj/../src/ssd1306/renderer.c:29
    I2C_Send7bitAddress(OLED_I2C_ADDR << 1, I2C_Direction_Transmitter);
     968:	4581                	li	a1,0
     96a:	07800513          	li	a0,120
C:\MRS_DATA\workspace\CH592F_SSD1306\obj/../src/ssd1306/renderer.c:30
    while (!I2C_CheckEvent(I2C_EVENT_MASTER_TRANSMITTER_MODE_SELECTED));
     96e:	00070437          	lui	s0,0x70
C:\MRS_DATA\workspace\CH592F_SSD1306\obj/../src/ssd1306/renderer.c:29
    I2C_Send7bitAddress(OLED_I2C_ADDR << 1, I2C_Direction_Transmitter);
     972:	62c010ef          	jal	ra,1f9e <I2C_Send7bitAddress>
C:\MRS_DATA\workspace\CH592F_SSD1306\obj/../src/ssd1306/renderer.c:30
    while (!I2C_CheckEvent(I2C_EVENT_MASTER_TRANSMITTER_MODE_SELECTED));
     976:	08240413          	addi	s0,s0,130 # 70082 <_data_lma+0x697da>
     97a:	8522                	mv	a0,s0
     97c:	63a010ef          	jal	ra,1fb6 <I2C_CheckEvent>
     980:	dd6d                	beqz	a0,97a <OLED_Init+0x98>
C:\MRS_DATA\workspace\CH592F_SSD1306\obj/../src/ssd1306/renderer.c:31
    I2C_SendData(0x00);     // Command mode
     982:	4501                	li	a0,0
C:\MRS_DATA\workspace\CH592F_SSD1306\obj/../src/ssd1306/renderer.c:32
    while (!I2C_CheckEvent(I2C_EVENT_MASTER_BYTE_TRANSMITTED));
     984:	00070437          	lui	s0,0x70
C:\MRS_DATA\workspace\CH592F_SSD1306\obj/../src/ssd1306/renderer.c:31
    I2C_SendData(0x00);     // Command mode
     988:	60c010ef          	jal	ra,1f94 <I2C_SendData>
C:\MRS_DATA\workspace\CH592F_SSD1306\obj/../src/ssd1306/renderer.c:32
    while (!I2C_CheckEvent(I2C_EVENT_MASTER_BYTE_TRANSMITTED));
     98c:	08440413          	addi	s0,s0,132 # 70084 <_data_lma+0x697dc>
     990:	8522                	mv	a0,s0
     992:	624010ef          	jal	ra,1fb6 <I2C_CheckEvent>
     996:	dd6d                	beqz	a0,990 <OLED_Init+0xae>
C:\MRS_DATA\workspace\CH592F_SSD1306\obj/../src/ssd1306/renderer.c:33
    I2C_SendData(command);
     998:	0d500513          	li	a0,213
C:\MRS_DATA\workspace\CH592F_SSD1306\obj/../src/ssd1306/renderer.c:34
    while (!I2C_CheckEvent(I2C_EVENT_MASTER_BYTE_TRANSMITTED));
     99c:	00070437          	lui	s0,0x70
C:\MRS_DATA\workspace\CH592F_SSD1306\obj/../src/ssd1306/renderer.c:33
    I2C_SendData(command);
     9a0:	5f4010ef          	jal	ra,1f94 <I2C_SendData>
C:\MRS_DATA\workspace\CH592F_SSD1306\obj/../src/ssd1306/renderer.c:34
    while (!I2C_CheckEvent(I2C_EVENT_MASTER_BYTE_TRANSMITTED));
     9a4:	08440413          	addi	s0,s0,132 # 70084 <_data_lma+0x697dc>
     9a8:	8522                	mv	a0,s0
     9aa:	60c010ef          	jal	ra,1fb6 <I2C_CheckEvent>
     9ae:	dd6d                	beqz	a0,9a8 <OLED_Init+0xc6>
C:\MRS_DATA\workspace\CH592F_SSD1306\obj/../src/ssd1306/renderer.c:35
    I2C_GenerateSTOP(ENABLE);
     9b0:	4505                	li	a0,1
     9b2:	5bc010ef          	jal	ra,1f6e <I2C_GenerateSTOP>
C:\MRS_DATA\workspace\CH592F_SSD1306\obj/../src/ssd1306/renderer.c:27
    I2C_GenerateSTART(ENABLE);
     9b6:	4505                	li	a0,1
C:\MRS_DATA\workspace\CH592F_SSD1306\obj/../src/ssd1306/renderer.c:28
    while (!I2C_CheckEvent(I2C_EVENT_MASTER_MODE_SELECT));
     9b8:	00030437          	lui	s0,0x30
C:\MRS_DATA\workspace\CH592F_SSD1306\obj/../src/ssd1306/renderer.c:27
    I2C_GenerateSTART(ENABLE);
     9bc:	58c010ef          	jal	ra,1f48 <I2C_GenerateSTART>
C:\MRS_DATA\workspace\CH592F_SSD1306\obj/../src/ssd1306/renderer.c:28
    while (!I2C_CheckEvent(I2C_EVENT_MASTER_MODE_SELECT));
     9c0:	0405                	addi	s0,s0,1
     9c2:	8522                	mv	a0,s0
     9c4:	5f2010ef          	jal	ra,1fb6 <I2C_CheckEvent>
     9c8:	dd6d                	beqz	a0,9c2 <OLED_Init+0xe0>
C:\MRS_DATA\workspace\CH592F_SSD1306\obj/../src/ssd1306/renderer.c:29
    I2C_Send7bitAddress(OLED_I2C_ADDR << 1, I2C_Direction_Transmitter);
     9ca:	4581                	li	a1,0
     9cc:	07800513          	li	a0,120
C:\MRS_DATA\workspace\CH592F_SSD1306\obj/../src/ssd1306/renderer.c:30
    while (!I2C_CheckEvent(I2C_EVENT_MASTER_TRANSMITTER_MODE_SELECTED));
     9d0:	00070437          	lui	s0,0x70
C:\MRS_DATA\workspace\CH592F_SSD1306\obj/../src/ssd1306/renderer.c:29
    I2C_Send7bitAddress(OLED_I2C_ADDR << 1, I2C_Direction_Transmitter);
     9d4:	5ca010ef          	jal	ra,1f9e <I2C_Send7bitAddress>
C:\MRS_DATA\workspace\CH592F_SSD1306\obj/../src/ssd1306/renderer.c:30
    while (!I2C_CheckEvent(I2C_EVENT_MASTER_TRANSMITTER_MODE_SELECTED));
     9d8:	08240413          	addi	s0,s0,130 # 70082 <_data_lma+0x697da>
     9dc:	8522                	mv	a0,s0
     9de:	5d8010ef          	jal	ra,1fb6 <I2C_CheckEvent>
     9e2:	dd6d                	beqz	a0,9dc <OLED_Init+0xfa>
C:\MRS_DATA\workspace\CH592F_SSD1306\obj/../src/ssd1306/renderer.c:31
    I2C_SendData(0x00);     // Command mode
     9e4:	4501                	li	a0,0
C:\MRS_DATA\workspace\CH592F_SSD1306\obj/../src/ssd1306/renderer.c:32
    while (!I2C_CheckEvent(I2C_EVENT_MASTER_BYTE_TRANSMITTED));
     9e6:	00070437          	lui	s0,0x70
C:\MRS_DATA\workspace\CH592F_SSD1306\obj/../src/ssd1306/renderer.c:31
    I2C_SendData(0x00);     // Command mode
     9ea:	5aa010ef          	jal	ra,1f94 <I2C_SendData>
C:\MRS_DATA\workspace\CH592F_SSD1306\obj/../src/ssd1306/renderer.c:32
    while (!I2C_CheckEvent(I2C_EVENT_MASTER_BYTE_TRANSMITTED));
     9ee:	08440413          	addi	s0,s0,132 # 70084 <_data_lma+0x697dc>
     9f2:	8522                	mv	a0,s0
     9f4:	5c2010ef          	jal	ra,1fb6 <I2C_CheckEvent>
     9f8:	dd6d                	beqz	a0,9f2 <OLED_Init+0x110>
C:\MRS_DATA\workspace\CH592F_SSD1306\obj/../src/ssd1306/renderer.c:33
    I2C_SendData(command);
     9fa:	08000513          	li	a0,128
C:\MRS_DATA\workspace\CH592F_SSD1306\obj/../src/ssd1306/renderer.c:34
    while (!I2C_CheckEvent(I2C_EVENT_MASTER_BYTE_TRANSMITTED));
     9fe:	00070437          	lui	s0,0x70
C:\MRS_DATA\workspace\CH592F_SSD1306\obj/../src/ssd1306/renderer.c:33
    I2C_SendData(command);
     a02:	592010ef          	jal	ra,1f94 <I2C_SendData>
C:\MRS_DATA\workspace\CH592F_SSD1306\obj/../src/ssd1306/renderer.c:34
    while (!I2C_CheckEvent(I2C_EVENT_MASTER_BYTE_TRANSMITTED));
     a06:	08440413          	addi	s0,s0,132 # 70084 <_data_lma+0x697dc>
     a0a:	8522                	mv	a0,s0
     a0c:	5aa010ef          	jal	ra,1fb6 <I2C_CheckEvent>
     a10:	dd6d                	beqz	a0,a0a <OLED_Init+0x128>
C:\MRS_DATA\workspace\CH592F_SSD1306\obj/../src/ssd1306/renderer.c:35
    I2C_GenerateSTOP(ENABLE);
     a12:	4505                	li	a0,1
     a14:	55a010ef          	jal	ra,1f6e <I2C_GenerateSTOP>
C:\MRS_DATA\workspace\CH592F_SSD1306\obj/../src/ssd1306/renderer.c:27
    I2C_GenerateSTART(ENABLE);
     a18:	4505                	li	a0,1
C:\MRS_DATA\workspace\CH592F_SSD1306\obj/../src/ssd1306/renderer.c:28
    while (!I2C_CheckEvent(I2C_EVENT_MASTER_MODE_SELECT));
     a1a:	00030437          	lui	s0,0x30
C:\MRS_DATA\workspace\CH592F_SSD1306\obj/../src/ssd1306/renderer.c:27
    I2C_GenerateSTART(ENABLE);
     a1e:	52a010ef          	jal	ra,1f48 <I2C_GenerateSTART>
C:\MRS_DATA\workspace\CH592F_SSD1306\obj/../src/ssd1306/renderer.c:28
    while (!I2C_CheckEvent(I2C_EVENT_MASTER_MODE_SELECT));
     a22:	0405                	addi	s0,s0,1
     a24:	8522                	mv	a0,s0
     a26:	590010ef          	jal	ra,1fb6 <I2C_CheckEvent>
     a2a:	dd6d                	beqz	a0,a24 <OLED_Init+0x142>
C:\MRS_DATA\workspace\CH592F_SSD1306\obj/../src/ssd1306/renderer.c:29
    I2C_Send7bitAddress(OLED_I2C_ADDR << 1, I2C_Direction_Transmitter);
     a2c:	4581                	li	a1,0
     a2e:	07800513          	li	a0,120
C:\MRS_DATA\workspace\CH592F_SSD1306\obj/../src/ssd1306/renderer.c:30
    while (!I2C_CheckEvent(I2C_EVENT_MASTER_TRANSMITTER_MODE_SELECTED));
     a32:	00070437          	lui	s0,0x70
C:\MRS_DATA\workspace\CH592F_SSD1306\obj/../src/ssd1306/renderer.c:29
    I2C_Send7bitAddress(OLED_I2C_ADDR << 1, I2C_Direction_Transmitter);
     a36:	568010ef          	jal	ra,1f9e <I2C_Send7bitAddress>
C:\MRS_DATA\workspace\CH592F_SSD1306\obj/../src/ssd1306/renderer.c:30
    while (!I2C_CheckEvent(I2C_EVENT_MASTER_TRANSMITTER_MODE_SELECTED));
     a3a:	08240413          	addi	s0,s0,130 # 70082 <_data_lma+0x697da>
     a3e:	8522                	mv	a0,s0
     a40:	576010ef          	jal	ra,1fb6 <I2C_CheckEvent>
     a44:	dd6d                	beqz	a0,a3e <OLED_Init+0x15c>
C:\MRS_DATA\workspace\CH592F_SSD1306\obj/../src/ssd1306/renderer.c:31
    I2C_SendData(0x00);     // Command mode
     a46:	4501                	li	a0,0
C:\MRS_DATA\workspace\CH592F_SSD1306\obj/../src/ssd1306/renderer.c:32
    while (!I2C_CheckEvent(I2C_EVENT_MASTER_BYTE_TRANSMITTED));
     a48:	00070437          	lui	s0,0x70
C:\MRS_DATA\workspace\CH592F_SSD1306\obj/../src/ssd1306/renderer.c:31
    I2C_SendData(0x00);     // Command mode
     a4c:	548010ef          	jal	ra,1f94 <I2C_SendData>
C:\MRS_DATA\workspace\CH592F_SSD1306\obj/../src/ssd1306/renderer.c:32
    while (!I2C_CheckEvent(I2C_EVENT_MASTER_BYTE_TRANSMITTED));
     a50:	08440413          	addi	s0,s0,132 # 70084 <_data_lma+0x697dc>
     a54:	8522                	mv	a0,s0
     a56:	560010ef          	jal	ra,1fb6 <I2C_CheckEvent>
     a5a:	dd6d                	beqz	a0,a54 <OLED_Init+0x172>
C:\MRS_DATA\workspace\CH592F_SSD1306\obj/../src/ssd1306/renderer.c:33
    I2C_SendData(command);
     a5c:	0a800513          	li	a0,168
C:\MRS_DATA\workspace\CH592F_SSD1306\obj/../src/ssd1306/renderer.c:34
    while (!I2C_CheckEvent(I2C_EVENT_MASTER_BYTE_TRANSMITTED));
     a60:	00070437          	lui	s0,0x70
C:\MRS_DATA\workspace\CH592F_SSD1306\obj/../src/ssd1306/renderer.c:33
    I2C_SendData(command);
     a64:	530010ef          	jal	ra,1f94 <I2C_SendData>
C:\MRS_DATA\workspace\CH592F_SSD1306\obj/../src/ssd1306/renderer.c:34
    while (!I2C_CheckEvent(I2C_EVENT_MASTER_BYTE_TRANSMITTED));
     a68:	08440413          	addi	s0,s0,132 # 70084 <_data_lma+0x697dc>
     a6c:	8522                	mv	a0,s0
     a6e:	548010ef          	jal	ra,1fb6 <I2C_CheckEvent>
     a72:	dd6d                	beqz	a0,a6c <OLED_Init+0x18a>
C:\MRS_DATA\workspace\CH592F_SSD1306\obj/../src/ssd1306/renderer.c:35
    I2C_GenerateSTOP(ENABLE);
     a74:	4505                	li	a0,1
     a76:	4f8010ef          	jal	ra,1f6e <I2C_GenerateSTOP>
C:\MRS_DATA\workspace\CH592F_SSD1306\obj/../src/ssd1306/renderer.c:27
    I2C_GenerateSTART(ENABLE);
     a7a:	4505                	li	a0,1
C:\MRS_DATA\workspace\CH592F_SSD1306\obj/../src/ssd1306/renderer.c:28
    while (!I2C_CheckEvent(I2C_EVENT_MASTER_MODE_SELECT));
     a7c:	00030437          	lui	s0,0x30
C:\MRS_DATA\workspace\CH592F_SSD1306\obj/../src/ssd1306/renderer.c:27
    I2C_GenerateSTART(ENABLE);
     a80:	4c8010ef          	jal	ra,1f48 <I2C_GenerateSTART>
C:\MRS_DATA\workspace\CH592F_SSD1306\obj/../src/ssd1306/renderer.c:28
    while (!I2C_CheckEvent(I2C_EVENT_MASTER_MODE_SELECT));
     a84:	0405                	addi	s0,s0,1
     a86:	8522                	mv	a0,s0
     a88:	52e010ef          	jal	ra,1fb6 <I2C_CheckEvent>
     a8c:	dd6d                	beqz	a0,a86 <OLED_Init+0x1a4>
C:\MRS_DATA\workspace\CH592F_SSD1306\obj/../src/ssd1306/renderer.c:29
    I2C_Send7bitAddress(OLED_I2C_ADDR << 1, I2C_Direction_Transmitter);
     a8e:	4581                	li	a1,0
     a90:	07800513          	li	a0,120
C:\MRS_DATA\workspace\CH592F_SSD1306\obj/../src/ssd1306/renderer.c:30
    while (!I2C_CheckEvent(I2C_EVENT_MASTER_TRANSMITTER_MODE_SELECTED));
     a94:	00070437          	lui	s0,0x70
C:\MRS_DATA\workspace\CH592F_SSD1306\obj/../src/ssd1306/renderer.c:29
    I2C_Send7bitAddress(OLED_I2C_ADDR << 1, I2C_Direction_Transmitter);
     a98:	506010ef          	jal	ra,1f9e <I2C_Send7bitAddress>
C:\MRS_DATA\workspace\CH592F_SSD1306\obj/../src/ssd1306/renderer.c:30
    while (!I2C_CheckEvent(I2C_EVENT_MASTER_TRANSMITTER_MODE_SELECTED));
     a9c:	08240413          	addi	s0,s0,130 # 70082 <_data_lma+0x697da>
     aa0:	8522                	mv	a0,s0
     aa2:	514010ef          	jal	ra,1fb6 <I2C_CheckEvent>
     aa6:	dd6d                	beqz	a0,aa0 <OLED_Init+0x1be>
C:\MRS_DATA\workspace\CH592F_SSD1306\obj/../src/ssd1306/renderer.c:31
    I2C_SendData(0x00);     // Command mode
     aa8:	4501                	li	a0,0
C:\MRS_DATA\workspace\CH592F_SSD1306\obj/../src/ssd1306/renderer.c:32
    while (!I2C_CheckEvent(I2C_EVENT_MASTER_BYTE_TRANSMITTED));
     aaa:	00070437          	lui	s0,0x70
C:\MRS_DATA\workspace\CH592F_SSD1306\obj/../src/ssd1306/renderer.c:31
    I2C_SendData(0x00);     // Command mode
     aae:	4e6010ef          	jal	ra,1f94 <I2C_SendData>
C:\MRS_DATA\workspace\CH592F_SSD1306\obj/../src/ssd1306/renderer.c:32
    while (!I2C_CheckEvent(I2C_EVENT_MASTER_BYTE_TRANSMITTED));
     ab2:	08440413          	addi	s0,s0,132 # 70084 <_data_lma+0x697dc>
     ab6:	8522                	mv	a0,s0
     ab8:	4fe010ef          	jal	ra,1fb6 <I2C_CheckEvent>
     abc:	dd6d                	beqz	a0,ab6 <OLED_Init+0x1d4>
C:\MRS_DATA\workspace\CH592F_SSD1306\obj/../src/ssd1306/renderer.c:33
    I2C_SendData(command);
     abe:	457d                	li	a0,31
C:\MRS_DATA\workspace\CH592F_SSD1306\obj/../src/ssd1306/renderer.c:34
    while (!I2C_CheckEvent(I2C_EVENT_MASTER_BYTE_TRANSMITTED));
     ac0:	00070437          	lui	s0,0x70
C:\MRS_DATA\workspace\CH592F_SSD1306\obj/../src/ssd1306/renderer.c:33
    I2C_SendData(command);
     ac4:	4d0010ef          	jal	ra,1f94 <I2C_SendData>
C:\MRS_DATA\workspace\CH592F_SSD1306\obj/../src/ssd1306/renderer.c:34
    while (!I2C_CheckEvent(I2C_EVENT_MASTER_BYTE_TRANSMITTED));
     ac8:	08440413          	addi	s0,s0,132 # 70084 <_data_lma+0x697dc>
     acc:	8522                	mv	a0,s0
     ace:	4e8010ef          	jal	ra,1fb6 <I2C_CheckEvent>
     ad2:	dd6d                	beqz	a0,acc <OLED_Init+0x1ea>
C:\MRS_DATA\workspace\CH592F_SSD1306\obj/../src/ssd1306/renderer.c:35
    I2C_GenerateSTOP(ENABLE);
     ad4:	4505                	li	a0,1
     ad6:	498010ef          	jal	ra,1f6e <I2C_GenerateSTOP>
C:\MRS_DATA\workspace\CH592F_SSD1306\obj/../src/ssd1306/renderer.c:27
    I2C_GenerateSTART(ENABLE);
     ada:	4505                	li	a0,1
C:\MRS_DATA\workspace\CH592F_SSD1306\obj/../src/ssd1306/renderer.c:28
    while (!I2C_CheckEvent(I2C_EVENT_MASTER_MODE_SELECT));
     adc:	00030437          	lui	s0,0x30
C:\MRS_DATA\workspace\CH592F_SSD1306\obj/../src/ssd1306/renderer.c:27
    I2C_GenerateSTART(ENABLE);
     ae0:	468010ef          	jal	ra,1f48 <I2C_GenerateSTART>
C:\MRS_DATA\workspace\CH592F_SSD1306\obj/../src/ssd1306/renderer.c:28
    while (!I2C_CheckEvent(I2C_EVENT_MASTER_MODE_SELECT));
     ae4:	0405                	addi	s0,s0,1
     ae6:	8522                	mv	a0,s0
     ae8:	4ce010ef          	jal	ra,1fb6 <I2C_CheckEvent>
     aec:	dd6d                	beqz	a0,ae6 <OLED_Init+0x204>
C:\MRS_DATA\workspace\CH592F_SSD1306\obj/../src/ssd1306/renderer.c:29
    I2C_Send7bitAddress(OLED_I2C_ADDR << 1, I2C_Direction_Transmitter);
     aee:	4581                	li	a1,0
     af0:	07800513          	li	a0,120
C:\MRS_DATA\workspace\CH592F_SSD1306\obj/../src/ssd1306/renderer.c:30
    while (!I2C_CheckEvent(I2C_EVENT_MASTER_TRANSMITTER_MODE_SELECTED));
     af4:	00070437          	lui	s0,0x70
C:\MRS_DATA\workspace\CH592F_SSD1306\obj/../src/ssd1306/renderer.c:29
    I2C_Send7bitAddress(OLED_I2C_ADDR << 1, I2C_Direction_Transmitter);
     af8:	4a6010ef          	jal	ra,1f9e <I2C_Send7bitAddress>
C:\MRS_DATA\workspace\CH592F_SSD1306\obj/../src/ssd1306/renderer.c:30
    while (!I2C_CheckEvent(I2C_EVENT_MASTER_TRANSMITTER_MODE_SELECTED));
     afc:	08240413          	addi	s0,s0,130 # 70082 <_data_lma+0x697da>
     b00:	8522                	mv	a0,s0
     b02:	4b4010ef          	jal	ra,1fb6 <I2C_CheckEvent>
     b06:	dd6d                	beqz	a0,b00 <OLED_Init+0x21e>
C:\MRS_DATA\workspace\CH592F_SSD1306\obj/../src/ssd1306/renderer.c:31
    I2C_SendData(0x00);     // Command mode
     b08:	4501                	li	a0,0
C:\MRS_DATA\workspace\CH592F_SSD1306\obj/../src/ssd1306/renderer.c:32
    while (!I2C_CheckEvent(I2C_EVENT_MASTER_BYTE_TRANSMITTED));
     b0a:	00070437          	lui	s0,0x70
C:\MRS_DATA\workspace\CH592F_SSD1306\obj/../src/ssd1306/renderer.c:31
    I2C_SendData(0x00);     // Command mode
     b0e:	486010ef          	jal	ra,1f94 <I2C_SendData>
C:\MRS_DATA\workspace\CH592F_SSD1306\obj/../src/ssd1306/renderer.c:32
    while (!I2C_CheckEvent(I2C_EVENT_MASTER_BYTE_TRANSMITTED));
     b12:	08440413          	addi	s0,s0,132 # 70084 <_data_lma+0x697dc>
     b16:	8522                	mv	a0,s0
     b18:	49e010ef          	jal	ra,1fb6 <I2C_CheckEvent>
     b1c:	dd6d                	beqz	a0,b16 <OLED_Init+0x234>
C:\MRS_DATA\workspace\CH592F_SSD1306\obj/../src/ssd1306/renderer.c:33
    I2C_SendData(command);
     b1e:	0d300513          	li	a0,211
C:\MRS_DATA\workspace\CH592F_SSD1306\obj/../src/ssd1306/renderer.c:34
    while (!I2C_CheckEvent(I2C_EVENT_MASTER_BYTE_TRANSMITTED));
     b22:	00070437          	lui	s0,0x70
C:\MRS_DATA\workspace\CH592F_SSD1306\obj/../src/ssd1306/renderer.c:33
    I2C_SendData(command);
     b26:	46e010ef          	jal	ra,1f94 <I2C_SendData>
C:\MRS_DATA\workspace\CH592F_SSD1306\obj/../src/ssd1306/renderer.c:34
    while (!I2C_CheckEvent(I2C_EVENT_MASTER_BYTE_TRANSMITTED));
     b2a:	08440413          	addi	s0,s0,132 # 70084 <_data_lma+0x697dc>
     b2e:	8522                	mv	a0,s0
     b30:	486010ef          	jal	ra,1fb6 <I2C_CheckEvent>
     b34:	dd6d                	beqz	a0,b2e <OLED_Init+0x24c>
C:\MRS_DATA\workspace\CH592F_SSD1306\obj/../src/ssd1306/renderer.c:35
    I2C_GenerateSTOP(ENABLE);
     b36:	4505                	li	a0,1
     b38:	436010ef          	jal	ra,1f6e <I2C_GenerateSTOP>
C:\MRS_DATA\workspace\CH592F_SSD1306\obj/../src/ssd1306/renderer.c:27
    I2C_GenerateSTART(ENABLE);
     b3c:	4505                	li	a0,1
C:\MRS_DATA\workspace\CH592F_SSD1306\obj/../src/ssd1306/renderer.c:28
    while (!I2C_CheckEvent(I2C_EVENT_MASTER_MODE_SELECT));
     b3e:	00030437          	lui	s0,0x30
C:\MRS_DATA\workspace\CH592F_SSD1306\obj/../src/ssd1306/renderer.c:27
    I2C_GenerateSTART(ENABLE);
     b42:	406010ef          	jal	ra,1f48 <I2C_GenerateSTART>
C:\MRS_DATA\workspace\CH592F_SSD1306\obj/../src/ssd1306/renderer.c:28
    while (!I2C_CheckEvent(I2C_EVENT_MASTER_MODE_SELECT));
     b46:	0405                	addi	s0,s0,1
     b48:	8522                	mv	a0,s0
     b4a:	46c010ef          	jal	ra,1fb6 <I2C_CheckEvent>
     b4e:	dd6d                	beqz	a0,b48 <OLED_Init+0x266>
C:\MRS_DATA\workspace\CH592F_SSD1306\obj/../src/ssd1306/renderer.c:29
    I2C_Send7bitAddress(OLED_I2C_ADDR << 1, I2C_Direction_Transmitter);
     b50:	4581                	li	a1,0
     b52:	07800513          	li	a0,120
C:\MRS_DATA\workspace\CH592F_SSD1306\obj/../src/ssd1306/renderer.c:30
    while (!I2C_CheckEvent(I2C_EVENT_MASTER_TRANSMITTER_MODE_SELECTED));
     b56:	00070437          	lui	s0,0x70
C:\MRS_DATA\workspace\CH592F_SSD1306\obj/../src/ssd1306/renderer.c:29
    I2C_Send7bitAddress(OLED_I2C_ADDR << 1, I2C_Direction_Transmitter);
     b5a:	444010ef          	jal	ra,1f9e <I2C_Send7bitAddress>
C:\MRS_DATA\workspace\CH592F_SSD1306\obj/../src/ssd1306/renderer.c:30
    while (!I2C_CheckEvent(I2C_EVENT_MASTER_TRANSMITTER_MODE_SELECTED));
     b5e:	08240413          	addi	s0,s0,130 # 70082 <_data_lma+0x697da>
     b62:	8522                	mv	a0,s0
     b64:	452010ef          	jal	ra,1fb6 <I2C_CheckEvent>
     b68:	dd6d                	beqz	a0,b62 <OLED_Init+0x280>
C:\MRS_DATA\workspace\CH592F_SSD1306\obj/../src/ssd1306/renderer.c:31
    I2C_SendData(0x00);     // Command mode
     b6a:	4501                	li	a0,0
C:\MRS_DATA\workspace\CH592F_SSD1306\obj/../src/ssd1306/renderer.c:32
    while (!I2C_CheckEvent(I2C_EVENT_MASTER_BYTE_TRANSMITTED));
     b6c:	00070437          	lui	s0,0x70
C:\MRS_DATA\workspace\CH592F_SSD1306\obj/../src/ssd1306/renderer.c:31
    I2C_SendData(0x00);     // Command mode
     b70:	424010ef          	jal	ra,1f94 <I2C_SendData>
C:\MRS_DATA\workspace\CH592F_SSD1306\obj/../src/ssd1306/renderer.c:32
    while (!I2C_CheckEvent(I2C_EVENT_MASTER_BYTE_TRANSMITTED));
     b74:	08440413          	addi	s0,s0,132 # 70084 <_data_lma+0x697dc>
     b78:	8522                	mv	a0,s0
     b7a:	43c010ef          	jal	ra,1fb6 <I2C_CheckEvent>
     b7e:	dd6d                	beqz	a0,b78 <OLED_Init+0x296>
C:\MRS_DATA\workspace\CH592F_SSD1306\obj/../src/ssd1306/renderer.c:33
    I2C_SendData(command);
     b80:	4501                	li	a0,0
C:\MRS_DATA\workspace\CH592F_SSD1306\obj/../src/ssd1306/renderer.c:34
    while (!I2C_CheckEvent(I2C_EVENT_MASTER_BYTE_TRANSMITTED));
     b82:	00070437          	lui	s0,0x70
C:\MRS_DATA\workspace\CH592F_SSD1306\obj/../src/ssd1306/renderer.c:33
    I2C_SendData(command);
     b86:	40e010ef          	jal	ra,1f94 <I2C_SendData>
C:\MRS_DATA\workspace\CH592F_SSD1306\obj/../src/ssd1306/renderer.c:34
    while (!I2C_CheckEvent(I2C_EVENT_MASTER_BYTE_TRANSMITTED));
     b8a:	08440413          	addi	s0,s0,132 # 70084 <_data_lma+0x697dc>
     b8e:	8522                	mv	a0,s0
     b90:	426010ef          	jal	ra,1fb6 <I2C_CheckEvent>
     b94:	dd6d                	beqz	a0,b8e <OLED_Init+0x2ac>
C:\MRS_DATA\workspace\CH592F_SSD1306\obj/../src/ssd1306/renderer.c:35
    I2C_GenerateSTOP(ENABLE);
     b96:	4505                	li	a0,1
     b98:	3d6010ef          	jal	ra,1f6e <I2C_GenerateSTOP>
C:\MRS_DATA\workspace\CH592F_SSD1306\obj/../src/ssd1306/renderer.c:27
    I2C_GenerateSTART(ENABLE);
     b9c:	4505                	li	a0,1
C:\MRS_DATA\workspace\CH592F_SSD1306\obj/../src/ssd1306/renderer.c:28
    while (!I2C_CheckEvent(I2C_EVENT_MASTER_MODE_SELECT));
     b9e:	00030437          	lui	s0,0x30
C:\MRS_DATA\workspace\CH592F_SSD1306\obj/../src/ssd1306/renderer.c:27
    I2C_GenerateSTART(ENABLE);
     ba2:	3a6010ef          	jal	ra,1f48 <I2C_GenerateSTART>
C:\MRS_DATA\workspace\CH592F_SSD1306\obj/../src/ssd1306/renderer.c:28
    while (!I2C_CheckEvent(I2C_EVENT_MASTER_MODE_SELECT));
     ba6:	0405                	addi	s0,s0,1
     ba8:	8522                	mv	a0,s0
     baa:	40c010ef          	jal	ra,1fb6 <I2C_CheckEvent>
     bae:	dd6d                	beqz	a0,ba8 <OLED_Init+0x2c6>
C:\MRS_DATA\workspace\CH592F_SSD1306\obj/../src/ssd1306/renderer.c:29
    I2C_Send7bitAddress(OLED_I2C_ADDR << 1, I2C_Direction_Transmitter);
     bb0:	4581                	li	a1,0
     bb2:	07800513          	li	a0,120
C:\MRS_DATA\workspace\CH592F_SSD1306\obj/../src/ssd1306/renderer.c:30
    while (!I2C_CheckEvent(I2C_EVENT_MASTER_TRANSMITTER_MODE_SELECTED));
     bb6:	00070437          	lui	s0,0x70
C:\MRS_DATA\workspace\CH592F_SSD1306\obj/../src/ssd1306/renderer.c:29
    I2C_Send7bitAddress(OLED_I2C_ADDR << 1, I2C_Direction_Transmitter);
     bba:	3e4010ef          	jal	ra,1f9e <I2C_Send7bitAddress>
C:\MRS_DATA\workspace\CH592F_SSD1306\obj/../src/ssd1306/renderer.c:30
    while (!I2C_CheckEvent(I2C_EVENT_MASTER_TRANSMITTER_MODE_SELECTED));
     bbe:	08240413          	addi	s0,s0,130 # 70082 <_data_lma+0x697da>
     bc2:	8522                	mv	a0,s0
     bc4:	3f2010ef          	jal	ra,1fb6 <I2C_CheckEvent>
     bc8:	dd6d                	beqz	a0,bc2 <OLED_Init+0x2e0>
C:\MRS_DATA\workspace\CH592F_SSD1306\obj/../src/ssd1306/renderer.c:31
    I2C_SendData(0x00);     // Command mode
     bca:	4501                	li	a0,0
C:\MRS_DATA\workspace\CH592F_SSD1306\obj/../src/ssd1306/renderer.c:32
    while (!I2C_CheckEvent(I2C_EVENT_MASTER_BYTE_TRANSMITTED));
     bcc:	00070437          	lui	s0,0x70
C:\MRS_DATA\workspace\CH592F_SSD1306\obj/../src/ssd1306/renderer.c:31
    I2C_SendData(0x00);     // Command mode
     bd0:	3c4010ef          	jal	ra,1f94 <I2C_SendData>
C:\MRS_DATA\workspace\CH592F_SSD1306\obj/../src/ssd1306/renderer.c:32
    while (!I2C_CheckEvent(I2C_EVENT_MASTER_BYTE_TRANSMITTED));
     bd4:	08440413          	addi	s0,s0,132 # 70084 <_data_lma+0x697dc>
     bd8:	8522                	mv	a0,s0
     bda:	3dc010ef          	jal	ra,1fb6 <I2C_CheckEvent>
     bde:	dd6d                	beqz	a0,bd8 <OLED_Init+0x2f6>
C:\MRS_DATA\workspace\CH592F_SSD1306\obj/../src/ssd1306/renderer.c:33
    I2C_SendData(command);
     be0:	04000513          	li	a0,64
C:\MRS_DATA\workspace\CH592F_SSD1306\obj/../src/ssd1306/renderer.c:34
    while (!I2C_CheckEvent(I2C_EVENT_MASTER_BYTE_TRANSMITTED));
     be4:	00070437          	lui	s0,0x70
C:\MRS_DATA\workspace\CH592F_SSD1306\obj/../src/ssd1306/renderer.c:33
    I2C_SendData(command);
     be8:	3ac010ef          	jal	ra,1f94 <I2C_SendData>
C:\MRS_DATA\workspace\CH592F_SSD1306\obj/../src/ssd1306/renderer.c:34
    while (!I2C_CheckEvent(I2C_EVENT_MASTER_BYTE_TRANSMITTED));
     bec:	08440413          	addi	s0,s0,132 # 70084 <_data_lma+0x697dc>
     bf0:	8522                	mv	a0,s0
     bf2:	3c4010ef          	jal	ra,1fb6 <I2C_CheckEvent>
     bf6:	dd6d                	beqz	a0,bf0 <OLED_Init+0x30e>
C:\MRS_DATA\workspace\CH592F_SSD1306\obj/../src/ssd1306/renderer.c:35
    I2C_GenerateSTOP(ENABLE);
     bf8:	4505                	li	a0,1
     bfa:	374010ef          	jal	ra,1f6e <I2C_GenerateSTOP>
C:\MRS_DATA\workspace\CH592F_SSD1306\obj/../src/ssd1306/renderer.c:27
    I2C_GenerateSTART(ENABLE);
     bfe:	4505                	li	a0,1
C:\MRS_DATA\workspace\CH592F_SSD1306\obj/../src/ssd1306/renderer.c:28
    while (!I2C_CheckEvent(I2C_EVENT_MASTER_MODE_SELECT));
     c00:	00030437          	lui	s0,0x30
C:\MRS_DATA\workspace\CH592F_SSD1306\obj/../src/ssd1306/renderer.c:27
    I2C_GenerateSTART(ENABLE);
     c04:	344010ef          	jal	ra,1f48 <I2C_GenerateSTART>
C:\MRS_DATA\workspace\CH592F_SSD1306\obj/../src/ssd1306/renderer.c:28
    while (!I2C_CheckEvent(I2C_EVENT_MASTER_MODE_SELECT));
     c08:	0405                	addi	s0,s0,1
     c0a:	8522                	mv	a0,s0
     c0c:	3aa010ef          	jal	ra,1fb6 <I2C_CheckEvent>
     c10:	dd6d                	beqz	a0,c0a <OLED_Init+0x328>
C:\MRS_DATA\workspace\CH592F_SSD1306\obj/../src/ssd1306/renderer.c:29
    I2C_Send7bitAddress(OLED_I2C_ADDR << 1, I2C_Direction_Transmitter);
     c12:	4581                	li	a1,0
     c14:	07800513          	li	a0,120
C:\MRS_DATA\workspace\CH592F_SSD1306\obj/../src/ssd1306/renderer.c:30
    while (!I2C_CheckEvent(I2C_EVENT_MASTER_TRANSMITTER_MODE_SELECTED));
     c18:	00070437          	lui	s0,0x70
C:\MRS_DATA\workspace\CH592F_SSD1306\obj/../src/ssd1306/renderer.c:29
    I2C_Send7bitAddress(OLED_I2C_ADDR << 1, I2C_Direction_Transmitter);
     c1c:	382010ef          	jal	ra,1f9e <I2C_Send7bitAddress>
C:\MRS_DATA\workspace\CH592F_SSD1306\obj/../src/ssd1306/renderer.c:30
    while (!I2C_CheckEvent(I2C_EVENT_MASTER_TRANSMITTER_MODE_SELECTED));
     c20:	08240413          	addi	s0,s0,130 # 70082 <_data_lma+0x697da>
     c24:	8522                	mv	a0,s0
     c26:	390010ef          	jal	ra,1fb6 <I2C_CheckEvent>
     c2a:	dd6d                	beqz	a0,c24 <OLED_Init+0x342>
C:\MRS_DATA\workspace\CH592F_SSD1306\obj/../src/ssd1306/renderer.c:31
    I2C_SendData(0x00);     // Command mode
     c2c:	4501                	li	a0,0
C:\MRS_DATA\workspace\CH592F_SSD1306\obj/../src/ssd1306/renderer.c:32
    while (!I2C_CheckEvent(I2C_EVENT_MASTER_BYTE_TRANSMITTED));
     c2e:	00070437          	lui	s0,0x70
C:\MRS_DATA\workspace\CH592F_SSD1306\obj/../src/ssd1306/renderer.c:31
    I2C_SendData(0x00);     // Command mode
     c32:	362010ef          	jal	ra,1f94 <I2C_SendData>
C:\MRS_DATA\workspace\CH592F_SSD1306\obj/../src/ssd1306/renderer.c:32
    while (!I2C_CheckEvent(I2C_EVENT_MASTER_BYTE_TRANSMITTED));
     c36:	08440413          	addi	s0,s0,132 # 70084 <_data_lma+0x697dc>
     c3a:	8522                	mv	a0,s0
     c3c:	37a010ef          	jal	ra,1fb6 <I2C_CheckEvent>
     c40:	dd6d                	beqz	a0,c3a <OLED_Init+0x358>
C:\MRS_DATA\workspace\CH592F_SSD1306\obj/../src/ssd1306/renderer.c:33
    I2C_SendData(command);
     c42:	08d00513          	li	a0,141
C:\MRS_DATA\workspace\CH592F_SSD1306\obj/../src/ssd1306/renderer.c:34
    while (!I2C_CheckEvent(I2C_EVENT_MASTER_BYTE_TRANSMITTED));
     c46:	00070437          	lui	s0,0x70
C:\MRS_DATA\workspace\CH592F_SSD1306\obj/../src/ssd1306/renderer.c:33
    I2C_SendData(command);
     c4a:	34a010ef          	jal	ra,1f94 <I2C_SendData>
C:\MRS_DATA\workspace\CH592F_SSD1306\obj/../src/ssd1306/renderer.c:34
    while (!I2C_CheckEvent(I2C_EVENT_MASTER_BYTE_TRANSMITTED));
     c4e:	08440413          	addi	s0,s0,132 # 70084 <_data_lma+0x697dc>
     c52:	8522                	mv	a0,s0
     c54:	362010ef          	jal	ra,1fb6 <I2C_CheckEvent>
     c58:	dd6d                	beqz	a0,c52 <OLED_Init+0x370>
C:\MRS_DATA\workspace\CH592F_SSD1306\obj/../src/ssd1306/renderer.c:35
    I2C_GenerateSTOP(ENABLE);
     c5a:	4505                	li	a0,1
     c5c:	312010ef          	jal	ra,1f6e <I2C_GenerateSTOP>
C:\MRS_DATA\workspace\CH592F_SSD1306\obj/../src/ssd1306/renderer.c:27
    I2C_GenerateSTART(ENABLE);
     c60:	4505                	li	a0,1
C:\MRS_DATA\workspace\CH592F_SSD1306\obj/../src/ssd1306/renderer.c:28
    while (!I2C_CheckEvent(I2C_EVENT_MASTER_MODE_SELECT));
     c62:	00030437          	lui	s0,0x30
C:\MRS_DATA\workspace\CH592F_SSD1306\obj/../src/ssd1306/renderer.c:27
    I2C_GenerateSTART(ENABLE);
     c66:	2e2010ef          	jal	ra,1f48 <I2C_GenerateSTART>
C:\MRS_DATA\workspace\CH592F_SSD1306\obj/../src/ssd1306/renderer.c:28
    while (!I2C_CheckEvent(I2C_EVENT_MASTER_MODE_SELECT));
     c6a:	0405                	addi	s0,s0,1
     c6c:	8522                	mv	a0,s0
     c6e:	348010ef          	jal	ra,1fb6 <I2C_CheckEvent>
     c72:	dd6d                	beqz	a0,c6c <OLED_Init+0x38a>
C:\MRS_DATA\workspace\CH592F_SSD1306\obj/../src/ssd1306/renderer.c:29
    I2C_Send7bitAddress(OLED_I2C_ADDR << 1, I2C_Direction_Transmitter);
     c74:	4581                	li	a1,0
     c76:	07800513          	li	a0,120
C:\MRS_DATA\workspace\CH592F_SSD1306\obj/../src/ssd1306/renderer.c:30
    while (!I2C_CheckEvent(I2C_EVENT_MASTER_TRANSMITTER_MODE_SELECTED));
     c7a:	00070437          	lui	s0,0x70
C:\MRS_DATA\workspace\CH592F_SSD1306\obj/../src/ssd1306/renderer.c:29
    I2C_Send7bitAddress(OLED_I2C_ADDR << 1, I2C_Direction_Transmitter);
     c7e:	320010ef          	jal	ra,1f9e <I2C_Send7bitAddress>
C:\MRS_DATA\workspace\CH592F_SSD1306\obj/../src/ssd1306/renderer.c:30
    while (!I2C_CheckEvent(I2C_EVENT_MASTER_TRANSMITTER_MODE_SELECTED));
     c82:	08240413          	addi	s0,s0,130 # 70082 <_data_lma+0x697da>
     c86:	8522                	mv	a0,s0
     c88:	32e010ef          	jal	ra,1fb6 <I2C_CheckEvent>
     c8c:	dd6d                	beqz	a0,c86 <OLED_Init+0x3a4>
C:\MRS_DATA\workspace\CH592F_SSD1306\obj/../src/ssd1306/renderer.c:31
    I2C_SendData(0x00);     // Command mode
     c8e:	4501                	li	a0,0
C:\MRS_DATA\workspace\CH592F_SSD1306\obj/../src/ssd1306/renderer.c:32
    while (!I2C_CheckEvent(I2C_EVENT_MASTER_BYTE_TRANSMITTED));
     c90:	00070437          	lui	s0,0x70
C:\MRS_DATA\workspace\CH592F_SSD1306\obj/../src/ssd1306/renderer.c:31
    I2C_SendData(0x00);     // Command mode
     c94:	300010ef          	jal	ra,1f94 <I2C_SendData>
C:\MRS_DATA\workspace\CH592F_SSD1306\obj/../src/ssd1306/renderer.c:32
    while (!I2C_CheckEvent(I2C_EVENT_MASTER_BYTE_TRANSMITTED));
     c98:	08440413          	addi	s0,s0,132 # 70084 <_data_lma+0x697dc>
     c9c:	8522                	mv	a0,s0
     c9e:	318010ef          	jal	ra,1fb6 <I2C_CheckEvent>
     ca2:	dd6d                	beqz	a0,c9c <OLED_Init+0x3ba>
C:\MRS_DATA\workspace\CH592F_SSD1306\obj/../src/ssd1306/renderer.c:33
    I2C_SendData(command);
     ca4:	4551                	li	a0,20
C:\MRS_DATA\workspace\CH592F_SSD1306\obj/../src/ssd1306/renderer.c:34
    while (!I2C_CheckEvent(I2C_EVENT_MASTER_BYTE_TRANSMITTED));
     ca6:	00070437          	lui	s0,0x70
C:\MRS_DATA\workspace\CH592F_SSD1306\obj/../src/ssd1306/renderer.c:33
    I2C_SendData(command);
     caa:	2ea010ef          	jal	ra,1f94 <I2C_SendData>
C:\MRS_DATA\workspace\CH592F_SSD1306\obj/../src/ssd1306/renderer.c:34
    while (!I2C_CheckEvent(I2C_EVENT_MASTER_BYTE_TRANSMITTED));
     cae:	08440413          	addi	s0,s0,132 # 70084 <_data_lma+0x697dc>
     cb2:	8522                	mv	a0,s0
     cb4:	302010ef          	jal	ra,1fb6 <I2C_CheckEvent>
     cb8:	dd6d                	beqz	a0,cb2 <OLED_Init+0x3d0>
C:\MRS_DATA\workspace\CH592F_SSD1306\obj/../src/ssd1306/renderer.c:35
    I2C_GenerateSTOP(ENABLE);
     cba:	4505                	li	a0,1
     cbc:	2b2010ef          	jal	ra,1f6e <I2C_GenerateSTOP>
C:\MRS_DATA\workspace\CH592F_SSD1306\obj/../src/ssd1306/renderer.c:27
    I2C_GenerateSTART(ENABLE);
     cc0:	4505                	li	a0,1
C:\MRS_DATA\workspace\CH592F_SSD1306\obj/../src/ssd1306/renderer.c:28
    while (!I2C_CheckEvent(I2C_EVENT_MASTER_MODE_SELECT));
     cc2:	00030437          	lui	s0,0x30
C:\MRS_DATA\workspace\CH592F_SSD1306\obj/../src/ssd1306/renderer.c:27
    I2C_GenerateSTART(ENABLE);
     cc6:	282010ef          	jal	ra,1f48 <I2C_GenerateSTART>
C:\MRS_DATA\workspace\CH592F_SSD1306\obj/../src/ssd1306/renderer.c:28
    while (!I2C_CheckEvent(I2C_EVENT_MASTER_MODE_SELECT));
     cca:	0405                	addi	s0,s0,1
     ccc:	8522                	mv	a0,s0
     cce:	2e8010ef          	jal	ra,1fb6 <I2C_CheckEvent>
     cd2:	dd6d                	beqz	a0,ccc <OLED_Init+0x3ea>
C:\MRS_DATA\workspace\CH592F_SSD1306\obj/../src/ssd1306/renderer.c:29
    I2C_Send7bitAddress(OLED_I2C_ADDR << 1, I2C_Direction_Transmitter);
     cd4:	4581                	li	a1,0
     cd6:	07800513          	li	a0,120
C:\MRS_DATA\workspace\CH592F_SSD1306\obj/../src/ssd1306/renderer.c:30
    while (!I2C_CheckEvent(I2C_EVENT_MASTER_TRANSMITTER_MODE_SELECTED));
     cda:	00070437          	lui	s0,0x70
C:\MRS_DATA\workspace\CH592F_SSD1306\obj/../src/ssd1306/renderer.c:29
    I2C_Send7bitAddress(OLED_I2C_ADDR << 1, I2C_Direction_Transmitter);
     cde:	2c0010ef          	jal	ra,1f9e <I2C_Send7bitAddress>
C:\MRS_DATA\workspace\CH592F_SSD1306\obj/../src/ssd1306/renderer.c:30
    while (!I2C_CheckEvent(I2C_EVENT_MASTER_TRANSMITTER_MODE_SELECTED));
     ce2:	08240413          	addi	s0,s0,130 # 70082 <_data_lma+0x697da>
     ce6:	8522                	mv	a0,s0
     ce8:	2ce010ef          	jal	ra,1fb6 <I2C_CheckEvent>
     cec:	dd6d                	beqz	a0,ce6 <OLED_Init+0x404>
C:\MRS_DATA\workspace\CH592F_SSD1306\obj/../src/ssd1306/renderer.c:31
    I2C_SendData(0x00);     // Command mode
     cee:	4501                	li	a0,0
C:\MRS_DATA\workspace\CH592F_SSD1306\obj/../src/ssd1306/renderer.c:32
    while (!I2C_CheckEvent(I2C_EVENT_MASTER_BYTE_TRANSMITTED));
     cf0:	00070437          	lui	s0,0x70
C:\MRS_DATA\workspace\CH592F_SSD1306\obj/../src/ssd1306/renderer.c:31
    I2C_SendData(0x00);     // Command mode
     cf4:	2a0010ef          	jal	ra,1f94 <I2C_SendData>
C:\MRS_DATA\workspace\CH592F_SSD1306\obj/../src/ssd1306/renderer.c:32
    while (!I2C_CheckEvent(I2C_EVENT_MASTER_BYTE_TRANSMITTED));
     cf8:	08440413          	addi	s0,s0,132 # 70084 <_data_lma+0x697dc>
     cfc:	8522                	mv	a0,s0
     cfe:	2b8010ef          	jal	ra,1fb6 <I2C_CheckEvent>
     d02:	dd6d                	beqz	a0,cfc <OLED_Init+0x41a>
C:\MRS_DATA\workspace\CH592F_SSD1306\obj/../src/ssd1306/renderer.c:33
    I2C_SendData(command);
     d04:	02000513          	li	a0,32
C:\MRS_DATA\workspace\CH592F_SSD1306\obj/../src/ssd1306/renderer.c:34
    while (!I2C_CheckEvent(I2C_EVENT_MASTER_BYTE_TRANSMITTED));
     d08:	00070437          	lui	s0,0x70
C:\MRS_DATA\workspace\CH592F_SSD1306\obj/../src/ssd1306/renderer.c:33
    I2C_SendData(command);
     d0c:	288010ef          	jal	ra,1f94 <I2C_SendData>
C:\MRS_DATA\workspace\CH592F_SSD1306\obj/../src/ssd1306/renderer.c:34
    while (!I2C_CheckEvent(I2C_EVENT_MASTER_BYTE_TRANSMITTED));
     d10:	08440413          	addi	s0,s0,132 # 70084 <_data_lma+0x697dc>
     d14:	8522                	mv	a0,s0
     d16:	2a0010ef          	jal	ra,1fb6 <I2C_CheckEvent>
     d1a:	dd6d                	beqz	a0,d14 <OLED_Init+0x432>
C:\MRS_DATA\workspace\CH592F_SSD1306\obj/../src/ssd1306/renderer.c:35
    I2C_GenerateSTOP(ENABLE);
     d1c:	4505                	li	a0,1
     d1e:	250010ef          	jal	ra,1f6e <I2C_GenerateSTOP>
C:\MRS_DATA\workspace\CH592F_SSD1306\obj/../src/ssd1306/renderer.c:27
    I2C_GenerateSTART(ENABLE);
     d22:	4505                	li	a0,1
C:\MRS_DATA\workspace\CH592F_SSD1306\obj/../src/ssd1306/renderer.c:28
    while (!I2C_CheckEvent(I2C_EVENT_MASTER_MODE_SELECT));
     d24:	00030437          	lui	s0,0x30
C:\MRS_DATA\workspace\CH592F_SSD1306\obj/../src/ssd1306/renderer.c:27
    I2C_GenerateSTART(ENABLE);
     d28:	220010ef          	jal	ra,1f48 <I2C_GenerateSTART>
C:\MRS_DATA\workspace\CH592F_SSD1306\obj/../src/ssd1306/renderer.c:28
    while (!I2C_CheckEvent(I2C_EVENT_MASTER_MODE_SELECT));
     d2c:	0405                	addi	s0,s0,1
     d2e:	8522                	mv	a0,s0
     d30:	286010ef          	jal	ra,1fb6 <I2C_CheckEvent>
     d34:	dd6d                	beqz	a0,d2e <OLED_Init+0x44c>
C:\MRS_DATA\workspace\CH592F_SSD1306\obj/../src/ssd1306/renderer.c:29
    I2C_Send7bitAddress(OLED_I2C_ADDR << 1, I2C_Direction_Transmitter);
     d36:	4581                	li	a1,0
     d38:	07800513          	li	a0,120
C:\MRS_DATA\workspace\CH592F_SSD1306\obj/../src/ssd1306/renderer.c:30
    while (!I2C_CheckEvent(I2C_EVENT_MASTER_TRANSMITTER_MODE_SELECTED));
     d3c:	00070437          	lui	s0,0x70
C:\MRS_DATA\workspace\CH592F_SSD1306\obj/../src/ssd1306/renderer.c:29
    I2C_Send7bitAddress(OLED_I2C_ADDR << 1, I2C_Direction_Transmitter);
     d40:	25e010ef          	jal	ra,1f9e <I2C_Send7bitAddress>
C:\MRS_DATA\workspace\CH592F_SSD1306\obj/../src/ssd1306/renderer.c:30
    while (!I2C_CheckEvent(I2C_EVENT_MASTER_TRANSMITTER_MODE_SELECTED));
     d44:	08240413          	addi	s0,s0,130 # 70082 <_data_lma+0x697da>
     d48:	8522                	mv	a0,s0
     d4a:	26c010ef          	jal	ra,1fb6 <I2C_CheckEvent>
     d4e:	dd6d                	beqz	a0,d48 <OLED_Init+0x466>
C:\MRS_DATA\workspace\CH592F_SSD1306\obj/../src/ssd1306/renderer.c:31
    I2C_SendData(0x00);     // Command mode
     d50:	4501                	li	a0,0
C:\MRS_DATA\workspace\CH592F_SSD1306\obj/../src/ssd1306/renderer.c:32
    while (!I2C_CheckEvent(I2C_EVENT_MASTER_BYTE_TRANSMITTED));
     d52:	00070437          	lui	s0,0x70
C:\MRS_DATA\workspace\CH592F_SSD1306\obj/../src/ssd1306/renderer.c:31
    I2C_SendData(0x00);     // Command mode
     d56:	23e010ef          	jal	ra,1f94 <I2C_SendData>
C:\MRS_DATA\workspace\CH592F_SSD1306\obj/../src/ssd1306/renderer.c:32
    while (!I2C_CheckEvent(I2C_EVENT_MASTER_BYTE_TRANSMITTED));
     d5a:	08440413          	addi	s0,s0,132 # 70084 <_data_lma+0x697dc>
     d5e:	8522                	mv	a0,s0
     d60:	256010ef          	jal	ra,1fb6 <I2C_CheckEvent>
     d64:	dd6d                	beqz	a0,d5e <OLED_Init+0x47c>
C:\MRS_DATA\workspace\CH592F_SSD1306\obj/../src/ssd1306/renderer.c:33
    I2C_SendData(command);
     d66:	4501                	li	a0,0
C:\MRS_DATA\workspace\CH592F_SSD1306\obj/../src/ssd1306/renderer.c:34
    while (!I2C_CheckEvent(I2C_EVENT_MASTER_BYTE_TRANSMITTED));
     d68:	00070437          	lui	s0,0x70
C:\MRS_DATA\workspace\CH592F_SSD1306\obj/../src/ssd1306/renderer.c:33
    I2C_SendData(command);
     d6c:	228010ef          	jal	ra,1f94 <I2C_SendData>
C:\MRS_DATA\workspace\CH592F_SSD1306\obj/../src/ssd1306/renderer.c:34
    while (!I2C_CheckEvent(I2C_EVENT_MASTER_BYTE_TRANSMITTED));
     d70:	08440413          	addi	s0,s0,132 # 70084 <_data_lma+0x697dc>
     d74:	8522                	mv	a0,s0
     d76:	240010ef          	jal	ra,1fb6 <I2C_CheckEvent>
     d7a:	dd6d                	beqz	a0,d74 <OLED_Init+0x492>
C:\MRS_DATA\workspace\CH592F_SSD1306\obj/../src/ssd1306/renderer.c:35
    I2C_GenerateSTOP(ENABLE);
     d7c:	4505                	li	a0,1
     d7e:	1f0010ef          	jal	ra,1f6e <I2C_GenerateSTOP>
C:\MRS_DATA\workspace\CH592F_SSD1306\obj/../src/ssd1306/renderer.c:27
    I2C_GenerateSTART(ENABLE);
     d82:	4505                	li	a0,1
C:\MRS_DATA\workspace\CH592F_SSD1306\obj/../src/ssd1306/renderer.c:28
    while (!I2C_CheckEvent(I2C_EVENT_MASTER_MODE_SELECT));
     d84:	00030437          	lui	s0,0x30
C:\MRS_DATA\workspace\CH592F_SSD1306\obj/../src/ssd1306/renderer.c:27
    I2C_GenerateSTART(ENABLE);
     d88:	1c0010ef          	jal	ra,1f48 <I2C_GenerateSTART>
C:\MRS_DATA\workspace\CH592F_SSD1306\obj/../src/ssd1306/renderer.c:28
    while (!I2C_CheckEvent(I2C_EVENT_MASTER_MODE_SELECT));
     d8c:	0405                	addi	s0,s0,1
     d8e:	8522                	mv	a0,s0
     d90:	226010ef          	jal	ra,1fb6 <I2C_CheckEvent>
     d94:	dd6d                	beqz	a0,d8e <OLED_Init+0x4ac>
C:\MRS_DATA\workspace\CH592F_SSD1306\obj/../src/ssd1306/renderer.c:29
    I2C_Send7bitAddress(OLED_I2C_ADDR << 1, I2C_Direction_Transmitter);
     d96:	4581                	li	a1,0
     d98:	07800513          	li	a0,120
C:\MRS_DATA\workspace\CH592F_SSD1306\obj/../src/ssd1306/renderer.c:30
    while (!I2C_CheckEvent(I2C_EVENT_MASTER_TRANSMITTER_MODE_SELECTED));
     d9c:	00070437          	lui	s0,0x70
C:\MRS_DATA\workspace\CH592F_SSD1306\obj/../src/ssd1306/renderer.c:29
    I2C_Send7bitAddress(OLED_I2C_ADDR << 1, I2C_Direction_Transmitter);
     da0:	1fe010ef          	jal	ra,1f9e <I2C_Send7bitAddress>
C:\MRS_DATA\workspace\CH592F_SSD1306\obj/../src/ssd1306/renderer.c:30
    while (!I2C_CheckEvent(I2C_EVENT_MASTER_TRANSMITTER_MODE_SELECTED));
     da4:	08240413          	addi	s0,s0,130 # 70082 <_data_lma+0x697da>
     da8:	8522                	mv	a0,s0
     daa:	20c010ef          	jal	ra,1fb6 <I2C_CheckEvent>
     dae:	dd6d                	beqz	a0,da8 <OLED_Init+0x4c6>
C:\MRS_DATA\workspace\CH592F_SSD1306\obj/../src/ssd1306/renderer.c:31
    I2C_SendData(0x00);     // Command mode
     db0:	4501                	li	a0,0
C:\MRS_DATA\workspace\CH592F_SSD1306\obj/../src/ssd1306/renderer.c:32
    while (!I2C_CheckEvent(I2C_EVENT_MASTER_BYTE_TRANSMITTED));
     db2:	00070437          	lui	s0,0x70
C:\MRS_DATA\workspace\CH592F_SSD1306\obj/../src/ssd1306/renderer.c:31
    I2C_SendData(0x00);     // Command mode
     db6:	1de010ef          	jal	ra,1f94 <I2C_SendData>
C:\MRS_DATA\workspace\CH592F_SSD1306\obj/../src/ssd1306/renderer.c:32
    while (!I2C_CheckEvent(I2C_EVENT_MASTER_BYTE_TRANSMITTED));
     dba:	08440413          	addi	s0,s0,132 # 70084 <_data_lma+0x697dc>
     dbe:	8522                	mv	a0,s0
     dc0:	1f6010ef          	jal	ra,1fb6 <I2C_CheckEvent>
     dc4:	dd6d                	beqz	a0,dbe <OLED_Init+0x4dc>
C:\MRS_DATA\workspace\CH592F_SSD1306\obj/../src/ssd1306/renderer.c:33
    I2C_SendData(command);
     dc6:	0a100513          	li	a0,161
C:\MRS_DATA\workspace\CH592F_SSD1306\obj/../src/ssd1306/renderer.c:34
    while (!I2C_CheckEvent(I2C_EVENT_MASTER_BYTE_TRANSMITTED));
     dca:	00070437          	lui	s0,0x70
C:\MRS_DATA\workspace\CH592F_SSD1306\obj/../src/ssd1306/renderer.c:33
    I2C_SendData(command);
     dce:	1c6010ef          	jal	ra,1f94 <I2C_SendData>
C:\MRS_DATA\workspace\CH592F_SSD1306\obj/../src/ssd1306/renderer.c:34
    while (!I2C_CheckEvent(I2C_EVENT_MASTER_BYTE_TRANSMITTED));
     dd2:	08440413          	addi	s0,s0,132 # 70084 <_data_lma+0x697dc>
     dd6:	8522                	mv	a0,s0
     dd8:	1de010ef          	jal	ra,1fb6 <I2C_CheckEvent>
     ddc:	dd6d                	beqz	a0,dd6 <OLED_Init+0x4f4>
C:\MRS_DATA\workspace\CH592F_SSD1306\obj/../src/ssd1306/renderer.c:35
    I2C_GenerateSTOP(ENABLE);
     dde:	4505                	li	a0,1
     de0:	18e010ef          	jal	ra,1f6e <I2C_GenerateSTOP>
C:\MRS_DATA\workspace\CH592F_SSD1306\obj/../src/ssd1306/renderer.c:27
    I2C_GenerateSTART(ENABLE);
     de4:	4505                	li	a0,1
C:\MRS_DATA\workspace\CH592F_SSD1306\obj/../src/ssd1306/renderer.c:28
    while (!I2C_CheckEvent(I2C_EVENT_MASTER_MODE_SELECT));
     de6:	00030437          	lui	s0,0x30
C:\MRS_DATA\workspace\CH592F_SSD1306\obj/../src/ssd1306/renderer.c:27
    I2C_GenerateSTART(ENABLE);
     dea:	15e010ef          	jal	ra,1f48 <I2C_GenerateSTART>
C:\MRS_DATA\workspace\CH592F_SSD1306\obj/../src/ssd1306/renderer.c:28
    while (!I2C_CheckEvent(I2C_EVENT_MASTER_MODE_SELECT));
     dee:	0405                	addi	s0,s0,1
     df0:	8522                	mv	a0,s0
     df2:	1c4010ef          	jal	ra,1fb6 <I2C_CheckEvent>
     df6:	dd6d                	beqz	a0,df0 <OLED_Init+0x50e>
C:\MRS_DATA\workspace\CH592F_SSD1306\obj/../src/ssd1306/renderer.c:29
    I2C_Send7bitAddress(OLED_I2C_ADDR << 1, I2C_Direction_Transmitter);
     df8:	4581                	li	a1,0
     dfa:	07800513          	li	a0,120
C:\MRS_DATA\workspace\CH592F_SSD1306\obj/../src/ssd1306/renderer.c:30
    while (!I2C_CheckEvent(I2C_EVENT_MASTER_TRANSMITTER_MODE_SELECTED));
     dfe:	00070437          	lui	s0,0x70
C:\MRS_DATA\workspace\CH592F_SSD1306\obj/../src/ssd1306/renderer.c:29
    I2C_Send7bitAddress(OLED_I2C_ADDR << 1, I2C_Direction_Transmitter);
     e02:	19c010ef          	jal	ra,1f9e <I2C_Send7bitAddress>
C:\MRS_DATA\workspace\CH592F_SSD1306\obj/../src/ssd1306/renderer.c:30
    while (!I2C_CheckEvent(I2C_EVENT_MASTER_TRANSMITTER_MODE_SELECTED));
     e06:	08240413          	addi	s0,s0,130 # 70082 <_data_lma+0x697da>
     e0a:	8522                	mv	a0,s0
     e0c:	1aa010ef          	jal	ra,1fb6 <I2C_CheckEvent>
     e10:	dd6d                	beqz	a0,e0a <OLED_Init+0x528>
C:\MRS_DATA\workspace\CH592F_SSD1306\obj/../src/ssd1306/renderer.c:31
    I2C_SendData(0x00);     // Command mode
     e12:	4501                	li	a0,0
C:\MRS_DATA\workspace\CH592F_SSD1306\obj/../src/ssd1306/renderer.c:32
    while (!I2C_CheckEvent(I2C_EVENT_MASTER_BYTE_TRANSMITTED));
     e14:	00070437          	lui	s0,0x70
C:\MRS_DATA\workspace\CH592F_SSD1306\obj/../src/ssd1306/renderer.c:31
    I2C_SendData(0x00);     // Command mode
     e18:	17c010ef          	jal	ra,1f94 <I2C_SendData>
C:\MRS_DATA\workspace\CH592F_SSD1306\obj/../src/ssd1306/renderer.c:32
    while (!I2C_CheckEvent(I2C_EVENT_MASTER_BYTE_TRANSMITTED));
     e1c:	08440413          	addi	s0,s0,132 # 70084 <_data_lma+0x697dc>
     e20:	8522                	mv	a0,s0
     e22:	194010ef          	jal	ra,1fb6 <I2C_CheckEvent>
     e26:	dd6d                	beqz	a0,e20 <OLED_Init+0x53e>
C:\MRS_DATA\workspace\CH592F_SSD1306\obj/../src/ssd1306/renderer.c:33
    I2C_SendData(command);
     e28:	0c800513          	li	a0,200
C:\MRS_DATA\workspace\CH592F_SSD1306\obj/../src/ssd1306/renderer.c:34
    while (!I2C_CheckEvent(I2C_EVENT_MASTER_BYTE_TRANSMITTED));
     e2c:	00070437          	lui	s0,0x70
C:\MRS_DATA\workspace\CH592F_SSD1306\obj/../src/ssd1306/renderer.c:33
    I2C_SendData(command);
     e30:	164010ef          	jal	ra,1f94 <I2C_SendData>
C:\MRS_DATA\workspace\CH592F_SSD1306\obj/../src/ssd1306/renderer.c:34
    while (!I2C_CheckEvent(I2C_EVENT_MASTER_BYTE_TRANSMITTED));
     e34:	08440413          	addi	s0,s0,132 # 70084 <_data_lma+0x697dc>
     e38:	8522                	mv	a0,s0
     e3a:	17c010ef          	jal	ra,1fb6 <I2C_CheckEvent>
     e3e:	dd6d                	beqz	a0,e38 <OLED_Init+0x556>
C:\MRS_DATA\workspace\CH592F_SSD1306\obj/../src/ssd1306/renderer.c:35
    I2C_GenerateSTOP(ENABLE);
     e40:	4505                	li	a0,1
     e42:	12c010ef          	jal	ra,1f6e <I2C_GenerateSTOP>
C:\MRS_DATA\workspace\CH592F_SSD1306\obj/../src/ssd1306/renderer.c:27
    I2C_GenerateSTART(ENABLE);
     e46:	4505                	li	a0,1
C:\MRS_DATA\workspace\CH592F_SSD1306\obj/../src/ssd1306/renderer.c:28
    while (!I2C_CheckEvent(I2C_EVENT_MASTER_MODE_SELECT));
     e48:	00030437          	lui	s0,0x30
C:\MRS_DATA\workspace\CH592F_SSD1306\obj/../src/ssd1306/renderer.c:27
    I2C_GenerateSTART(ENABLE);
     e4c:	0fc010ef          	jal	ra,1f48 <I2C_GenerateSTART>
C:\MRS_DATA\workspace\CH592F_SSD1306\obj/../src/ssd1306/renderer.c:28
    while (!I2C_CheckEvent(I2C_EVENT_MASTER_MODE_SELECT));
     e50:	0405                	addi	s0,s0,1
     e52:	8522                	mv	a0,s0
     e54:	162010ef          	jal	ra,1fb6 <I2C_CheckEvent>
     e58:	dd6d                	beqz	a0,e52 <OLED_Init+0x570>
C:\MRS_DATA\workspace\CH592F_SSD1306\obj/../src/ssd1306/renderer.c:29
    I2C_Send7bitAddress(OLED_I2C_ADDR << 1, I2C_Direction_Transmitter);
     e5a:	4581                	li	a1,0
     e5c:	07800513          	li	a0,120
C:\MRS_DATA\workspace\CH592F_SSD1306\obj/../src/ssd1306/renderer.c:30
    while (!I2C_CheckEvent(I2C_EVENT_MASTER_TRANSMITTER_MODE_SELECTED));
     e60:	00070437          	lui	s0,0x70
C:\MRS_DATA\workspace\CH592F_SSD1306\obj/../src/ssd1306/renderer.c:29
    I2C_Send7bitAddress(OLED_I2C_ADDR << 1, I2C_Direction_Transmitter);
     e64:	13a010ef          	jal	ra,1f9e <I2C_Send7bitAddress>
C:\MRS_DATA\workspace\CH592F_SSD1306\obj/../src/ssd1306/renderer.c:30
    while (!I2C_CheckEvent(I2C_EVENT_MASTER_TRANSMITTER_MODE_SELECTED));
     e68:	08240413          	addi	s0,s0,130 # 70082 <_data_lma+0x697da>
     e6c:	8522                	mv	a0,s0
     e6e:	148010ef          	jal	ra,1fb6 <I2C_CheckEvent>
     e72:	dd6d                	beqz	a0,e6c <OLED_Init+0x58a>
C:\MRS_DATA\workspace\CH592F_SSD1306\obj/../src/ssd1306/renderer.c:31
    I2C_SendData(0x00);     // Command mode
     e74:	4501                	li	a0,0
C:\MRS_DATA\workspace\CH592F_SSD1306\obj/../src/ssd1306/renderer.c:32
    while (!I2C_CheckEvent(I2C_EVENT_MASTER_BYTE_TRANSMITTED));
     e76:	00070437          	lui	s0,0x70
C:\MRS_DATA\workspace\CH592F_SSD1306\obj/../src/ssd1306/renderer.c:31
    I2C_SendData(0x00);     // Command mode
     e7a:	11a010ef          	jal	ra,1f94 <I2C_SendData>
C:\MRS_DATA\workspace\CH592F_SSD1306\obj/../src/ssd1306/renderer.c:32
    while (!I2C_CheckEvent(I2C_EVENT_MASTER_BYTE_TRANSMITTED));
     e7e:	08440413          	addi	s0,s0,132 # 70084 <_data_lma+0x697dc>
     e82:	8522                	mv	a0,s0
     e84:	132010ef          	jal	ra,1fb6 <I2C_CheckEvent>
     e88:	dd6d                	beqz	a0,e82 <OLED_Init+0x5a0>
C:\MRS_DATA\workspace\CH592F_SSD1306\obj/../src/ssd1306/renderer.c:33
    I2C_SendData(command);
     e8a:	0da00513          	li	a0,218
C:\MRS_DATA\workspace\CH592F_SSD1306\obj/../src/ssd1306/renderer.c:34
    while (!I2C_CheckEvent(I2C_EVENT_MASTER_BYTE_TRANSMITTED));
     e8e:	00070437          	lui	s0,0x70
C:\MRS_DATA\workspace\CH592F_SSD1306\obj/../src/ssd1306/renderer.c:33
    I2C_SendData(command);
     e92:	102010ef          	jal	ra,1f94 <I2C_SendData>
C:\MRS_DATA\workspace\CH592F_SSD1306\obj/../src/ssd1306/renderer.c:34
    while (!I2C_CheckEvent(I2C_EVENT_MASTER_BYTE_TRANSMITTED));
     e96:	08440413          	addi	s0,s0,132 # 70084 <_data_lma+0x697dc>
     e9a:	8522                	mv	a0,s0
     e9c:	11a010ef          	jal	ra,1fb6 <I2C_CheckEvent>
     ea0:	dd6d                	beqz	a0,e9a <OLED_Init+0x5b8>
C:\MRS_DATA\workspace\CH592F_SSD1306\obj/../src/ssd1306/renderer.c:35
    I2C_GenerateSTOP(ENABLE);
     ea2:	4505                	li	a0,1
     ea4:	0ca010ef          	jal	ra,1f6e <I2C_GenerateSTOP>
C:\MRS_DATA\workspace\CH592F_SSD1306\obj/../src/ssd1306/renderer.c:27
    I2C_GenerateSTART(ENABLE);
     ea8:	4505                	li	a0,1
C:\MRS_DATA\workspace\CH592F_SSD1306\obj/../src/ssd1306/renderer.c:28
    while (!I2C_CheckEvent(I2C_EVENT_MASTER_MODE_SELECT));
     eaa:	00030437          	lui	s0,0x30
C:\MRS_DATA\workspace\CH592F_SSD1306\obj/../src/ssd1306/renderer.c:27
    I2C_GenerateSTART(ENABLE);
     eae:	09a010ef          	jal	ra,1f48 <I2C_GenerateSTART>
C:\MRS_DATA\workspace\CH592F_SSD1306\obj/../src/ssd1306/renderer.c:28
    while (!I2C_CheckEvent(I2C_EVENT_MASTER_MODE_SELECT));
     eb2:	0405                	addi	s0,s0,1
     eb4:	8522                	mv	a0,s0
     eb6:	100010ef          	jal	ra,1fb6 <I2C_CheckEvent>
     eba:	dd6d                	beqz	a0,eb4 <OLED_Init+0x5d2>
C:\MRS_DATA\workspace\CH592F_SSD1306\obj/../src/ssd1306/renderer.c:29
    I2C_Send7bitAddress(OLED_I2C_ADDR << 1, I2C_Direction_Transmitter);
     ebc:	4581                	li	a1,0
     ebe:	07800513          	li	a0,120
C:\MRS_DATA\workspace\CH592F_SSD1306\obj/../src/ssd1306/renderer.c:30
    while (!I2C_CheckEvent(I2C_EVENT_MASTER_TRANSMITTER_MODE_SELECTED));
     ec2:	00070437          	lui	s0,0x70
C:\MRS_DATA\workspace\CH592F_SSD1306\obj/../src/ssd1306/renderer.c:29
    I2C_Send7bitAddress(OLED_I2C_ADDR << 1, I2C_Direction_Transmitter);
     ec6:	0d8010ef          	jal	ra,1f9e <I2C_Send7bitAddress>
C:\MRS_DATA\workspace\CH592F_SSD1306\obj/../src/ssd1306/renderer.c:30
    while (!I2C_CheckEvent(I2C_EVENT_MASTER_TRANSMITTER_MODE_SELECTED));
     eca:	08240413          	addi	s0,s0,130 # 70082 <_data_lma+0x697da>
     ece:	8522                	mv	a0,s0
     ed0:	0e6010ef          	jal	ra,1fb6 <I2C_CheckEvent>
     ed4:	dd6d                	beqz	a0,ece <OLED_Init+0x5ec>
C:\MRS_DATA\workspace\CH592F_SSD1306\obj/../src/ssd1306/renderer.c:31
    I2C_SendData(0x00);     // Command mode
     ed6:	4501                	li	a0,0
C:\MRS_DATA\workspace\CH592F_SSD1306\obj/../src/ssd1306/renderer.c:32
    while (!I2C_CheckEvent(I2C_EVENT_MASTER_BYTE_TRANSMITTED));
     ed8:	00070437          	lui	s0,0x70
C:\MRS_DATA\workspace\CH592F_SSD1306\obj/../src/ssd1306/renderer.c:31
    I2C_SendData(0x00);     // Command mode
     edc:	0b8010ef          	jal	ra,1f94 <I2C_SendData>
C:\MRS_DATA\workspace\CH592F_SSD1306\obj/../src/ssd1306/renderer.c:32
    while (!I2C_CheckEvent(I2C_EVENT_MASTER_BYTE_TRANSMITTED));
     ee0:	08440413          	addi	s0,s0,132 # 70084 <_data_lma+0x697dc>
     ee4:	8522                	mv	a0,s0
     ee6:	0d0010ef          	jal	ra,1fb6 <I2C_CheckEvent>
     eea:	dd6d                	beqz	a0,ee4 <OLED_Init+0x602>
C:\MRS_DATA\workspace\CH592F_SSD1306\obj/../src/ssd1306/renderer.c:33
    I2C_SendData(command);
     eec:	4509                	li	a0,2
C:\MRS_DATA\workspace\CH592F_SSD1306\obj/../src/ssd1306/renderer.c:34
    while (!I2C_CheckEvent(I2C_EVENT_MASTER_BYTE_TRANSMITTED));
     eee:	00070437          	lui	s0,0x70
C:\MRS_DATA\workspace\CH592F_SSD1306\obj/../src/ssd1306/renderer.c:33
    I2C_SendData(command);
     ef2:	0a2010ef          	jal	ra,1f94 <I2C_SendData>
C:\MRS_DATA\workspace\CH592F_SSD1306\obj/../src/ssd1306/renderer.c:34
    while (!I2C_CheckEvent(I2C_EVENT_MASTER_BYTE_TRANSMITTED));
     ef6:	08440413          	addi	s0,s0,132 # 70084 <_data_lma+0x697dc>
     efa:	8522                	mv	a0,s0
     efc:	0ba010ef          	jal	ra,1fb6 <I2C_CheckEvent>
     f00:	dd6d                	beqz	a0,efa <OLED_Init+0x618>
C:\MRS_DATA\workspace\CH592F_SSD1306\obj/../src/ssd1306/renderer.c:35
    I2C_GenerateSTOP(ENABLE);
     f02:	4505                	li	a0,1
     f04:	06a010ef          	jal	ra,1f6e <I2C_GenerateSTOP>
C:\MRS_DATA\workspace\CH592F_SSD1306\obj/../src/ssd1306/renderer.c:27
    I2C_GenerateSTART(ENABLE);
     f08:	4505                	li	a0,1
C:\MRS_DATA\workspace\CH592F_SSD1306\obj/../src/ssd1306/renderer.c:28
    while (!I2C_CheckEvent(I2C_EVENT_MASTER_MODE_SELECT));
     f0a:	00030437          	lui	s0,0x30
C:\MRS_DATA\workspace\CH592F_SSD1306\obj/../src/ssd1306/renderer.c:27
    I2C_GenerateSTART(ENABLE);
     f0e:	03a010ef          	jal	ra,1f48 <I2C_GenerateSTART>
C:\MRS_DATA\workspace\CH592F_SSD1306\obj/../src/ssd1306/renderer.c:28
    while (!I2C_CheckEvent(I2C_EVENT_MASTER_MODE_SELECT));
     f12:	0405                	addi	s0,s0,1
     f14:	8522                	mv	a0,s0
     f16:	0a0010ef          	jal	ra,1fb6 <I2C_CheckEvent>
     f1a:	dd6d                	beqz	a0,f14 <OLED_Init+0x632>
C:\MRS_DATA\workspace\CH592F_SSD1306\obj/../src/ssd1306/renderer.c:29
    I2C_Send7bitAddress(OLED_I2C_ADDR << 1, I2C_Direction_Transmitter);
     f1c:	4581                	li	a1,0
     f1e:	07800513          	li	a0,120
C:\MRS_DATA\workspace\CH592F_SSD1306\obj/../src/ssd1306/renderer.c:30
    while (!I2C_CheckEvent(I2C_EVENT_MASTER_TRANSMITTER_MODE_SELECTED));
     f22:	00070437          	lui	s0,0x70
C:\MRS_DATA\workspace\CH592F_SSD1306\obj/../src/ssd1306/renderer.c:29
    I2C_Send7bitAddress(OLED_I2C_ADDR << 1, I2C_Direction_Transmitter);
     f26:	078010ef          	jal	ra,1f9e <I2C_Send7bitAddress>
C:\MRS_DATA\workspace\CH592F_SSD1306\obj/../src/ssd1306/renderer.c:30
    while (!I2C_CheckEvent(I2C_EVENT_MASTER_TRANSMITTER_MODE_SELECTED));
     f2a:	08240413          	addi	s0,s0,130 # 70082 <_data_lma+0x697da>
     f2e:	8522                	mv	a0,s0
     f30:	086010ef          	jal	ra,1fb6 <I2C_CheckEvent>
     f34:	dd6d                	beqz	a0,f2e <OLED_Init+0x64c>
C:\MRS_DATA\workspace\CH592F_SSD1306\obj/../src/ssd1306/renderer.c:31
    I2C_SendData(0x00);     // Command mode
     f36:	4501                	li	a0,0
C:\MRS_DATA\workspace\CH592F_SSD1306\obj/../src/ssd1306/renderer.c:32
    while (!I2C_CheckEvent(I2C_EVENT_MASTER_BYTE_TRANSMITTED));
     f38:	00070437          	lui	s0,0x70
C:\MRS_DATA\workspace\CH592F_SSD1306\obj/../src/ssd1306/renderer.c:31
    I2C_SendData(0x00);     // Command mode
     f3c:	058010ef          	jal	ra,1f94 <I2C_SendData>
C:\MRS_DATA\workspace\CH592F_SSD1306\obj/../src/ssd1306/renderer.c:32
    while (!I2C_CheckEvent(I2C_EVENT_MASTER_BYTE_TRANSMITTED));
     f40:	08440413          	addi	s0,s0,132 # 70084 <_data_lma+0x697dc>
     f44:	8522                	mv	a0,s0
     f46:	070010ef          	jal	ra,1fb6 <I2C_CheckEvent>
     f4a:	dd6d                	beqz	a0,f44 <OLED_Init+0x662>
C:\MRS_DATA\workspace\CH592F_SSD1306\obj/../src/ssd1306/renderer.c:33
    I2C_SendData(command);
     f4c:	08100513          	li	a0,129
C:\MRS_DATA\workspace\CH592F_SSD1306\obj/../src/ssd1306/renderer.c:34
    while (!I2C_CheckEvent(I2C_EVENT_MASTER_BYTE_TRANSMITTED));
     f50:	00070437          	lui	s0,0x70
C:\MRS_DATA\workspace\CH592F_SSD1306\obj/../src/ssd1306/renderer.c:33
    I2C_SendData(command);
     f54:	040010ef          	jal	ra,1f94 <I2C_SendData>
C:\MRS_DATA\workspace\CH592F_SSD1306\obj/../src/ssd1306/renderer.c:34
    while (!I2C_CheckEvent(I2C_EVENT_MASTER_BYTE_TRANSMITTED));
     f58:	08440413          	addi	s0,s0,132 # 70084 <_data_lma+0x697dc>
     f5c:	8522                	mv	a0,s0
     f5e:	058010ef          	jal	ra,1fb6 <I2C_CheckEvent>
     f62:	dd6d                	beqz	a0,f5c <OLED_Init+0x67a>
C:\MRS_DATA\workspace\CH592F_SSD1306\obj/../src/ssd1306/renderer.c:35
    I2C_GenerateSTOP(ENABLE);
     f64:	4505                	li	a0,1
     f66:	008010ef          	jal	ra,1f6e <I2C_GenerateSTOP>
C:\MRS_DATA\workspace\CH592F_SSD1306\obj/../src/ssd1306/renderer.c:27
    I2C_GenerateSTART(ENABLE);
     f6a:	4505                	li	a0,1
C:\MRS_DATA\workspace\CH592F_SSD1306\obj/../src/ssd1306/renderer.c:28
    while (!I2C_CheckEvent(I2C_EVENT_MASTER_MODE_SELECT));
     f6c:	00030437          	lui	s0,0x30
C:\MRS_DATA\workspace\CH592F_SSD1306\obj/../src/ssd1306/renderer.c:27
    I2C_GenerateSTART(ENABLE);
     f70:	7d9000ef          	jal	ra,1f48 <I2C_GenerateSTART>
C:\MRS_DATA\workspace\CH592F_SSD1306\obj/../src/ssd1306/renderer.c:28
    while (!I2C_CheckEvent(I2C_EVENT_MASTER_MODE_SELECT));
     f74:	0405                	addi	s0,s0,1
     f76:	8522                	mv	a0,s0
     f78:	03e010ef          	jal	ra,1fb6 <I2C_CheckEvent>
     f7c:	dd6d                	beqz	a0,f76 <OLED_Init+0x694>
C:\MRS_DATA\workspace\CH592F_SSD1306\obj/../src/ssd1306/renderer.c:29
    I2C_Send7bitAddress(OLED_I2C_ADDR << 1, I2C_Direction_Transmitter);
     f7e:	4581                	li	a1,0
     f80:	07800513          	li	a0,120
C:\MRS_DATA\workspace\CH592F_SSD1306\obj/../src/ssd1306/renderer.c:30
    while (!I2C_CheckEvent(I2C_EVENT_MASTER_TRANSMITTER_MODE_SELECTED));
     f84:	00070437          	lui	s0,0x70
C:\MRS_DATA\workspace\CH592F_SSD1306\obj/../src/ssd1306/renderer.c:29
    I2C_Send7bitAddress(OLED_I2C_ADDR << 1, I2C_Direction_Transmitter);
     f88:	016010ef          	jal	ra,1f9e <I2C_Send7bitAddress>
C:\MRS_DATA\workspace\CH592F_SSD1306\obj/../src/ssd1306/renderer.c:30
    while (!I2C_CheckEvent(I2C_EVENT_MASTER_TRANSMITTER_MODE_SELECTED));
     f8c:	08240413          	addi	s0,s0,130 # 70082 <_data_lma+0x697da>
     f90:	8522                	mv	a0,s0
     f92:	024010ef          	jal	ra,1fb6 <I2C_CheckEvent>
     f96:	dd6d                	beqz	a0,f90 <OLED_Init+0x6ae>
C:\MRS_DATA\workspace\CH592F_SSD1306\obj/../src/ssd1306/renderer.c:31
    I2C_SendData(0x00);     // Command mode
     f98:	4501                	li	a0,0
C:\MRS_DATA\workspace\CH592F_SSD1306\obj/../src/ssd1306/renderer.c:32
    while (!I2C_CheckEvent(I2C_EVENT_MASTER_BYTE_TRANSMITTED));
     f9a:	00070437          	lui	s0,0x70
C:\MRS_DATA\workspace\CH592F_SSD1306\obj/../src/ssd1306/renderer.c:31
    I2C_SendData(0x00);     // Command mode
     f9e:	7f7000ef          	jal	ra,1f94 <I2C_SendData>
C:\MRS_DATA\workspace\CH592F_SSD1306\obj/../src/ssd1306/renderer.c:32
    while (!I2C_CheckEvent(I2C_EVENT_MASTER_BYTE_TRANSMITTED));
     fa2:	08440413          	addi	s0,s0,132 # 70084 <_data_lma+0x697dc>
     fa6:	8522                	mv	a0,s0
     fa8:	00e010ef          	jal	ra,1fb6 <I2C_CheckEvent>
     fac:	dd6d                	beqz	a0,fa6 <OLED_Init+0x6c4>
C:\MRS_DATA\workspace\CH592F_SSD1306\obj/../src/ssd1306/renderer.c:33
    I2C_SendData(command);
     fae:	08f00513          	li	a0,143
C:\MRS_DATA\workspace\CH592F_SSD1306\obj/../src/ssd1306/renderer.c:34
    while (!I2C_CheckEvent(I2C_EVENT_MASTER_BYTE_TRANSMITTED));
     fb2:	00070437          	lui	s0,0x70
C:\MRS_DATA\workspace\CH592F_SSD1306\obj/../src/ssd1306/renderer.c:33
    I2C_SendData(command);
     fb6:	7df000ef          	jal	ra,1f94 <I2C_SendData>
C:\MRS_DATA\workspace\CH592F_SSD1306\obj/../src/ssd1306/renderer.c:34
    while (!I2C_CheckEvent(I2C_EVENT_MASTER_BYTE_TRANSMITTED));
     fba:	08440413          	addi	s0,s0,132 # 70084 <_data_lma+0x697dc>
     fbe:	8522                	mv	a0,s0
     fc0:	7f7000ef          	jal	ra,1fb6 <I2C_CheckEvent>
     fc4:	dd6d                	beqz	a0,fbe <OLED_Init+0x6dc>
C:\MRS_DATA\workspace\CH592F_SSD1306\obj/../src/ssd1306/renderer.c:35
    I2C_GenerateSTOP(ENABLE);
     fc6:	4505                	li	a0,1
     fc8:	7a7000ef          	jal	ra,1f6e <I2C_GenerateSTOP>
C:\MRS_DATA\workspace\CH592F_SSD1306\obj/../src/ssd1306/renderer.c:27
    I2C_GenerateSTART(ENABLE);
     fcc:	4505                	li	a0,1
C:\MRS_DATA\workspace\CH592F_SSD1306\obj/../src/ssd1306/renderer.c:28
    while (!I2C_CheckEvent(I2C_EVENT_MASTER_MODE_SELECT));
     fce:	00030437          	lui	s0,0x30
C:\MRS_DATA\workspace\CH592F_SSD1306\obj/../src/ssd1306/renderer.c:27
    I2C_GenerateSTART(ENABLE);
     fd2:	777000ef          	jal	ra,1f48 <I2C_GenerateSTART>
C:\MRS_DATA\workspace\CH592F_SSD1306\obj/../src/ssd1306/renderer.c:28
    while (!I2C_CheckEvent(I2C_EVENT_MASTER_MODE_SELECT));
     fd6:	0405                	addi	s0,s0,1
     fd8:	8522                	mv	a0,s0
     fda:	7dd000ef          	jal	ra,1fb6 <I2C_CheckEvent>
     fde:	dd6d                	beqz	a0,fd8 <OLED_Init+0x6f6>
C:\MRS_DATA\workspace\CH592F_SSD1306\obj/../src/ssd1306/renderer.c:29
    I2C_Send7bitAddress(OLED_I2C_ADDR << 1, I2C_Direction_Transmitter);
     fe0:	4581                	li	a1,0
     fe2:	07800513          	li	a0,120
C:\MRS_DATA\workspace\CH592F_SSD1306\obj/../src/ssd1306/renderer.c:30
    while (!I2C_CheckEvent(I2C_EVENT_MASTER_TRANSMITTER_MODE_SELECTED));
     fe6:	00070437          	lui	s0,0x70
C:\MRS_DATA\workspace\CH592F_SSD1306\obj/../src/ssd1306/renderer.c:29
    I2C_Send7bitAddress(OLED_I2C_ADDR << 1, I2C_Direction_Transmitter);
     fea:	7b5000ef          	jal	ra,1f9e <I2C_Send7bitAddress>
C:\MRS_DATA\workspace\CH592F_SSD1306\obj/../src/ssd1306/renderer.c:30
    while (!I2C_CheckEvent(I2C_EVENT_MASTER_TRANSMITTER_MODE_SELECTED));
     fee:	08240413          	addi	s0,s0,130 # 70082 <_data_lma+0x697da>
     ff2:	8522                	mv	a0,s0
     ff4:	7c3000ef          	jal	ra,1fb6 <I2C_CheckEvent>
     ff8:	dd6d                	beqz	a0,ff2 <OLED_Init+0x710>
C:\MRS_DATA\workspace\CH592F_SSD1306\obj/../src/ssd1306/renderer.c:31
    I2C_SendData(0x00);     // Command mode
     ffa:	4501                	li	a0,0
C:\MRS_DATA\workspace\CH592F_SSD1306\obj/../src/ssd1306/renderer.c:32
    while (!I2C_CheckEvent(I2C_EVENT_MASTER_BYTE_TRANSMITTED));
     ffc:	00070437          	lui	s0,0x70
C:\MRS_DATA\workspace\CH592F_SSD1306\obj/../src/ssd1306/renderer.c:31
    I2C_SendData(0x00);     // Command mode
    1000:	795000ef          	jal	ra,1f94 <I2C_SendData>
C:\MRS_DATA\workspace\CH592F_SSD1306\obj/../src/ssd1306/renderer.c:32
    while (!I2C_CheckEvent(I2C_EVENT_MASTER_BYTE_TRANSMITTED));
    1004:	08440413          	addi	s0,s0,132 # 70084 <_data_lma+0x697dc>
    1008:	8522                	mv	a0,s0
    100a:	7ad000ef          	jal	ra,1fb6 <I2C_CheckEvent>
    100e:	dd6d                	beqz	a0,1008 <OLED_Init+0x726>
C:\MRS_DATA\workspace\CH592F_SSD1306\obj/../src/ssd1306/renderer.c:33
    I2C_SendData(command);
    1010:	0d900513          	li	a0,217
C:\MRS_DATA\workspace\CH592F_SSD1306\obj/../src/ssd1306/renderer.c:34
    while (!I2C_CheckEvent(I2C_EVENT_MASTER_BYTE_TRANSMITTED));
    1014:	00070437          	lui	s0,0x70
C:\MRS_DATA\workspace\CH592F_SSD1306\obj/../src/ssd1306/renderer.c:33
    I2C_SendData(command);
    1018:	77d000ef          	jal	ra,1f94 <I2C_SendData>
C:\MRS_DATA\workspace\CH592F_SSD1306\obj/../src/ssd1306/renderer.c:34
    while (!I2C_CheckEvent(I2C_EVENT_MASTER_BYTE_TRANSMITTED));
    101c:	08440413          	addi	s0,s0,132 # 70084 <_data_lma+0x697dc>
    1020:	8522                	mv	a0,s0
    1022:	795000ef          	jal	ra,1fb6 <I2C_CheckEvent>
    1026:	dd6d                	beqz	a0,1020 <OLED_Init+0x73e>
C:\MRS_DATA\workspace\CH592F_SSD1306\obj/../src/ssd1306/renderer.c:35
    I2C_GenerateSTOP(ENABLE);
    1028:	4505                	li	a0,1
    102a:	745000ef          	jal	ra,1f6e <I2C_GenerateSTOP>
C:\MRS_DATA\workspace\CH592F_SSD1306\obj/../src/ssd1306/renderer.c:27
    I2C_GenerateSTART(ENABLE);
    102e:	4505                	li	a0,1
C:\MRS_DATA\workspace\CH592F_SSD1306\obj/../src/ssd1306/renderer.c:28
    while (!I2C_CheckEvent(I2C_EVENT_MASTER_MODE_SELECT));
    1030:	00030437          	lui	s0,0x30
C:\MRS_DATA\workspace\CH592F_SSD1306\obj/../src/ssd1306/renderer.c:27
    I2C_GenerateSTART(ENABLE);
    1034:	715000ef          	jal	ra,1f48 <I2C_GenerateSTART>
C:\MRS_DATA\workspace\CH592F_SSD1306\obj/../src/ssd1306/renderer.c:28
    while (!I2C_CheckEvent(I2C_EVENT_MASTER_MODE_SELECT));
    1038:	0405                	addi	s0,s0,1
    103a:	8522                	mv	a0,s0
    103c:	77b000ef          	jal	ra,1fb6 <I2C_CheckEvent>
    1040:	dd6d                	beqz	a0,103a <OLED_Init+0x758>
C:\MRS_DATA\workspace\CH592F_SSD1306\obj/../src/ssd1306/renderer.c:29
    I2C_Send7bitAddress(OLED_I2C_ADDR << 1, I2C_Direction_Transmitter);
    1042:	4581                	li	a1,0
    1044:	07800513          	li	a0,120
C:\MRS_DATA\workspace\CH592F_SSD1306\obj/../src/ssd1306/renderer.c:30
    while (!I2C_CheckEvent(I2C_EVENT_MASTER_TRANSMITTER_MODE_SELECTED));
    1048:	00070437          	lui	s0,0x70
C:\MRS_DATA\workspace\CH592F_SSD1306\obj/../src/ssd1306/renderer.c:29
    I2C_Send7bitAddress(OLED_I2C_ADDR << 1, I2C_Direction_Transmitter);
    104c:	753000ef          	jal	ra,1f9e <I2C_Send7bitAddress>
C:\MRS_DATA\workspace\CH592F_SSD1306\obj/../src/ssd1306/renderer.c:30
    while (!I2C_CheckEvent(I2C_EVENT_MASTER_TRANSMITTER_MODE_SELECTED));
    1050:	08240413          	addi	s0,s0,130 # 70082 <_data_lma+0x697da>
    1054:	8522                	mv	a0,s0
    1056:	761000ef          	jal	ra,1fb6 <I2C_CheckEvent>
    105a:	dd6d                	beqz	a0,1054 <OLED_Init+0x772>
C:\MRS_DATA\workspace\CH592F_SSD1306\obj/../src/ssd1306/renderer.c:31
    I2C_SendData(0x00);     // Command mode
    105c:	4501                	li	a0,0
C:\MRS_DATA\workspace\CH592F_SSD1306\obj/../src/ssd1306/renderer.c:32
    while (!I2C_CheckEvent(I2C_EVENT_MASTER_BYTE_TRANSMITTED));
    105e:	00070437          	lui	s0,0x70
C:\MRS_DATA\workspace\CH592F_SSD1306\obj/../src/ssd1306/renderer.c:31
    I2C_SendData(0x00);     // Command mode
    1062:	733000ef          	jal	ra,1f94 <I2C_SendData>
C:\MRS_DATA\workspace\CH592F_SSD1306\obj/../src/ssd1306/renderer.c:32
    while (!I2C_CheckEvent(I2C_EVENT_MASTER_BYTE_TRANSMITTED));
    1066:	08440413          	addi	s0,s0,132 # 70084 <_data_lma+0x697dc>
    106a:	8522                	mv	a0,s0
    106c:	74b000ef          	jal	ra,1fb6 <I2C_CheckEvent>
    1070:	dd6d                	beqz	a0,106a <OLED_Init+0x788>
C:\MRS_DATA\workspace\CH592F_SSD1306\obj/../src/ssd1306/renderer.c:33
    I2C_SendData(command);
    1072:	0f100513          	li	a0,241
C:\MRS_DATA\workspace\CH592F_SSD1306\obj/../src/ssd1306/renderer.c:34
    while (!I2C_CheckEvent(I2C_EVENT_MASTER_BYTE_TRANSMITTED));
    1076:	00070437          	lui	s0,0x70
C:\MRS_DATA\workspace\CH592F_SSD1306\obj/../src/ssd1306/renderer.c:33
    I2C_SendData(command);
    107a:	71b000ef          	jal	ra,1f94 <I2C_SendData>
C:\MRS_DATA\workspace\CH592F_SSD1306\obj/../src/ssd1306/renderer.c:34
    while (!I2C_CheckEvent(I2C_EVENT_MASTER_BYTE_TRANSMITTED));
    107e:	08440413          	addi	s0,s0,132 # 70084 <_data_lma+0x697dc>
    1082:	8522                	mv	a0,s0
    1084:	733000ef          	jal	ra,1fb6 <I2C_CheckEvent>
    1088:	dd6d                	beqz	a0,1082 <OLED_Init+0x7a0>
C:\MRS_DATA\workspace\CH592F_SSD1306\obj/../src/ssd1306/renderer.c:35
    I2C_GenerateSTOP(ENABLE);
    108a:	4505                	li	a0,1
    108c:	6e3000ef          	jal	ra,1f6e <I2C_GenerateSTOP>
C:\MRS_DATA\workspace\CH592F_SSD1306\obj/../src/ssd1306/renderer.c:27
    I2C_GenerateSTART(ENABLE);
    1090:	4505                	li	a0,1
C:\MRS_DATA\workspace\CH592F_SSD1306\obj/../src/ssd1306/renderer.c:28
    while (!I2C_CheckEvent(I2C_EVENT_MASTER_MODE_SELECT));
    1092:	00030437          	lui	s0,0x30
C:\MRS_DATA\workspace\CH592F_SSD1306\obj/../src/ssd1306/renderer.c:27
    I2C_GenerateSTART(ENABLE);
    1096:	6b3000ef          	jal	ra,1f48 <I2C_GenerateSTART>
C:\MRS_DATA\workspace\CH592F_SSD1306\obj/../src/ssd1306/renderer.c:28
    while (!I2C_CheckEvent(I2C_EVENT_MASTER_MODE_SELECT));
    109a:	0405                	addi	s0,s0,1
    109c:	8522                	mv	a0,s0
    109e:	719000ef          	jal	ra,1fb6 <I2C_CheckEvent>
    10a2:	dd6d                	beqz	a0,109c <OLED_Init+0x7ba>
C:\MRS_DATA\workspace\CH592F_SSD1306\obj/../src/ssd1306/renderer.c:29
    I2C_Send7bitAddress(OLED_I2C_ADDR << 1, I2C_Direction_Transmitter);
    10a4:	4581                	li	a1,0
    10a6:	07800513          	li	a0,120
C:\MRS_DATA\workspace\CH592F_SSD1306\obj/../src/ssd1306/renderer.c:30
    while (!I2C_CheckEvent(I2C_EVENT_MASTER_TRANSMITTER_MODE_SELECTED));
    10aa:	00070437          	lui	s0,0x70
C:\MRS_DATA\workspace\CH592F_SSD1306\obj/../src/ssd1306/renderer.c:29
    I2C_Send7bitAddress(OLED_I2C_ADDR << 1, I2C_Direction_Transmitter);
    10ae:	6f1000ef          	jal	ra,1f9e <I2C_Send7bitAddress>
C:\MRS_DATA\workspace\CH592F_SSD1306\obj/../src/ssd1306/renderer.c:30
    while (!I2C_CheckEvent(I2C_EVENT_MASTER_TRANSMITTER_MODE_SELECTED));
    10b2:	08240413          	addi	s0,s0,130 # 70082 <_data_lma+0x697da>
    10b6:	8522                	mv	a0,s0
    10b8:	6ff000ef          	jal	ra,1fb6 <I2C_CheckEvent>
    10bc:	dd6d                	beqz	a0,10b6 <OLED_Init+0x7d4>
C:\MRS_DATA\workspace\CH592F_SSD1306\obj/../src/ssd1306/renderer.c:31
    I2C_SendData(0x00);     // Command mode
    10be:	4501                	li	a0,0
C:\MRS_DATA\workspace\CH592F_SSD1306\obj/../src/ssd1306/renderer.c:32
    while (!I2C_CheckEvent(I2C_EVENT_MASTER_BYTE_TRANSMITTED));
    10c0:	00070437          	lui	s0,0x70
C:\MRS_DATA\workspace\CH592F_SSD1306\obj/../src/ssd1306/renderer.c:31
    I2C_SendData(0x00);     // Command mode
    10c4:	6d1000ef          	jal	ra,1f94 <I2C_SendData>
C:\MRS_DATA\workspace\CH592F_SSD1306\obj/../src/ssd1306/renderer.c:32
    while (!I2C_CheckEvent(I2C_EVENT_MASTER_BYTE_TRANSMITTED));
    10c8:	08440413          	addi	s0,s0,132 # 70084 <_data_lma+0x697dc>
    10cc:	8522                	mv	a0,s0
    10ce:	6e9000ef          	jal	ra,1fb6 <I2C_CheckEvent>
    10d2:	dd6d                	beqz	a0,10cc <OLED_Init+0x7ea>
C:\MRS_DATA\workspace\CH592F_SSD1306\obj/../src/ssd1306/renderer.c:33
    I2C_SendData(command);
    10d4:	0db00513          	li	a0,219
C:\MRS_DATA\workspace\CH592F_SSD1306\obj/../src/ssd1306/renderer.c:34
    while (!I2C_CheckEvent(I2C_EVENT_MASTER_BYTE_TRANSMITTED));
    10d8:	00070437          	lui	s0,0x70
C:\MRS_DATA\workspace\CH592F_SSD1306\obj/../src/ssd1306/renderer.c:33
    I2C_SendData(command);
    10dc:	6b9000ef          	jal	ra,1f94 <I2C_SendData>
C:\MRS_DATA\workspace\CH592F_SSD1306\obj/../src/ssd1306/renderer.c:34
    while (!I2C_CheckEvent(I2C_EVENT_MASTER_BYTE_TRANSMITTED));
    10e0:	08440413          	addi	s0,s0,132 # 70084 <_data_lma+0x697dc>
    10e4:	8522                	mv	a0,s0
    10e6:	6d1000ef          	jal	ra,1fb6 <I2C_CheckEvent>
    10ea:	dd6d                	beqz	a0,10e4 <OLED_Init+0x802>
C:\MRS_DATA\workspace\CH592F_SSD1306\obj/../src/ssd1306/renderer.c:35
    I2C_GenerateSTOP(ENABLE);
    10ec:	4505                	li	a0,1
    10ee:	681000ef          	jal	ra,1f6e <I2C_GenerateSTOP>
C:\MRS_DATA\workspace\CH592F_SSD1306\obj/../src/ssd1306/renderer.c:27
    I2C_GenerateSTART(ENABLE);
    10f2:	4505                	li	a0,1
C:\MRS_DATA\workspace\CH592F_SSD1306\obj/../src/ssd1306/renderer.c:28
    while (!I2C_CheckEvent(I2C_EVENT_MASTER_MODE_SELECT));
    10f4:	00030437          	lui	s0,0x30
C:\MRS_DATA\workspace\CH592F_SSD1306\obj/../src/ssd1306/renderer.c:27
    I2C_GenerateSTART(ENABLE);
    10f8:	651000ef          	jal	ra,1f48 <I2C_GenerateSTART>
C:\MRS_DATA\workspace\CH592F_SSD1306\obj/../src/ssd1306/renderer.c:28
    while (!I2C_CheckEvent(I2C_EVENT_MASTER_MODE_SELECT));
    10fc:	0405                	addi	s0,s0,1
    10fe:	8522                	mv	a0,s0
    1100:	6b7000ef          	jal	ra,1fb6 <I2C_CheckEvent>
    1104:	dd6d                	beqz	a0,10fe <OLED_Init+0x81c>
C:\MRS_DATA\workspace\CH592F_SSD1306\obj/../src/ssd1306/renderer.c:29
    I2C_Send7bitAddress(OLED_I2C_ADDR << 1, I2C_Direction_Transmitter);
    1106:	4581                	li	a1,0
    1108:	07800513          	li	a0,120
C:\MRS_DATA\workspace\CH592F_SSD1306\obj/../src/ssd1306/renderer.c:30
    while (!I2C_CheckEvent(I2C_EVENT_MASTER_TRANSMITTER_MODE_SELECTED));
    110c:	00070437          	lui	s0,0x70
C:\MRS_DATA\workspace\CH592F_SSD1306\obj/../src/ssd1306/renderer.c:29
    I2C_Send7bitAddress(OLED_I2C_ADDR << 1, I2C_Direction_Transmitter);
    1110:	68f000ef          	jal	ra,1f9e <I2C_Send7bitAddress>
C:\MRS_DATA\workspace\CH592F_SSD1306\obj/../src/ssd1306/renderer.c:30
    while (!I2C_CheckEvent(I2C_EVENT_MASTER_TRANSMITTER_MODE_SELECTED));
    1114:	08240413          	addi	s0,s0,130 # 70082 <_data_lma+0x697da>
    1118:	8522                	mv	a0,s0
    111a:	69d000ef          	jal	ra,1fb6 <I2C_CheckEvent>
    111e:	dd6d                	beqz	a0,1118 <OLED_Init+0x836>
C:\MRS_DATA\workspace\CH592F_SSD1306\obj/../src/ssd1306/renderer.c:31
    I2C_SendData(0x00);     // Command mode
    1120:	4501                	li	a0,0
C:\MRS_DATA\workspace\CH592F_SSD1306\obj/../src/ssd1306/renderer.c:32
    while (!I2C_CheckEvent(I2C_EVENT_MASTER_BYTE_TRANSMITTED));
    1122:	00070437          	lui	s0,0x70
C:\MRS_DATA\workspace\CH592F_SSD1306\obj/../src/ssd1306/renderer.c:31
    I2C_SendData(0x00);     // Command mode
    1126:	66f000ef          	jal	ra,1f94 <I2C_SendData>
C:\MRS_DATA\workspace\CH592F_SSD1306\obj/../src/ssd1306/renderer.c:32
    while (!I2C_CheckEvent(I2C_EVENT_MASTER_BYTE_TRANSMITTED));
    112a:	08440413          	addi	s0,s0,132 # 70084 <_data_lma+0x697dc>
    112e:	8522                	mv	a0,s0
    1130:	687000ef          	jal	ra,1fb6 <I2C_CheckEvent>
    1134:	dd6d                	beqz	a0,112e <OLED_Init+0x84c>
C:\MRS_DATA\workspace\CH592F_SSD1306\obj/../src/ssd1306/renderer.c:33
    I2C_SendData(command);
    1136:	04000513          	li	a0,64
C:\MRS_DATA\workspace\CH592F_SSD1306\obj/../src/ssd1306/renderer.c:34
    while (!I2C_CheckEvent(I2C_EVENT_MASTER_BYTE_TRANSMITTED));
    113a:	00070437          	lui	s0,0x70
C:\MRS_DATA\workspace\CH592F_SSD1306\obj/../src/ssd1306/renderer.c:33
    I2C_SendData(command);
    113e:	657000ef          	jal	ra,1f94 <I2C_SendData>
C:\MRS_DATA\workspace\CH592F_SSD1306\obj/../src/ssd1306/renderer.c:34
    while (!I2C_CheckEvent(I2C_EVENT_MASTER_BYTE_TRANSMITTED));
    1142:	08440413          	addi	s0,s0,132 # 70084 <_data_lma+0x697dc>
    1146:	8522                	mv	a0,s0
    1148:	66f000ef          	jal	ra,1fb6 <I2C_CheckEvent>
    114c:	dd6d                	beqz	a0,1146 <OLED_Init+0x864>
C:\MRS_DATA\workspace\CH592F_SSD1306\obj/../src/ssd1306/renderer.c:35
    I2C_GenerateSTOP(ENABLE);
    114e:	4505                	li	a0,1
    1150:	61f000ef          	jal	ra,1f6e <I2C_GenerateSTOP>
C:\MRS_DATA\workspace\CH592F_SSD1306\obj/../src/ssd1306/renderer.c:27
    I2C_GenerateSTART(ENABLE);
    1154:	4505                	li	a0,1
C:\MRS_DATA\workspace\CH592F_SSD1306\obj/../src/ssd1306/renderer.c:28
    while (!I2C_CheckEvent(I2C_EVENT_MASTER_MODE_SELECT));
    1156:	00030437          	lui	s0,0x30
C:\MRS_DATA\workspace\CH592F_SSD1306\obj/../src/ssd1306/renderer.c:27
    I2C_GenerateSTART(ENABLE);
    115a:	5ef000ef          	jal	ra,1f48 <I2C_GenerateSTART>
C:\MRS_DATA\workspace\CH592F_SSD1306\obj/../src/ssd1306/renderer.c:28
    while (!I2C_CheckEvent(I2C_EVENT_MASTER_MODE_SELECT));
    115e:	0405                	addi	s0,s0,1
    1160:	8522                	mv	a0,s0
    1162:	655000ef          	jal	ra,1fb6 <I2C_CheckEvent>
    1166:	dd6d                	beqz	a0,1160 <OLED_Init+0x87e>
C:\MRS_DATA\workspace\CH592F_SSD1306\obj/../src/ssd1306/renderer.c:29
    I2C_Send7bitAddress(OLED_I2C_ADDR << 1, I2C_Direction_Transmitter);
    1168:	4581                	li	a1,0
    116a:	07800513          	li	a0,120
C:\MRS_DATA\workspace\CH592F_SSD1306\obj/../src/ssd1306/renderer.c:30
    while (!I2C_CheckEvent(I2C_EVENT_MASTER_TRANSMITTER_MODE_SELECTED));
    116e:	00070437          	lui	s0,0x70
C:\MRS_DATA\workspace\CH592F_SSD1306\obj/../src/ssd1306/renderer.c:29
    I2C_Send7bitAddress(OLED_I2C_ADDR << 1, I2C_Direction_Transmitter);
    1172:	62d000ef          	jal	ra,1f9e <I2C_Send7bitAddress>
C:\MRS_DATA\workspace\CH592F_SSD1306\obj/../src/ssd1306/renderer.c:30
    while (!I2C_CheckEvent(I2C_EVENT_MASTER_TRANSMITTER_MODE_SELECTED));
    1176:	08240413          	addi	s0,s0,130 # 70082 <_data_lma+0x697da>
    117a:	8522                	mv	a0,s0
    117c:	63b000ef          	jal	ra,1fb6 <I2C_CheckEvent>
    1180:	dd6d                	beqz	a0,117a <OLED_Init+0x898>
C:\MRS_DATA\workspace\CH592F_SSD1306\obj/../src/ssd1306/renderer.c:31
    I2C_SendData(0x00);     // Command mode
    1182:	4501                	li	a0,0
C:\MRS_DATA\workspace\CH592F_SSD1306\obj/../src/ssd1306/renderer.c:32
    while (!I2C_CheckEvent(I2C_EVENT_MASTER_BYTE_TRANSMITTED));
    1184:	00070437          	lui	s0,0x70
C:\MRS_DATA\workspace\CH592F_SSD1306\obj/../src/ssd1306/renderer.c:31
    I2C_SendData(0x00);     // Command mode
    1188:	60d000ef          	jal	ra,1f94 <I2C_SendData>
C:\MRS_DATA\workspace\CH592F_SSD1306\obj/../src/ssd1306/renderer.c:32
    while (!I2C_CheckEvent(I2C_EVENT_MASTER_BYTE_TRANSMITTED));
    118c:	08440413          	addi	s0,s0,132 # 70084 <_data_lma+0x697dc>
    1190:	8522                	mv	a0,s0
    1192:	625000ef          	jal	ra,1fb6 <I2C_CheckEvent>
    1196:	dd6d                	beqz	a0,1190 <OLED_Init+0x8ae>
C:\MRS_DATA\workspace\CH592F_SSD1306\obj/../src/ssd1306/renderer.c:33
    I2C_SendData(command);
    1198:	0a400513          	li	a0,164
C:\MRS_DATA\workspace\CH592F_SSD1306\obj/../src/ssd1306/renderer.c:34
    while (!I2C_CheckEvent(I2C_EVENT_MASTER_BYTE_TRANSMITTED));
    119c:	00070437          	lui	s0,0x70
C:\MRS_DATA\workspace\CH592F_SSD1306\obj/../src/ssd1306/renderer.c:33
    I2C_SendData(command);
    11a0:	5f5000ef          	jal	ra,1f94 <I2C_SendData>
C:\MRS_DATA\workspace\CH592F_SSD1306\obj/../src/ssd1306/renderer.c:34
    while (!I2C_CheckEvent(I2C_EVENT_MASTER_BYTE_TRANSMITTED));
    11a4:	08440413          	addi	s0,s0,132 # 70084 <_data_lma+0x697dc>
    11a8:	8522                	mv	a0,s0
    11aa:	60d000ef          	jal	ra,1fb6 <I2C_CheckEvent>
    11ae:	dd6d                	beqz	a0,11a8 <OLED_Init+0x8c6>
C:\MRS_DATA\workspace\CH592F_SSD1306\obj/../src/ssd1306/renderer.c:35
    I2C_GenerateSTOP(ENABLE);
    11b0:	4505                	li	a0,1
    11b2:	5bd000ef          	jal	ra,1f6e <I2C_GenerateSTOP>
C:\MRS_DATA\workspace\CH592F_SSD1306\obj/../src/ssd1306/renderer.c:27
    I2C_GenerateSTART(ENABLE);
    11b6:	4505                	li	a0,1
C:\MRS_DATA\workspace\CH592F_SSD1306\obj/../src/ssd1306/renderer.c:28
    while (!I2C_CheckEvent(I2C_EVENT_MASTER_MODE_SELECT));
    11b8:	00030437          	lui	s0,0x30
C:\MRS_DATA\workspace\CH592F_SSD1306\obj/../src/ssd1306/renderer.c:27
    I2C_GenerateSTART(ENABLE);
    11bc:	58d000ef          	jal	ra,1f48 <I2C_GenerateSTART>
C:\MRS_DATA\workspace\CH592F_SSD1306\obj/../src/ssd1306/renderer.c:28
    while (!I2C_CheckEvent(I2C_EVENT_MASTER_MODE_SELECT));
    11c0:	0405                	addi	s0,s0,1
    11c2:	8522                	mv	a0,s0
    11c4:	5f3000ef          	jal	ra,1fb6 <I2C_CheckEvent>
    11c8:	dd6d                	beqz	a0,11c2 <OLED_Init+0x8e0>
C:\MRS_DATA\workspace\CH592F_SSD1306\obj/../src/ssd1306/renderer.c:29
    I2C_Send7bitAddress(OLED_I2C_ADDR << 1, I2C_Direction_Transmitter);
    11ca:	4581                	li	a1,0
    11cc:	07800513          	li	a0,120
C:\MRS_DATA\workspace\CH592F_SSD1306\obj/../src/ssd1306/renderer.c:30
    while (!I2C_CheckEvent(I2C_EVENT_MASTER_TRANSMITTER_MODE_SELECTED));
    11d0:	00070437          	lui	s0,0x70
C:\MRS_DATA\workspace\CH592F_SSD1306\obj/../src/ssd1306/renderer.c:29
    I2C_Send7bitAddress(OLED_I2C_ADDR << 1, I2C_Direction_Transmitter);
    11d4:	5cb000ef          	jal	ra,1f9e <I2C_Send7bitAddress>
C:\MRS_DATA\workspace\CH592F_SSD1306\obj/../src/ssd1306/renderer.c:30
    while (!I2C_CheckEvent(I2C_EVENT_MASTER_TRANSMITTER_MODE_SELECTED));
    11d8:	08240413          	addi	s0,s0,130 # 70082 <_data_lma+0x697da>
    11dc:	8522                	mv	a0,s0
    11de:	5d9000ef          	jal	ra,1fb6 <I2C_CheckEvent>
    11e2:	dd6d                	beqz	a0,11dc <OLED_Init+0x8fa>
C:\MRS_DATA\workspace\CH592F_SSD1306\obj/../src/ssd1306/renderer.c:31
    I2C_SendData(0x00);     // Command mode
    11e4:	4501                	li	a0,0
C:\MRS_DATA\workspace\CH592F_SSD1306\obj/../src/ssd1306/renderer.c:32
    while (!I2C_CheckEvent(I2C_EVENT_MASTER_BYTE_TRANSMITTED));
    11e6:	00070437          	lui	s0,0x70
C:\MRS_DATA\workspace\CH592F_SSD1306\obj/../src/ssd1306/renderer.c:31
    I2C_SendData(0x00);     // Command mode
    11ea:	5ab000ef          	jal	ra,1f94 <I2C_SendData>
C:\MRS_DATA\workspace\CH592F_SSD1306\obj/../src/ssd1306/renderer.c:32
    while (!I2C_CheckEvent(I2C_EVENT_MASTER_BYTE_TRANSMITTED));
    11ee:	08440413          	addi	s0,s0,132 # 70084 <_data_lma+0x697dc>
    11f2:	8522                	mv	a0,s0
    11f4:	5c3000ef          	jal	ra,1fb6 <I2C_CheckEvent>
    11f8:	dd6d                	beqz	a0,11f2 <OLED_Init+0x910>
C:\MRS_DATA\workspace\CH592F_SSD1306\obj/../src/ssd1306/renderer.c:33
    I2C_SendData(command);
    11fa:	0a600513          	li	a0,166
C:\MRS_DATA\workspace\CH592F_SSD1306\obj/../src/ssd1306/renderer.c:34
    while (!I2C_CheckEvent(I2C_EVENT_MASTER_BYTE_TRANSMITTED));
    11fe:	00070437          	lui	s0,0x70
C:\MRS_DATA\workspace\CH592F_SSD1306\obj/../src/ssd1306/renderer.c:33
    I2C_SendData(command);
    1202:	593000ef          	jal	ra,1f94 <I2C_SendData>
C:\MRS_DATA\workspace\CH592F_SSD1306\obj/../src/ssd1306/renderer.c:34
    while (!I2C_CheckEvent(I2C_EVENT_MASTER_BYTE_TRANSMITTED));
    1206:	08440413          	addi	s0,s0,132 # 70084 <_data_lma+0x697dc>
    120a:	8522                	mv	a0,s0
    120c:	5ab000ef          	jal	ra,1fb6 <I2C_CheckEvent>
    1210:	dd6d                	beqz	a0,120a <OLED_Init+0x928>
C:\MRS_DATA\workspace\CH592F_SSD1306\obj/../src/ssd1306/renderer.c:35
    I2C_GenerateSTOP(ENABLE);
    1212:	4505                	li	a0,1
    1214:	55b000ef          	jal	ra,1f6e <I2C_GenerateSTOP>
C:\MRS_DATA\workspace\CH592F_SSD1306\obj/../src/ssd1306/renderer.c:27
    I2C_GenerateSTART(ENABLE);
    1218:	4505                	li	a0,1
C:\MRS_DATA\workspace\CH592F_SSD1306\obj/../src/ssd1306/renderer.c:28
    while (!I2C_CheckEvent(I2C_EVENT_MASTER_MODE_SELECT));
    121a:	00030437          	lui	s0,0x30
C:\MRS_DATA\workspace\CH592F_SSD1306\obj/../src/ssd1306/renderer.c:27
    I2C_GenerateSTART(ENABLE);
    121e:	52b000ef          	jal	ra,1f48 <I2C_GenerateSTART>
C:\MRS_DATA\workspace\CH592F_SSD1306\obj/../src/ssd1306/renderer.c:28
    while (!I2C_CheckEvent(I2C_EVENT_MASTER_MODE_SELECT));
    1222:	0405                	addi	s0,s0,1
    1224:	8522                	mv	a0,s0
    1226:	591000ef          	jal	ra,1fb6 <I2C_CheckEvent>
    122a:	dd6d                	beqz	a0,1224 <OLED_Init+0x942>
C:\MRS_DATA\workspace\CH592F_SSD1306\obj/../src/ssd1306/renderer.c:29
    I2C_Send7bitAddress(OLED_I2C_ADDR << 1, I2C_Direction_Transmitter);
    122c:	4581                	li	a1,0
    122e:	07800513          	li	a0,120
C:\MRS_DATA\workspace\CH592F_SSD1306\obj/../src/ssd1306/renderer.c:30
    while (!I2C_CheckEvent(I2C_EVENT_MASTER_TRANSMITTER_MODE_SELECTED));
    1232:	00070437          	lui	s0,0x70
C:\MRS_DATA\workspace\CH592F_SSD1306\obj/../src/ssd1306/renderer.c:29
    I2C_Send7bitAddress(OLED_I2C_ADDR << 1, I2C_Direction_Transmitter);
    1236:	569000ef          	jal	ra,1f9e <I2C_Send7bitAddress>
C:\MRS_DATA\workspace\CH592F_SSD1306\obj/../src/ssd1306/renderer.c:30
    while (!I2C_CheckEvent(I2C_EVENT_MASTER_TRANSMITTER_MODE_SELECTED));
    123a:	08240413          	addi	s0,s0,130 # 70082 <_data_lma+0x697da>
    123e:	8522                	mv	a0,s0
    1240:	577000ef          	jal	ra,1fb6 <I2C_CheckEvent>
    1244:	dd6d                	beqz	a0,123e <OLED_Init+0x95c>
C:\MRS_DATA\workspace\CH592F_SSD1306\obj/../src/ssd1306/renderer.c:31
    I2C_SendData(0x00);     // Command mode
    1246:	4501                	li	a0,0
C:\MRS_DATA\workspace\CH592F_SSD1306\obj/../src/ssd1306/renderer.c:32
    while (!I2C_CheckEvent(I2C_EVENT_MASTER_BYTE_TRANSMITTED));
    1248:	00070437          	lui	s0,0x70
C:\MRS_DATA\workspace\CH592F_SSD1306\obj/../src/ssd1306/renderer.c:31
    I2C_SendData(0x00);     // Command mode
    124c:	549000ef          	jal	ra,1f94 <I2C_SendData>
C:\MRS_DATA\workspace\CH592F_SSD1306\obj/../src/ssd1306/renderer.c:32
    while (!I2C_CheckEvent(I2C_EVENT_MASTER_BYTE_TRANSMITTED));
    1250:	08440413          	addi	s0,s0,132 # 70084 <_data_lma+0x697dc>
    1254:	8522                	mv	a0,s0
    1256:	561000ef          	jal	ra,1fb6 <I2C_CheckEvent>
    125a:	dd6d                	beqz	a0,1254 <OLED_Init+0x972>
C:\MRS_DATA\workspace\CH592F_SSD1306\obj/../src/ssd1306/renderer.c:33
    I2C_SendData(command);
    125c:	02e00513          	li	a0,46
C:\MRS_DATA\workspace\CH592F_SSD1306\obj/../src/ssd1306/renderer.c:34
    while (!I2C_CheckEvent(I2C_EVENT_MASTER_BYTE_TRANSMITTED));
    1260:	00070437          	lui	s0,0x70
C:\MRS_DATA\workspace\CH592F_SSD1306\obj/../src/ssd1306/renderer.c:33
    I2C_SendData(command);
    1264:	531000ef          	jal	ra,1f94 <I2C_SendData>
C:\MRS_DATA\workspace\CH592F_SSD1306\obj/../src/ssd1306/renderer.c:34
    while (!I2C_CheckEvent(I2C_EVENT_MASTER_BYTE_TRANSMITTED));
    1268:	08440413          	addi	s0,s0,132 # 70084 <_data_lma+0x697dc>
    126c:	8522                	mv	a0,s0
    126e:	549000ef          	jal	ra,1fb6 <I2C_CheckEvent>
    1272:	dd6d                	beqz	a0,126c <OLED_Init+0x98a>
C:\MRS_DATA\workspace\CH592F_SSD1306\obj/../src/ssd1306/renderer.c:35
    I2C_GenerateSTOP(ENABLE);
    1274:	4505                	li	a0,1
    1276:	4f9000ef          	jal	ra,1f6e <I2C_GenerateSTOP>
C:\MRS_DATA\workspace\CH592F_SSD1306\obj/../src/ssd1306/renderer.c:27
    I2C_GenerateSTART(ENABLE);
    127a:	4505                	li	a0,1
C:\MRS_DATA\workspace\CH592F_SSD1306\obj/../src/ssd1306/renderer.c:28
    while (!I2C_CheckEvent(I2C_EVENT_MASTER_MODE_SELECT));
    127c:	00030437          	lui	s0,0x30
C:\MRS_DATA\workspace\CH592F_SSD1306\obj/../src/ssd1306/renderer.c:27
    I2C_GenerateSTART(ENABLE);
    1280:	4c9000ef          	jal	ra,1f48 <I2C_GenerateSTART>
C:\MRS_DATA\workspace\CH592F_SSD1306\obj/../src/ssd1306/renderer.c:28
    while (!I2C_CheckEvent(I2C_EVENT_MASTER_MODE_SELECT));
    1284:	0405                	addi	s0,s0,1
    1286:	8522                	mv	a0,s0
    1288:	52f000ef          	jal	ra,1fb6 <I2C_CheckEvent>
    128c:	dd6d                	beqz	a0,1286 <OLED_Init+0x9a4>
C:\MRS_DATA\workspace\CH592F_SSD1306\obj/../src/ssd1306/renderer.c:29
    I2C_Send7bitAddress(OLED_I2C_ADDR << 1, I2C_Direction_Transmitter);
    128e:	4581                	li	a1,0
    1290:	07800513          	li	a0,120
C:\MRS_DATA\workspace\CH592F_SSD1306\obj/../src/ssd1306/renderer.c:30
    while (!I2C_CheckEvent(I2C_EVENT_MASTER_TRANSMITTER_MODE_SELECTED));
    1294:	00070437          	lui	s0,0x70
C:\MRS_DATA\workspace\CH592F_SSD1306\obj/../src/ssd1306/renderer.c:29
    I2C_Send7bitAddress(OLED_I2C_ADDR << 1, I2C_Direction_Transmitter);
    1298:	507000ef          	jal	ra,1f9e <I2C_Send7bitAddress>
C:\MRS_DATA\workspace\CH592F_SSD1306\obj/../src/ssd1306/renderer.c:30
    while (!I2C_CheckEvent(I2C_EVENT_MASTER_TRANSMITTER_MODE_SELECTED));
    129c:	08240413          	addi	s0,s0,130 # 70082 <_data_lma+0x697da>
    12a0:	8522                	mv	a0,s0
    12a2:	515000ef          	jal	ra,1fb6 <I2C_CheckEvent>
    12a6:	dd6d                	beqz	a0,12a0 <OLED_Init+0x9be>
C:\MRS_DATA\workspace\CH592F_SSD1306\obj/../src/ssd1306/renderer.c:31
    I2C_SendData(0x00);     // Command mode
    12a8:	4501                	li	a0,0
C:\MRS_DATA\workspace\CH592F_SSD1306\obj/../src/ssd1306/renderer.c:32
    while (!I2C_CheckEvent(I2C_EVENT_MASTER_BYTE_TRANSMITTED));
    12aa:	00070437          	lui	s0,0x70
C:\MRS_DATA\workspace\CH592F_SSD1306\obj/../src/ssd1306/renderer.c:31
    I2C_SendData(0x00);     // Command mode
    12ae:	4e7000ef          	jal	ra,1f94 <I2C_SendData>
C:\MRS_DATA\workspace\CH592F_SSD1306\obj/../src/ssd1306/renderer.c:32
    while (!I2C_CheckEvent(I2C_EVENT_MASTER_BYTE_TRANSMITTED));
    12b2:	08440413          	addi	s0,s0,132 # 70084 <_data_lma+0x697dc>
    12b6:	8522                	mv	a0,s0
    12b8:	4ff000ef          	jal	ra,1fb6 <I2C_CheckEvent>
    12bc:	dd6d                	beqz	a0,12b6 <OLED_Init+0x9d4>
C:\MRS_DATA\workspace\CH592F_SSD1306\obj/../src/ssd1306/renderer.c:33
    I2C_SendData(command);
    12be:	0af00513          	li	a0,175
C:\MRS_DATA\workspace\CH592F_SSD1306\obj/../src/ssd1306/renderer.c:34
    while (!I2C_CheckEvent(I2C_EVENT_MASTER_BYTE_TRANSMITTED));
    12c2:	00070437          	lui	s0,0x70
C:\MRS_DATA\workspace\CH592F_SSD1306\obj/../src/ssd1306/renderer.c:33
    I2C_SendData(command);
    12c6:	4cf000ef          	jal	ra,1f94 <I2C_SendData>
C:\MRS_DATA\workspace\CH592F_SSD1306\obj/../src/ssd1306/renderer.c:34
    while (!I2C_CheckEvent(I2C_EVENT_MASTER_BYTE_TRANSMITTED));
    12ca:	08440413          	addi	s0,s0,132 # 70084 <_data_lma+0x697dc>
    12ce:	8522                	mv	a0,s0
    12d0:	4e7000ef          	jal	ra,1fb6 <I2C_CheckEvent>
    12d4:	dd6d                	beqz	a0,12ce <OLED_Init+0x9ec>
C:\MRS_DATA\workspace\CH592F_SSD1306\obj/../src/ssd1306/renderer.c:35
    I2C_GenerateSTOP(ENABLE);
    12d6:	4505                	li	a0,1
    12d8:	497000ef          	jal	ra,1f6e <I2C_GenerateSTOP>
OLED_Init():
C:\MRS_DATA\workspace\CH592F_SSD1306\obj/../src/ssd1306/renderer.c:102
    I2C_WriteCommand(0x40);
    I2C_WriteCommand(0xA4);         // Entire Display ON
    I2C_WriteCommand(0xA6);         // Set Normal Display
    I2C_WriteCommand(0x2E);         // Deactivate Scroll
    I2C_WriteCommand(0xAF);         // Display ON
    return 0;
    12dc:	4501                	li	a0,0
C:\MRS_DATA\workspace\CH592F_SSD1306\obj/../src/ssd1306/renderer.c:103
}
    12de:	40b2                	lw	ra,12(sp)
    12e0:	4422                	lw	s0,8(sp)
    12e2:	0141                	addi	sp,sp,16
    12e4:	8082                	ret
C:\MRS_DATA\workspace\CH592F_SSD1306\obj/../src/ssd1306/renderer.c:51 (discriminator 1)
    if ((!buffer) && !(buffer = (uint8_t *)malloc(OLED_WIDTH * ((OLED_HEIGHT + 7) / 8)))) {
    12e6:	20000513          	li	a0,512
    12ea:	57b040ef          	jal	ra,6064 <malloc>
    12ee:	80a1a423          	sw	a0,-2040(gp) # 20000868 <_edata>
    12f2:	e0051063          	bnez	a0,8f2 <OLED_Init+0x10>
C:\MRS_DATA\workspace\CH592F_SSD1306\obj/../src/ssd1306/renderer.c:52
        return 1;
    12f6:	4505                	li	a0,1
    12f8:	b7dd                	j	12de <OLED_Init+0x9fc>

000012fa <OLED_UpdateScreen>:
OLED_UpdateScreen():
C:\MRS_DATA\workspace\CH592F_SSD1306\obj/../src/ssd1306/renderer.c:105

void OLED_UpdateScreen(void) {
    12fa:	7179                	addi	sp,sp,-48
    12fc:	d226                	sw	s1,36(sp)
    12fe:	ce4e                	sw	s3,28(sp)
I2C_WriteCommand():
C:\MRS_DATA\workspace\CH592F_SSD1306\obj/../src/ssd1306/renderer.c:30
    while (!I2C_CheckEvent(I2C_EVENT_MASTER_TRANSMITTER_MODE_SELECTED));
    1300:	000704b7          	lui	s1,0x70
C:\MRS_DATA\workspace\CH592F_SSD1306\obj/../src/ssd1306/renderer.c:28
    while (!I2C_CheckEvent(I2C_EVENT_MASTER_MODE_SELECT));
    1304:	000309b7          	lui	s3,0x30
OLED_UpdateScreen():
C:\MRS_DATA\workspace\CH592F_SSD1306\obj/../src/ssd1306/renderer.c:105
void OLED_UpdateScreen(void) {
    1308:	cc52                	sw	s4,24(sp)
    130a:	ca56                	sw	s5,20(sp)
    130c:	c85a                	sw	s6,16(sp)
    130e:	c65e                	sw	s7,12(sp)
    1310:	c462                	sw	s8,8(sp)
I2C_WriteCommand():
C:\MRS_DATA\workspace\CH592F_SSD1306\obj/../src/ssd1306/renderer.c:30
    while (!I2C_CheckEvent(I2C_EVENT_MASTER_TRANSMITTER_MODE_SELECTED));
    1312:	08248a13          	addi	s4,s1,130 # 70082 <_data_lma+0x697da>
OLED_UpdateScreen():
C:\MRS_DATA\workspace\CH592F_SSD1306\obj/../src/ssd1306/renderer.c:105
void OLED_UpdateScreen(void) {
    1316:	d606                	sw	ra,44(sp)
    1318:	d422                	sw	s0,40(sp)
    131a:	d04a                	sw	s2,32(sp)
    131c:	0b000b93          	li	s7,176
    1320:	08000a93          	li	s5,128
    1324:	80818b13          	addi	s6,gp,-2040 # 20000868 <_edata>
I2C_WriteCommand():
C:\MRS_DATA\workspace\CH592F_SSD1306\obj/../src/ssd1306/renderer.c:28
    while (!I2C_CheckEvent(I2C_EVENT_MASTER_MODE_SELECT));
    1328:	0985                	addi	s3,s3,1
C:\MRS_DATA\workspace\CH592F_SSD1306\obj/../src/ssd1306/renderer.c:32
    while (!I2C_CheckEvent(I2C_EVENT_MASTER_BYTE_TRANSMITTED));
    132a:	08448493          	addi	s1,s1,132
OLED_UpdateScreen():
C:\MRS_DATA\workspace\CH592F_SSD1306\obj/../src/ssd1306/renderer.c:106
    for (uint8_t page = 0; page < (OLED_HEIGHT / 8); page++) {
    132e:	28000c13          	li	s8,640
I2C_WriteCommand():
C:\MRS_DATA\workspace\CH592F_SSD1306\obj/../src/ssd1306/renderer.c:27
    I2C_GenerateSTART(ENABLE);
    1332:	4505                	li	a0,1
    1334:	415000ef          	jal	ra,1f48 <I2C_GenerateSTART>
C:\MRS_DATA\workspace\CH592F_SSD1306\obj/../src/ssd1306/renderer.c:28
    while (!I2C_CheckEvent(I2C_EVENT_MASTER_MODE_SELECT));
    1338:	854e                	mv	a0,s3
    133a:	47d000ef          	jal	ra,1fb6 <I2C_CheckEvent>
    133e:	dd6d                	beqz	a0,1338 <OLED_UpdateScreen+0x3e>
C:\MRS_DATA\workspace\CH592F_SSD1306\obj/../src/ssd1306/renderer.c:29
    I2C_Send7bitAddress(OLED_I2C_ADDR << 1, I2C_Direction_Transmitter);
    1340:	4581                	li	a1,0
    1342:	07800513          	li	a0,120
    1346:	459000ef          	jal	ra,1f9e <I2C_Send7bitAddress>
C:\MRS_DATA\workspace\CH592F_SSD1306\obj/../src/ssd1306/renderer.c:30
    while (!I2C_CheckEvent(I2C_EVENT_MASTER_TRANSMITTER_MODE_SELECTED));
    134a:	8552                	mv	a0,s4
    134c:	46b000ef          	jal	ra,1fb6 <I2C_CheckEvent>
    1350:	dd6d                	beqz	a0,134a <OLED_UpdateScreen+0x50>
C:\MRS_DATA\workspace\CH592F_SSD1306\obj/../src/ssd1306/renderer.c:31
    I2C_SendData(0x00);     // Command mode
    1352:	4501                	li	a0,0
    1354:	441000ef          	jal	ra,1f94 <I2C_SendData>
C:\MRS_DATA\workspace\CH592F_SSD1306\obj/../src/ssd1306/renderer.c:32
    while (!I2C_CheckEvent(I2C_EVENT_MASTER_BYTE_TRANSMITTED));
    1358:	8526                	mv	a0,s1
    135a:	45d000ef          	jal	ra,1fb6 <I2C_CheckEvent>
    135e:	dd6d                	beqz	a0,1358 <OLED_UpdateScreen+0x5e>
C:\MRS_DATA\workspace\CH592F_SSD1306\obj/../src/ssd1306/renderer.c:33
    I2C_SendData(command);
    1360:	855e                	mv	a0,s7
    1362:	433000ef          	jal	ra,1f94 <I2C_SendData>
C:\MRS_DATA\workspace\CH592F_SSD1306\obj/../src/ssd1306/renderer.c:34
    while (!I2C_CheckEvent(I2C_EVENT_MASTER_BYTE_TRANSMITTED));
    1366:	8526                	mv	a0,s1
    1368:	44f000ef          	jal	ra,1fb6 <I2C_CheckEvent>
    136c:	dd6d                	beqz	a0,1366 <OLED_UpdateScreen+0x6c>
C:\MRS_DATA\workspace\CH592F_SSD1306\obj/../src/ssd1306/renderer.c:35
    I2C_GenerateSTOP(ENABLE);
    136e:	4505                	li	a0,1
    1370:	3ff000ef          	jal	ra,1f6e <I2C_GenerateSTOP>
C:\MRS_DATA\workspace\CH592F_SSD1306\obj/../src/ssd1306/renderer.c:27
    I2C_GenerateSTART(ENABLE);
    1374:	4505                	li	a0,1
    1376:	3d3000ef          	jal	ra,1f48 <I2C_GenerateSTART>
C:\MRS_DATA\workspace\CH592F_SSD1306\obj/../src/ssd1306/renderer.c:28
    while (!I2C_CheckEvent(I2C_EVENT_MASTER_MODE_SELECT));
    137a:	854e                	mv	a0,s3
    137c:	43b000ef          	jal	ra,1fb6 <I2C_CheckEvent>
    1380:	dd6d                	beqz	a0,137a <OLED_UpdateScreen+0x80>
C:\MRS_DATA\workspace\CH592F_SSD1306\obj/../src/ssd1306/renderer.c:29
    I2C_Send7bitAddress(OLED_I2C_ADDR << 1, I2C_Direction_Transmitter);
    1382:	4581                	li	a1,0
    1384:	07800513          	li	a0,120
    1388:	417000ef          	jal	ra,1f9e <I2C_Send7bitAddress>
C:\MRS_DATA\workspace\CH592F_SSD1306\obj/../src/ssd1306/renderer.c:30
    while (!I2C_CheckEvent(I2C_EVENT_MASTER_TRANSMITTER_MODE_SELECTED));
    138c:	8552                	mv	a0,s4
    138e:	429000ef          	jal	ra,1fb6 <I2C_CheckEvent>
    1392:	dd6d                	beqz	a0,138c <OLED_UpdateScreen+0x92>
C:\MRS_DATA\workspace\CH592F_SSD1306\obj/../src/ssd1306/renderer.c:31
    I2C_SendData(0x00);     // Command mode
    1394:	4501                	li	a0,0
    1396:	3ff000ef          	jal	ra,1f94 <I2C_SendData>
C:\MRS_DATA\workspace\CH592F_SSD1306\obj/../src/ssd1306/renderer.c:32
    while (!I2C_CheckEvent(I2C_EVENT_MASTER_BYTE_TRANSMITTED));
    139a:	8526                	mv	a0,s1
    139c:	41b000ef          	jal	ra,1fb6 <I2C_CheckEvent>
    13a0:	dd6d                	beqz	a0,139a <OLED_UpdateScreen+0xa0>
C:\MRS_DATA\workspace\CH592F_SSD1306\obj/../src/ssd1306/renderer.c:33
    I2C_SendData(command);
    13a2:	4501                	li	a0,0
    13a4:	3f1000ef          	jal	ra,1f94 <I2C_SendData>
C:\MRS_DATA\workspace\CH592F_SSD1306\obj/../src/ssd1306/renderer.c:34
    while (!I2C_CheckEvent(I2C_EVENT_MASTER_BYTE_TRANSMITTED));
    13a8:	8526                	mv	a0,s1
    13aa:	40d000ef          	jal	ra,1fb6 <I2C_CheckEvent>
    13ae:	dd6d                	beqz	a0,13a8 <OLED_UpdateScreen+0xae>
C:\MRS_DATA\workspace\CH592F_SSD1306\obj/../src/ssd1306/renderer.c:35
    I2C_GenerateSTOP(ENABLE);
    13b0:	4505                	li	a0,1
    13b2:	3bd000ef          	jal	ra,1f6e <I2C_GenerateSTOP>
C:\MRS_DATA\workspace\CH592F_SSD1306\obj/../src/ssd1306/renderer.c:27
    I2C_GenerateSTART(ENABLE);
    13b6:	4505                	li	a0,1
    13b8:	391000ef          	jal	ra,1f48 <I2C_GenerateSTART>
C:\MRS_DATA\workspace\CH592F_SSD1306\obj/../src/ssd1306/renderer.c:28
    while (!I2C_CheckEvent(I2C_EVENT_MASTER_MODE_SELECT));
    13bc:	854e                	mv	a0,s3
    13be:	3f9000ef          	jal	ra,1fb6 <I2C_CheckEvent>
    13c2:	dd6d                	beqz	a0,13bc <OLED_UpdateScreen+0xc2>
C:\MRS_DATA\workspace\CH592F_SSD1306\obj/../src/ssd1306/renderer.c:29
    I2C_Send7bitAddress(OLED_I2C_ADDR << 1, I2C_Direction_Transmitter);
    13c4:	4581                	li	a1,0
    13c6:	07800513          	li	a0,120
    13ca:	3d5000ef          	jal	ra,1f9e <I2C_Send7bitAddress>
C:\MRS_DATA\workspace\CH592F_SSD1306\obj/../src/ssd1306/renderer.c:30
    while (!I2C_CheckEvent(I2C_EVENT_MASTER_TRANSMITTER_MODE_SELECTED));
    13ce:	8552                	mv	a0,s4
    13d0:	3e7000ef          	jal	ra,1fb6 <I2C_CheckEvent>
    13d4:	dd6d                	beqz	a0,13ce <OLED_UpdateScreen+0xd4>
C:\MRS_DATA\workspace\CH592F_SSD1306\obj/../src/ssd1306/renderer.c:31
    I2C_SendData(0x00);     // Command mode
    13d6:	4501                	li	a0,0
    13d8:	3bd000ef          	jal	ra,1f94 <I2C_SendData>
C:\MRS_DATA\workspace\CH592F_SSD1306\obj/../src/ssd1306/renderer.c:32
    while (!I2C_CheckEvent(I2C_EVENT_MASTER_BYTE_TRANSMITTED));
    13dc:	8526                	mv	a0,s1
    13de:	3d9000ef          	jal	ra,1fb6 <I2C_CheckEvent>
    13e2:	dd6d                	beqz	a0,13dc <OLED_UpdateScreen+0xe2>
C:\MRS_DATA\workspace\CH592F_SSD1306\obj/../src/ssd1306/renderer.c:33
    I2C_SendData(command);
    13e4:	4541                	li	a0,16
    13e6:	3af000ef          	jal	ra,1f94 <I2C_SendData>
C:\MRS_DATA\workspace\CH592F_SSD1306\obj/../src/ssd1306/renderer.c:34
    while (!I2C_CheckEvent(I2C_EVENT_MASTER_BYTE_TRANSMITTED));
    13ea:	8526                	mv	a0,s1
    13ec:	3cb000ef          	jal	ra,1fb6 <I2C_CheckEvent>
    13f0:	dd6d                	beqz	a0,13ea <OLED_UpdateScreen+0xf0>
C:\MRS_DATA\workspace\CH592F_SSD1306\obj/../src/ssd1306/renderer.c:35
    I2C_GenerateSTOP(ENABLE);
    13f2:	4505                	li	a0,1
    13f4:	37b000ef          	jal	ra,1f6e <I2C_GenerateSTOP>
    13f8:	f80a8413          	addi	s0,s5,-128
OLED_UpdateScreen():
C:\MRS_DATA\workspace\CH592F_SSD1306\obj/../src/ssd1306/renderer.c:112 (discriminator 3)
        I2C_WriteCommand(0xB0 + page); // Set page address
        I2C_WriteCommand(0x00);        // Set lower column address
        I2C_WriteCommand(0x10);        // Set higher column address

        for (uint8_t col = 0; col < OLED_WIDTH; col++) {
            I2C_WriteData(buffer[page * OLED_WIDTH + col]);
    13fc:	000b2783          	lw	a5,0(s6) # 10000 <_data_lma+0x9758>
I2C_WriteData():
C:\MRS_DATA\workspace\CH592F_SSD1306\obj/../src/ssd1306/renderer.c:39 (discriminator 3)
    I2C_GenerateSTART(ENABLE);
    1400:	4505                	li	a0,1
OLED_UpdateScreen():
C:\MRS_DATA\workspace\CH592F_SSD1306\obj/../src/ssd1306/renderer.c:112 (discriminator 3)
            I2C_WriteData(buffer[page * OLED_WIDTH + col]);
    1402:	97a2                	add	a5,a5,s0
    1404:	0007c903          	lbu	s2,0(a5)
I2C_WriteData():
C:\MRS_DATA\workspace\CH592F_SSD1306\obj/../src/ssd1306/renderer.c:39 (discriminator 3)
    I2C_GenerateSTART(ENABLE);
    1408:	341000ef          	jal	ra,1f48 <I2C_GenerateSTART>
C:\MRS_DATA\workspace\CH592F_SSD1306\obj/../src/ssd1306/renderer.c:40
    while (!I2C_CheckEvent(I2C_EVENT_MASTER_MODE_SELECT));
    140c:	854e                	mv	a0,s3
    140e:	3a9000ef          	jal	ra,1fb6 <I2C_CheckEvent>
    1412:	dd6d                	beqz	a0,140c <OLED_UpdateScreen+0x112>
C:\MRS_DATA\workspace\CH592F_SSD1306\obj/../src/ssd1306/renderer.c:41
    I2C_Send7bitAddress(OLED_I2C_ADDR << 1, I2C_Direction_Transmitter);
    1414:	4581                	li	a1,0
    1416:	07800513          	li	a0,120
    141a:	385000ef          	jal	ra,1f9e <I2C_Send7bitAddress>
C:\MRS_DATA\workspace\CH592F_SSD1306\obj/../src/ssd1306/renderer.c:42
    while (!I2C_CheckEvent(I2C_EVENT_MASTER_TRANSMITTER_MODE_SELECTED));
    141e:	8552                	mv	a0,s4
    1420:	397000ef          	jal	ra,1fb6 <I2C_CheckEvent>
    1424:	dd6d                	beqz	a0,141e <OLED_UpdateScreen+0x124>
C:\MRS_DATA\workspace\CH592F_SSD1306\obj/../src/ssd1306/renderer.c:43
    I2C_SendData(0x40);    // Data mode
    1426:	04000513          	li	a0,64
    142a:	36b000ef          	jal	ra,1f94 <I2C_SendData>
C:\MRS_DATA\workspace\CH592F_SSD1306\obj/../src/ssd1306/renderer.c:44
    while (!I2C_CheckEvent(I2C_EVENT_MASTER_BYTE_TRANSMITTED));
    142e:	8526                	mv	a0,s1
    1430:	387000ef          	jal	ra,1fb6 <I2C_CheckEvent>
    1434:	dd6d                	beqz	a0,142e <OLED_UpdateScreen+0x134>
C:\MRS_DATA\workspace\CH592F_SSD1306\obj/../src/ssd1306/renderer.c:45
    I2C_SendData(data);
    1436:	854a                	mv	a0,s2
    1438:	35d000ef          	jal	ra,1f94 <I2C_SendData>
C:\MRS_DATA\workspace\CH592F_SSD1306\obj/../src/ssd1306/renderer.c:46
    while (!I2C_CheckEvent(I2C_EVENT_MASTER_BYTE_TRANSMITTED));
    143c:	8526                	mv	a0,s1
    143e:	379000ef          	jal	ra,1fb6 <I2C_CheckEvent>
    1442:	dd6d                	beqz	a0,143c <OLED_UpdateScreen+0x142>
C:\MRS_DATA\workspace\CH592F_SSD1306\obj/../src/ssd1306/renderer.c:47
    I2C_GenerateSTOP(ENABLE);
    1444:	0405                	addi	s0,s0,1
    1446:	4505                	li	a0,1
    1448:	327000ef          	jal	ra,1f6e <I2C_GenerateSTOP>
OLED_UpdateScreen():
C:\MRS_DATA\workspace\CH592F_SSD1306\obj/../src/ssd1306/renderer.c:111
        for (uint8_t col = 0; col < OLED_WIDTH; col++) {
    144c:	fa8a98e3          	bne	s5,s0,13fc <OLED_UpdateScreen+0x102>
    1450:	0b85                	addi	s7,s7,1
    1452:	080a8a93          	addi	s5,s5,128
    1456:	0ffbfb93          	andi	s7,s7,255
C:\MRS_DATA\workspace\CH592F_SSD1306\obj/../src/ssd1306/renderer.c:106 (discriminator 2)
    for (uint8_t page = 0; page < (OLED_HEIGHT / 8); page++) {
    145a:	ed8a9ce3          	bne	s5,s8,1332 <OLED_UpdateScreen+0x38>
C:\MRS_DATA\workspace\CH592F_SSD1306\obj/../src/ssd1306/renderer.c:115
        }
    }
}
    145e:	50b2                	lw	ra,44(sp)
    1460:	5422                	lw	s0,40(sp)
    1462:	5492                	lw	s1,36(sp)
    1464:	5902                	lw	s2,32(sp)
    1466:	49f2                	lw	s3,28(sp)
    1468:	4a62                	lw	s4,24(sp)
    146a:	4ad2                	lw	s5,20(sp)
    146c:	4b42                	lw	s6,16(sp)
    146e:	4bb2                	lw	s7,12(sp)
    1470:	4c22                	lw	s8,8(sp)
    1472:	6145                	addi	sp,sp,48
    1474:	8082                	ret

00001476 <OLED_DrawLine>:
OLED_DrawLine():
C:\MRS_DATA\workspace\CH592F_SSD1306\obj/../src/ssd1306/renderer.c:204
    float y_new = *x * sina + *y * cosa;
    *x = x_new;
    *y = y_new;
}

void OLED_DrawLine(int x0, int y0, int x1, int y1) {
    1476:	1141                	addi	sp,sp,-16
C:\MRS_DATA\workspace\CH592F_SSD1306\obj/../src/ssd1306/renderer.c:205
    int dx = abs(x1 - x0), sx = x0 < x1 ? 1 : -1;
    1478:	40a60eb3          	sub	t4,a2,a0
C:\MRS_DATA\workspace\CH592F_SSD1306\obj/../src/ssd1306/renderer.c:206
    int dy = -abs(y1 - y0), sy = y0 < y1 ? 1 : -1;
    147c:	40b683b3          	sub	t2,a3,a1
C:\MRS_DATA\workspace\CH592F_SSD1306\obj/../src/ssd1306/renderer.c:205
    int dx = abs(x1 - x0), sx = x0 < x1 ? 1 : -1;
    1480:	41fed793          	srai	a5,t4,0x1f
C:\MRS_DATA\workspace\CH592F_SSD1306\obj/../src/ssd1306/renderer.c:206
    int dy = -abs(y1 - y0), sy = y0 < y1 ? 1 : -1;
    1484:	41f3d713          	srai	a4,t2,0x1f
C:\MRS_DATA\workspace\CH592F_SSD1306\obj/../src/ssd1306/renderer.c:204
void OLED_DrawLine(int x0, int y0, int x1, int y1) {
    1488:	c426                	sw	s1,8(sp)
    148a:	c24a                	sw	s2,4(sp)
C:\MRS_DATA\workspace\CH592F_SSD1306\obj/../src/ssd1306/renderer.c:206
    int dy = -abs(y1 - y0), sy = y0 < y1 ? 1 : -1;
    148c:	00d5a4b3          	slt	s1,a1,a3
C:\MRS_DATA\workspace\CH592F_SSD1306\obj/../src/ssd1306/renderer.c:205
    int dx = abs(x1 - x0), sx = x0 < x1 ? 1 : -1;
    1490:	00c52933          	slt	s2,a0,a2
OLED_draw_pixel():
C:\MRS_DATA\workspace\CH592F_SSD1306\obj/../src/ssd1306/renderer.c:169
    current_byte = buffer[page * OLED_WIDTH + x];
    1494:	80818813          	addi	a6,gp,-2040 # 20000868 <_edata>
OLED_DrawLine():
C:\MRS_DATA\workspace\CH592F_SSD1306\obj/../src/ssd1306/renderer.c:205
    int dx = abs(x1 - x0), sx = x0 < x1 ? 1 : -1;
    1498:	01d7ceb3          	xor	t4,a5,t4
    149c:	41200933          	neg	s2,s2
C:\MRS_DATA\workspace\CH592F_SSD1306\obj/../src/ssd1306/renderer.c:206
    int dy = -abs(y1 - y0), sy = y0 < y1 ? 1 : -1;
    14a0:	007743b3          	xor	t2,a4,t2
    14a4:	409004b3          	neg	s1,s1
OLED_draw_pixel():
C:\MRS_DATA\workspace\CH592F_SSD1306\obj/../src/ssd1306/renderer.c:169
    current_byte = buffer[page * OLED_WIDTH + x];
    14a8:	00082f83          	lw	t6,0(a6)
OLED_DrawLine():
C:\MRS_DATA\workspace\CH592F_SSD1306\obj/../src/ssd1306/renderer.c:206
    int dy = -abs(y1 - y0), sy = y0 < y1 ? 1 : -1;
    14ac:	40e383b3          	sub	t2,t2,a4
C:\MRS_DATA\workspace\CH592F_SSD1306\obj/../src/ssd1306/renderer.c:205
    int dx = abs(x1 - x0), sx = x0 < x1 ? 1 : -1;
    14b0:	40fe8eb3          	sub	t4,t4,a5
    14b4:	00297913          	andi	s2,s2,2
C:\MRS_DATA\workspace\CH592F_SSD1306\obj/../src/ssd1306/renderer.c:206
    int dy = -abs(y1 - y0), sy = y0 < y1 ? 1 : -1;
    14b8:	8889                	andi	s1,s1,2
    14ba:	01851e13          	slli	t3,a0,0x18
C:\MRS_DATA\workspace\CH592F_SSD1306\obj/../src/ssd1306/renderer.c:204
void OLED_DrawLine(int x0, int y0, int x1, int y1) {
    14be:	c622                	sw	s0,12(sp)
C:\MRS_DATA\workspace\CH592F_SSD1306\obj/../src/ssd1306/renderer.c:205
    int dx = abs(x1 - x0), sx = x0 < x1 ? 1 : -1;
    14c0:	197d                	addi	s2,s2,-1
C:\MRS_DATA\workspace\CH592F_SSD1306\obj/../src/ssd1306/renderer.c:206
    int dy = -abs(y1 - y0), sy = y0 < y1 ? 1 : -1;
    14c2:	407002b3          	neg	t0,t2
    14c6:	14fd                	addi	s1,s1,-1
C:\MRS_DATA\workspace\CH592F_SSD1306\obj/../src/ssd1306/renderer.c:207
    int err = dx + dy, e2;
    14c8:	407e88b3          	sub	a7,t4,t2
    14cc:	418e5e13          	srai	t3,t3,0x18
OLED_draw_pixel():
C:\MRS_DATA\workspace\CH592F_SSD1306\obj/../src/ssd1306/renderer.c:161
    if ((x >= OLED_WIDTH) || (y >= OLED_HEIGHT)) {
    14d0:	447d                	li	s0,31
C:\MRS_DATA\workspace\CH592F_SSD1306\obj/../src/ssd1306/renderer.c:172
    current_byte |= (1 << bit); // Set the bit to draw the pixel
    14d2:	4f05                	li	t5,1
OLED_DrawLine():
C:\MRS_DATA\workspace\CH592F_SSD1306\obj/../src/ssd1306/renderer.c:210

    while (1) {
        OLED_draw_pixel(x0, y0);
    14d4:	0ff5f813          	andi	a6,a1,255
OLED_draw_pixel():
C:\MRS_DATA\workspace\CH592F_SSD1306\obj/../src/ssd1306/renderer.c:169
    current_byte = buffer[page * OLED_WIDTH + x];
    14d8:	00385713          	srli	a4,a6,0x3
    14dc:	071e                	slli	a4,a4,0x7
    14de:	0ff57793          	andi	a5,a0,255
    14e2:	97ba                	add	a5,a5,a4
C:\MRS_DATA\workspace\CH592F_SSD1306\obj/../src/ssd1306/renderer.c:172
    current_byte |= (1 << bit); // Set the bit to draw the pixel
    14e4:	00787713          	andi	a4,a6,7
OLED_DrawLine():
C:\MRS_DATA\workspace\CH592F_SSD1306\obj/../src/ssd1306/renderer.c:212
        if (x0 == x1 && y0 == y1) { break; };
        e2 = 2 * err;
    14e8:	00189313          	slli	t1,a7,0x1
OLED_draw_pixel():
C:\MRS_DATA\workspace\CH592F_SSD1306\obj/../src/ssd1306/renderer.c:169
    current_byte = buffer[page * OLED_WIDTH + x];
    14ec:	97fe                	add	a5,a5,t6
C:\MRS_DATA\workspace\CH592F_SSD1306\obj/../src/ssd1306/renderer.c:172
    current_byte |= (1 << bit); // Set the bit to draw the pixel
    14ee:	00ef1733          	sll	a4,t5,a4
C:\MRS_DATA\workspace\CH592F_SSD1306\obj/../src/ssd1306/renderer.c:161
    if ((x >= OLED_WIDTH) || (y >= OLED_HEIGHT)) {
    14f2:	000e4a63          	bltz	t3,1506 <OLED_DrawLine+0x90>
    14f6:	01046863          	bltu	s0,a6,1506 <OLED_DrawLine+0x90>
C:\MRS_DATA\workspace\CH592F_SSD1306\obj/../src/ssd1306/renderer.c:172
    current_byte |= (1 << bit); // Set the bit to draw the pixel
    14fa:	0007c803          	lbu	a6,0(a5)
    14fe:	01076733          	or	a4,a4,a6
C:\MRS_DATA\workspace\CH592F_SSD1306\obj/../src/ssd1306/renderer.c:174
    buffer[page * OLED_WIDTH + x] = current_byte;
    1502:	00e78023          	sb	a4,0(a5)
OLED_DrawLine():
C:\MRS_DATA\workspace\CH592F_SSD1306\obj/../src/ssd1306/renderer.c:211
        if (x0 == x1 && y0 == y1) { break; };
    1506:	02c50063          	beq	a0,a2,1526 <OLED_DrawLine+0xb0>
C:\MRS_DATA\workspace\CH592F_SSD1306\obj/../src/ssd1306/renderer.c:213 (discriminator 3)
        if (e2 >= dy) { err += dy; x0 += sx; };
    150a:	00534b63          	blt	t1,t0,1520 <OLED_DrawLine+0xaa>
C:\MRS_DATA\workspace\CH592F_SSD1306\obj/../src/ssd1306/renderer.c:213 (discriminator 1)
    150e:	954a                	add	a0,a0,s2
    1510:	01851e13          	slli	t3,a0,0x18
    1514:	407888b3          	sub	a7,a7,t2
C:\MRS_DATA\workspace\CH592F_SSD1306\obj/../src/ssd1306/renderer.c:214 (discriminator 1)
        if (e2 <= dx) { err += dx; y0 += sy; };
    1518:	418e5e13          	srai	t3,t3,0x18
    151c:	fa6ecce3          	blt	t4,t1,14d4 <OLED_DrawLine+0x5e>
    1520:	98f6                	add	a7,a7,t4
    1522:	95a6                	add	a1,a1,s1
    1524:	bf45                	j	14d4 <OLED_DrawLine+0x5e>
C:\MRS_DATA\workspace\CH592F_SSD1306\obj/../src/ssd1306/renderer.c:211 (discriminator 1)
        if (x0 == x1 && y0 == y1) { break; };
    1526:	fed592e3          	bne	a1,a3,150a <OLED_DrawLine+0x94>
C:\MRS_DATA\workspace\CH592F_SSD1306\obj/../src/ssd1306/renderer.c:216
    }
}
    152a:	4432                	lw	s0,12(sp)
    152c:	44a2                	lw	s1,8(sp)
    152e:	4912                	lw	s2,4(sp)
    1530:	0141                	addi	sp,sp,16
    1532:	8082                	ret

00001534 <OLED_Draw3DCube>:
OLED_Draw3DCube():
C:\MRS_DATA\workspace\CH592F_SSD1306\obj/../src/ssd1306/renderer.c:225
//    viewer_distance = 4.0;
    *x2d = (int)(20.0 * x / (z + 4.0)) + OLED_WIDTH / 2 + offsetX;
    *y2d = (int)(20.0 * y / (z + 4.0)) + OLED_HEIGHT / 2 + offsetY;
}

void OLED_Draw3DCube(float angleX, float angleY, float angleZ, float scale, int offsetX, int offsetY) {
    1534:	7119                	addi	sp,sp,-128
    1536:	dca2                	sw	s0,120(sp)
    1538:	daa6                	sw	s1,116(sp)
    153a:	d6ce                	sw	s3,108(sp)
    153c:	dc3a                	sw	a4,56(sp)
    153e:	de3e                	sw	a5,60(sp)
    1540:	de86                	sw	ra,124(sp)
    1542:	d8ca                	sw	s2,112(sp)
    1544:	d4d2                	sw	s4,104(sp)
    1546:	d2d6                	sw	s5,100(sp)
    1548:	d0da                	sw	s6,96(sp)
    154a:	cede                	sw	s7,92(sp)
    154c:	cce2                	sw	s8,88(sp)
    154e:	cae6                	sw	s9,84(sp)
    1550:	c8ea                	sw	s10,80(sp)
    1552:	c6ee                	sw	s11,76(sp)
    1554:	84ae                	mv	s1,a1
    1556:	8432                	mv	s0,a2
    1558:	89b6                	mv	s3,a3
C:\MRS_DATA\workspace\CH592F_SSD1306\obj/../src/ssd1306/renderer.c:227

    memcpy(vertices, original_vertices, sizeof(original_vertices));
    155a:	00005797          	auipc	a5,0x5
    155e:	e0678793          	addi	a5,a5,-506 # 6360 <original_vertices>
    1562:	85818713          	addi	a4,gp,-1960 # 200008b8 <vertices>
    1566:	00005897          	auipc	a7,0x5
    156a:	e5a88893          	addi	a7,a7,-422 # 63c0 <original_vertices+0x60>
    156e:	0007a803          	lw	a6,0(a5)
    1572:	43cc                	lw	a1,4(a5)
    1574:	4790                	lw	a2,8(a5)
    1576:	47d4                	lw	a3,12(a5)
    1578:	01072023          	sw	a6,0(a4)
    157c:	c34c                	sw	a1,4(a4)
    157e:	c710                	sw	a2,8(a4)
    1580:	c754                	sw	a3,12(a4)
    1582:	07c1                	addi	a5,a5,16
    1584:	0741                	addi	a4,a4,16
    1586:	ff1794e3          	bne	a5,a7,156e <OLED_Draw3DCube+0x3a>
C:\MRS_DATA\workspace\CH592F_SSD1306\obj/../src/ssd1306/renderer.c:228
    memset(projected, 0, 8*2);
    158a:	8001ac23          	sw	zero,-2024(gp) # 20000878 <projected>
    158e:	8001ae23          	sw	zero,-2020(gp) # 2000087c <projected+0x4>
    1592:	8201a023          	sw	zero,-2016(gp) # 20000880 <projected+0x8>
    1596:	8201a223          	sw	zero,-2012(gp) # 20000884 <projected+0xc>
RotateX():
C:\MRS_DATA\workspace\CH592F_SSD1306\obj/../src/ssd1306/renderer.c:178
    float cosa = cos(angle);
    159a:	03f040ef          	jal	ra,5dd8 <__extendsfdf2>
    159e:	8a2a                	mv	s4,a0
    15a0:	8aae                	mv	s5,a1
    15a2:	3f7000ef          	jal	ra,2198 <cos>
    15a6:	0df040ef          	jal	ra,5e84 <__truncdfsf2>
C:\MRS_DATA\workspace\CH592F_SSD1306\obj/../src/ssd1306/renderer.c:179
    float sina = sin(angle);
    15aa:	85d6                	mv	a1,s5
C:\MRS_DATA\workspace\CH592F_SSD1306\obj/../src/ssd1306/renderer.c:178
    float cosa = cos(angle);
    15ac:	8daa                	mv	s11,a0
C:\MRS_DATA\workspace\CH592F_SSD1306\obj/../src/ssd1306/renderer.c:179
    float sina = sin(angle);
    15ae:	8552                	mv	a0,s4
    15b0:	473000ef          	jal	ra,2222 <sin>
    15b4:	0d1040ef          	jal	ra,5e84 <__truncdfsf2>
    15b8:	c82a                	sw	a0,16(sp)
RotateY():
C:\MRS_DATA\workspace\CH592F_SSD1306\obj/../src/ssd1306/renderer.c:187
    float cosa = cos(angle);
    15ba:	8526                	mv	a0,s1
    15bc:	01d040ef          	jal	ra,5dd8 <__extendsfdf2>
    15c0:	8a2a                	mv	s4,a0
    15c2:	8aae                	mv	s5,a1
    15c4:	3d5000ef          	jal	ra,2198 <cos>
    15c8:	0bd040ef          	jal	ra,5e84 <__truncdfsf2>
    15cc:	8d2a                	mv	s10,a0
C:\MRS_DATA\workspace\CH592F_SSD1306\obj/../src/ssd1306/renderer.c:188
    float sina = sin(angle);
    15ce:	85d6                	mv	a1,s5
    15d0:	8552                	mv	a0,s4
    15d2:	451000ef          	jal	ra,2222 <sin>
    15d6:	0af040ef          	jal	ra,5e84 <__truncdfsf2>
    15da:	8caa                	mv	s9,a0
RotateX():
C:\MRS_DATA\workspace\CH592F_SSD1306\obj/../src/ssd1306/renderer.c:178
    float cosa = cos(angle);
    15dc:	8522                	mv	a0,s0
    15de:	7fa040ef          	jal	ra,5dd8 <__extendsfdf2>
    15e2:	842a                	mv	s0,a0
    15e4:	84ae                	mv	s1,a1
    15e6:	3b3000ef          	jal	ra,2198 <cos>
    15ea:	09b040ef          	jal	ra,5e84 <__truncdfsf2>
C:\MRS_DATA\workspace\CH592F_SSD1306\obj/../src/ssd1306/renderer.c:179
    float sina = sin(angle);
    15ee:	85a6                	mv	a1,s1
C:\MRS_DATA\workspace\CH592F_SSD1306\obj/../src/ssd1306/renderer.c:178
    float cosa = cos(angle);
    15f0:	8c2a                	mv	s8,a0
C:\MRS_DATA\workspace\CH592F_SSD1306\obj/../src/ssd1306/renderer.c:179
    float sina = sin(angle);
    15f2:	8522                	mv	a0,s0
    15f4:	42f000ef          	jal	ra,2222 <sin>
    15f8:	08d040ef          	jal	ra,5e84 <__truncdfsf2>
    15fc:	00005797          	auipc	a5,0x5
    1600:	cfc78793          	addi	a5,a5,-772 # 62f8 <_sbrk+0x36>
Project3DTo2D():
C:\MRS_DATA\workspace\CH592F_SSD1306\obj/../src/ssd1306/renderer.c:221
    *x2d = (int)(20.0 * x / (z + 4.0)) + OLED_WIDTH / 2 + offsetX;
    1604:	4398                	lw	a4,0(a5)
    1606:	43d4                	lw	a3,4(a5)
    1608:	00005797          	auipc	a5,0x5
    160c:	ce078793          	addi	a5,a5,-800 # 62e8 <_sbrk+0x26>
    1610:	0047a803          	lw	a6,4(a5)
    1614:	439c                	lw	a5,0(a5)
    1616:	81818913          	addi	s2,gp,-2024 # 20000878 <projected>
    161a:	ce42                	sw	a6,28(sp)
    161c:	cc3e                	sw	a5,24(sp)
    161e:	00005797          	auipc	a5,0x5
    1622:	cd278793          	addi	a5,a5,-814 # 62f0 <_sbrk+0x2e>
    1626:	0047a803          	lw	a6,4(a5)
    162a:	439c                	lw	a5,0(a5)
RotateX():
C:\MRS_DATA\workspace\CH592F_SSD1306\obj/../src/ssd1306/renderer.c:179
    float sina = sin(angle);
    162c:	ca2a                	sw	a0,20(sp)
Project3DTo2D():
C:\MRS_DATA\workspace\CH592F_SSD1306\obj/../src/ssd1306/renderer.c:221
    *x2d = (int)(20.0 * x / (z + 4.0)) + OLED_WIDTH / 2 + offsetX;
    162e:	d43a                	sw	a4,40(sp)
    1630:	d636                	sw	a3,44(sp)
    1632:	d03e                	sw	a5,32(sp)
    1634:	d242                	sw	a6,36(sp)
    1636:	85818413          	addi	s0,gp,-1960 # 200008b8 <vertices>
    163a:	84ca                	mv	s1,s2
C:\MRS_DATA\workspace\CH592F_SSD1306\obj/../src/ssd1306/renderer.c:222
    *y2d = (int)(20.0 * y / (z + 4.0)) + OLED_HEIGHT / 2 + offsetY;
    163c:	d83a                	sw	a4,48(sp)
    163e:	da36                	sw	a3,52(sp)
OLED_Draw3DCube():
C:\MRS_DATA\workspace\CH592F_SSD1306\obj/../src/ssd1306/renderer.c:232 (discriminator 3)

    for (int i = 0; i < 8; i++) {
        // Scale vertices
        vertices[i][0] *= scale;
    1640:	400c                	lw	a1,0(s0)
    1642:	854e                	mv	a0,s3
    1644:	0431                	addi	s0,s0,12
    1646:	04e040ef          	jal	ra,5694 <__mulsf3>
C:\MRS_DATA\workspace\CH592F_SSD1306\obj/../src/ssd1306/renderer.c:233 (discriminator 3)
        vertices[i][1] *= scale;
    164a:	ff842583          	lw	a1,-8(s0)
C:\MRS_DATA\workspace\CH592F_SSD1306\obj/../src/ssd1306/renderer.c:232 (discriminator 3)
        vertices[i][0] *= scale;
    164e:	8b2a                	mv	s6,a0
C:\MRS_DATA\workspace\CH592F_SSD1306\obj/../src/ssd1306/renderer.c:233 (discriminator 3)
        vertices[i][1] *= scale;
    1650:	854e                	mv	a0,s3
    1652:	042040ef          	jal	ra,5694 <__mulsf3>
C:\MRS_DATA\workspace\CH592F_SSD1306\obj/../src/ssd1306/renderer.c:234 (discriminator 3)
        vertices[i][2] *= scale;
    1656:	ffc42583          	lw	a1,-4(s0)
C:\MRS_DATA\workspace\CH592F_SSD1306\obj/../src/ssd1306/renderer.c:233 (discriminator 3)
        vertices[i][1] *= scale;
    165a:	8baa                	mv	s7,a0
C:\MRS_DATA\workspace\CH592F_SSD1306\obj/../src/ssd1306/renderer.c:234 (discriminator 3)
        vertices[i][2] *= scale;
    165c:	854e                	mv	a0,s3
    165e:	036040ef          	jal	ra,5694 <__mulsf3>
    1662:	8aaa                	mv	s5,a0
RotateX():
C:\MRS_DATA\workspace\CH592F_SSD1306\obj/../src/ssd1306/renderer.c:180 (discriminator 3)
    float y_new = *y * cosa - *z * sina;
    1664:	85ee                	mv	a1,s11
    1666:	855e                	mv	a0,s7
    1668:	02c040ef          	jal	ra,5694 <__mulsf3>
    166c:	45c2                	lw	a1,16(sp)
    166e:	8a2a                	mv	s4,a0
    1670:	8556                	mv	a0,s5
    1672:	022040ef          	jal	ra,5694 <__mulsf3>
    1676:	85aa                	mv	a1,a0
    1678:	8552                	mv	a0,s4
    167a:	2ae040ef          	jal	ra,5928 <__subsf3>
C:\MRS_DATA\workspace\CH592F_SSD1306\obj/../src/ssd1306/renderer.c:181 (discriminator 3)
    float z_new = *y * sina + *z * cosa;
    167e:	45c2                	lw	a1,16(sp)
C:\MRS_DATA\workspace\CH592F_SSD1306\obj/../src/ssd1306/renderer.c:180 (discriminator 3)
    float y_new = *y * cosa - *z * sina;
    1680:	8a2a                	mv	s4,a0
C:\MRS_DATA\workspace\CH592F_SSD1306\obj/../src/ssd1306/renderer.c:181 (discriminator 3)
    float z_new = *y * sina + *z * cosa;
    1682:	855e                	mv	a0,s7
    1684:	010040ef          	jal	ra,5694 <__mulsf3>
    1688:	8baa                	mv	s7,a0
    168a:	85ee                	mv	a1,s11
    168c:	8556                	mv	a0,s5
    168e:	006040ef          	jal	ra,5694 <__mulsf3>
    1692:	85aa                	mv	a1,a0
    1694:	855e                	mv	a0,s7
    1696:	383030ef          	jal	ra,5218 <__addsf3>
    169a:	8baa                	mv	s7,a0
RotateY():
C:\MRS_DATA\workspace\CH592F_SSD1306\obj/../src/ssd1306/renderer.c:189 (discriminator 3)
    float x_new = *x * cosa + *z * sina;
    169c:	85ea                	mv	a1,s10
    169e:	855a                	mv	a0,s6
    16a0:	7f5030ef          	jal	ra,5694 <__mulsf3>
    16a4:	8aaa                	mv	s5,a0
    16a6:	85de                	mv	a1,s7
    16a8:	8566                	mv	a0,s9
    16aa:	7eb030ef          	jal	ra,5694 <__mulsf3>
    16ae:	85aa                	mv	a1,a0
    16b0:	8556                	mv	a0,s5
    16b2:	367030ef          	jal	ra,5218 <__addsf3>
    16b6:	8aaa                	mv	s5,a0
C:\MRS_DATA\workspace\CH592F_SSD1306\obj/../src/ssd1306/renderer.c:190 (discriminator 3)
    float z_new = -*x * sina + *z * cosa;
    16b8:	85de                	mv	a1,s7
    16ba:	856a                	mv	a0,s10
    16bc:	7d9030ef          	jal	ra,5694 <__mulsf3>
    16c0:	8baa                	mv	s7,a0
    16c2:	85e6                	mv	a1,s9
    16c4:	855a                	mv	a0,s6
    16c6:	7cf030ef          	jal	ra,5694 <__mulsf3>
    16ca:	85aa                	mv	a1,a0
    16cc:	855e                	mv	a0,s7
    16ce:	25a040ef          	jal	ra,5928 <__subsf3>
RotateX():
C:\MRS_DATA\workspace\CH592F_SSD1306\obj/../src/ssd1306/renderer.c:180 (discriminator 3)
    float y_new = *y * cosa - *z * sina;
    16d2:	85d6                	mv	a1,s5
RotateY():
C:\MRS_DATA\workspace\CH592F_SSD1306\obj/../src/ssd1306/renderer.c:192 (discriminator 3)
    *z = z_new;
    16d4:	fea42e23          	sw	a0,-4(s0)
    16d8:	c42a                	sw	a0,8(sp)
RotateX():
C:\MRS_DATA\workspace\CH592F_SSD1306\obj/../src/ssd1306/renderer.c:180 (discriminator 3)
    float y_new = *y * cosa - *z * sina;
    16da:	8562                	mv	a0,s8
    16dc:	7b9030ef          	jal	ra,5694 <__mulsf3>
    16e0:	4bd2                	lw	s7,20(sp)
    16e2:	8b2a                	mv	s6,a0
    16e4:	85d2                	mv	a1,s4
    16e6:	855e                	mv	a0,s7
    16e8:	7ad030ef          	jal	ra,5694 <__mulsf3>
    16ec:	85aa                	mv	a1,a0
    16ee:	855a                	mv	a0,s6
    16f0:	238040ef          	jal	ra,5928 <__subsf3>
    16f4:	8b2a                	mv	s6,a0
C:\MRS_DATA\workspace\CH592F_SSD1306\obj/../src/ssd1306/renderer.c:181 (discriminator 3)
    float z_new = *y * sina + *z * cosa;
    16f6:	85d6                	mv	a1,s5
    16f8:	855e                	mv	a0,s7
    16fa:	79b030ef          	jal	ra,5694 <__mulsf3>
    16fe:	8aaa                	mv	s5,a0
    1700:	85d2                	mv	a1,s4
    1702:	8562                	mv	a0,s8
    1704:	791030ef          	jal	ra,5694 <__mulsf3>
    1708:	85aa                	mv	a1,a0
    170a:	8556                	mv	a0,s5
    170c:	30d030ef          	jal	ra,5218 <__addsf3>
Project3DTo2D():
C:\MRS_DATA\workspace\CH592F_SSD1306\obj/../src/ssd1306/renderer.c:221 (discriminator 3)
    *x2d = (int)(20.0 * x / (z + 4.0)) + OLED_WIDTH / 2 + offsetX;
    1710:	47a2                	lw	a5,8(sp)
RotateX():
C:\MRS_DATA\workspace\CH592F_SSD1306\obj/../src/ssd1306/renderer.c:181 (discriminator 3)
    float z_new = *y * sina + *z * cosa;
    1712:	8baa                	mv	s7,a0
C:\MRS_DATA\workspace\CH592F_SSD1306\obj/../src/ssd1306/renderer.c:183 (discriminator 3)
    *z = z_new;
    1714:	fea42c23          	sw	a0,-8(s0)
C:\MRS_DATA\workspace\CH592F_SSD1306\obj/../src/ssd1306/renderer.c:182 (discriminator 3)
    *y = y_new;
    1718:	ff642a23          	sw	s6,-12(s0)
Project3DTo2D():
C:\MRS_DATA\workspace\CH592F_SSD1306\obj/../src/ssd1306/renderer.c:221 (discriminator 3)
    *x2d = (int)(20.0 * x / (z + 4.0)) + OLED_WIDTH / 2 + offsetX;
    171c:	853e                	mv	a0,a5
    171e:	6ba040ef          	jal	ra,5dd8 <__extendsfdf2>
    1722:	4662                	lw	a2,24(sp)
    1724:	46f2                	lw	a3,28(sp)
    1726:	04a1                	addi	s1,s1,8
    1728:	024020ef          	jal	ra,374c <__adddf3>
    172c:	862a                	mv	a2,a0
    172e:	86ae                	mv	a3,a1
    1730:	5502                	lw	a0,32(sp)
    1732:	5592                	lw	a1,36(sp)
    1734:	748020ef          	jal	ra,3e7c <__divdf3>
    1738:	5622                	lw	a2,40(sp)
    173a:	56b2                	lw	a3,44(sp)
    173c:	8a2a                	mv	s4,a0
    173e:	8aae                	mv	s5,a1
    1740:	609020ef          	jal	ra,4548 <__muldf3>
    1744:	c42a                	sw	a0,8(sp)
    1746:	855a                	mv	a0,s6
    1748:	c62e                	sw	a1,12(sp)
    174a:	68e040ef          	jal	ra,5dd8 <__extendsfdf2>
    174e:	4722                	lw	a4,8(sp)
    1750:	47b2                	lw	a5,12(sp)
    1752:	862a                	mv	a2,a0
    1754:	86ae                	mv	a3,a1
    1756:	853a                	mv	a0,a4
    1758:	85be                	mv	a1,a5
    175a:	5ef020ef          	jal	ra,4548 <__muldf3>
    175e:	1e1030ef          	jal	ra,513e <__fixdfsi>
    1762:	57e2                	lw	a5,56(sp)
    1764:	04050513          	addi	a0,a0,64
    1768:	953e                	add	a0,a0,a5
    176a:	fea4ac23          	sw	a0,-8(s1)
C:\MRS_DATA\workspace\CH592F_SSD1306\obj/../src/ssd1306/renderer.c:222 (discriminator 3)
    *y2d = (int)(20.0 * y / (z + 4.0)) + OLED_HEIGHT / 2 + offsetY;
    176e:	855e                	mv	a0,s7
    1770:	668040ef          	jal	ra,5dd8 <__extendsfdf2>
    1774:	8652                	mv	a2,s4
    1776:	86d6                	mv	a3,s5
    1778:	5d1020ef          	jal	ra,4548 <__muldf3>
    177c:	5642                	lw	a2,48(sp)
    177e:	56d2                	lw	a3,52(sp)
    1780:	5c9020ef          	jal	ra,4548 <__muldf3>
    1784:	1bb030ef          	jal	ra,513e <__fixdfsi>
    1788:	57f2                	lw	a5,60(sp)
    178a:	0541                	addi	a0,a0,16
    178c:	953e                	add	a0,a0,a5
    178e:	fea4ae23          	sw	a0,-4(s1)
OLED_Draw3DCube():
C:\MRS_DATA\workspace\CH592F_SSD1306\obj/../src/ssd1306/renderer.c:230 (discriminator 3)
    for (int i = 0; i < 8; i++) {
    1792:	8b818793          	addi	a5,gp,-1864 # 20000918 <errno>
    1796:	eaf415e3          	bne	s0,a5,1640 <OLED_Draw3DCube+0x10c>
C:\MRS_DATA\workspace\CH592F_SSD1306\obj/../src/ssd1306/renderer.c:245

        // Project 3D coordinates to 2D with offsets
        Project3DTo2D(vertices[i][0], vertices[i][1], vertices[i][2], &projected[i][0], &projected[i][1], offsetX, offsetY);
    }

    memset(buffer, 0x00, OLED_WIDTH * ((OLED_HEIGHT + 7) / 8)); // Clear the buffer before drawing new frame
    179a:	80818793          	addi	a5,gp,-2040 # 20000868 <_edata>
    179e:	4388                	lw	a0,0(a5)
    17a0:	20000613          	li	a2,512
    17a4:	4581                	li	a1,0
    17a6:	894ff0ef          	jal	ra,83a <memset>
C:\MRS_DATA\workspace\CH592F_SSD1306\obj/../src/ssd1306/renderer.c:248

    // Project each edge to buffer
    for (int i = 0; i < 12; i++) {
    17aa:	00005417          	auipc	s0,0x5
    17ae:	b5640413          	addi	s0,s0,-1194 # 6300 <edges>
    17b2:	00005497          	auipc	s1,0x5
    17b6:	bae48493          	addi	s1,s1,-1106 # 6360 <original_vertices>
C:\MRS_DATA\workspace\CH592F_SSD1306\obj/../src/ssd1306/renderer.c:249 (discriminator 3)
        OLED_DrawLine(projected[edges[i][0]][0], projected[edges[i][0]][1], projected[edges[i][1]][0], projected[edges[i][1]][1]);
    17ba:	401c                	lw	a5,0(s0)
    17bc:	4058                	lw	a4,4(s0)
    17be:	0421                	addi	s0,s0,8
    17c0:	078e                	slli	a5,a5,0x3
    17c2:	070e                	slli	a4,a4,0x3
    17c4:	974a                	add	a4,a4,s2
    17c6:	97ca                	add	a5,a5,s2
    17c8:	4354                	lw	a3,4(a4)
    17ca:	4310                	lw	a2,0(a4)
    17cc:	43cc                	lw	a1,4(a5)
    17ce:	4388                	lw	a0,0(a5)
    17d0:	315d                	jal	1476 <OLED_DrawLine>
C:\MRS_DATA\workspace\CH592F_SSD1306\obj/../src/ssd1306/renderer.c:248 (discriminator 3)
    for (int i = 0; i < 12; i++) {
    17d2:	fe9414e3          	bne	s0,s1,17ba <OLED_Draw3DCube+0x286>
C:\MRS_DATA\workspace\CH592F_SSD1306\obj/../src/ssd1306/renderer.c:253
    }

    OLED_UpdateScreen();
}
    17d6:	5466                	lw	s0,120(sp)
    17d8:	50f6                	lw	ra,124(sp)
    17da:	54d6                	lw	s1,116(sp)
    17dc:	5946                	lw	s2,112(sp)
    17de:	59b6                	lw	s3,108(sp)
    17e0:	5a26                	lw	s4,104(sp)
    17e2:	5a96                	lw	s5,100(sp)
    17e4:	5b06                	lw	s6,96(sp)
    17e6:	4bf6                	lw	s7,92(sp)
    17e8:	4c66                	lw	s8,88(sp)
    17ea:	4cd6                	lw	s9,84(sp)
    17ec:	4d46                	lw	s10,80(sp)
    17ee:	4db6                	lw	s11,76(sp)
    17f0:	6109                	addi	sp,sp,128
C:\MRS_DATA\workspace\CH592F_SSD1306\obj/../src/ssd1306/renderer.c:252
    OLED_UpdateScreen();
    17f2:	b09ff06f          	j	12fa <OLED_UpdateScreen>

000017f6 <main>:
main():
C:\MRS_DATA\workspace\CH592F_SSD1306\obj/../src/Main.c:7
#include "CH59x_common.h"

#include "../src/board.h"
#include "../src/ssd1306/renderer.h"

int main(void) {
    17f6:	7139                	addi	sp,sp,-64
C:\MRS_DATA\workspace\CH592F_SSD1306\obj/../src/Main.c:10
#if 1
    // Enable Internal DC-DC Power
    PWR_DCDCCfg(ENABLE);
    17f8:	4505                	li	a0,1
C:\MRS_DATA\workspace\CH592F_SSD1306\obj/../src/Main.c:7
int main(void) {
    17fa:	de06                	sw	ra,60(sp)
    17fc:	dc22                	sw	s0,56(sp)
    17fe:	da26                	sw	s1,52(sp)
    1800:	d84a                	sw	s2,48(sp)
    1802:	d64e                	sw	s3,44(sp)
    1804:	d452                	sw	s4,40(sp)
    1806:	d256                	sw	s5,36(sp)
    1808:	d05a                	sw	s6,32(sp)
    180a:	ce5e                	sw	s7,28(sp)
    180c:	cc62                	sw	s8,24(sp)
    180e:	ca66                	sw	s9,20(sp)
    1810:	c86a                	sw	s10,16(sp)
    1812:	c66e                	sw	s11,12(sp)
C:\MRS_DATA\workspace\CH592F_SSD1306\obj/../src/Main.c:10
    PWR_DCDCCfg(ENABLE);
    1814:	7c4000ef          	jal	ra,1fd8 <PWR_DCDCCfg>
C:\MRS_DATA\workspace\CH592F_SSD1306\obj/../src/Main.c:13
#endif

    SetSysClock(CLK_SOURCE_PLL_60MHz);
    1818:	04800513          	li	a0,72
    181c:	1ffff097          	auipc	ra,0x1ffff
    1820:	884080e7          	jalr	-1916(ra) # 200000a0 <SetSysClock>
C:\MRS_DATA\workspace\CH592F_SSD1306\obj/../src/Main.c:16

    // Init UART - Default is UART 0 (TX-PB7, RX-PB4)
    DebugInit();
    1824:	26c1                	jal	1be4 <DebugInit>
C:\MRS_DATA\workspace\CH592F_SSD1306\obj/../src/Main.c:19

    // Blink LED in case loop ends
    led_init();
    1826:	26c5                	jal	1c06 <led_init>
C:\MRS_DATA\workspace\CH592F_SSD1306\obj/../src/Main.c:22

    // Initialize I2C
    I2C_Init(I2C_Mode_I2C, 400000, I2C_DutyCycle_2, I2C_Ack_Enable, I2C_AckAddr_7bit, 0x00);
    1828:	000625b7          	lui	a1,0x62
    182c:	4781                	li	a5,0
    182e:	6711                	lui	a4,0x4
    1830:	40000693          	li	a3,1024
    1834:	4601                	li	a2,0
    1836:	a8058593          	addi	a1,a1,-1408 # 61a80 <_data_lma+0x5b1d8>
    183a:	4501                	li	a0,0
    183c:	2b8d                	jal	1dae <I2C_Init>
C:\MRS_DATA\workspace\CH592F_SSD1306\obj/../src/Main.c:25

    // Initialize OLED
    if(OLED_Init()){
    183e:	8a4ff0ef          	jal	ra,8e2 <OLED_Init>
    1842:	c10d                	beqz	a0,1864 <main+0x6e>
C:\MRS_DATA\workspace\CH592F_SSD1306\obj/../src/Main.c:111
    while (1) {
        led_toggle();
        DelayMs(1000);
    }
    return 0;
}
    1844:	50f2                	lw	ra,60(sp)
    1846:	5462                	lw	s0,56(sp)
    1848:	54d2                	lw	s1,52(sp)
    184a:	5942                	lw	s2,48(sp)
    184c:	59b2                	lw	s3,44(sp)
    184e:	5a22                	lw	s4,40(sp)
    1850:	5a92                	lw	s5,36(sp)
    1852:	5b02                	lw	s6,32(sp)
    1854:	4bf2                	lw	s7,28(sp)
    1856:	4c62                	lw	s8,24(sp)
    1858:	4cd2                	lw	s9,20(sp)
    185a:	4d42                	lw	s10,16(sp)
    185c:	4db2                	lw	s11,12(sp)
    185e:	4501                	li	a0,0
    1860:	6121                	addi	sp,sp,64
    1862:	8082                	ret
C:\MRS_DATA\workspace\CH592F_SSD1306\obj/../src/Main.c:42
    srand(time(NULL));  // Will not give much randomization - MCU time will always be same at startup
    1864:	1ef040ef          	jal	ra,6252 <time>
    1868:	0d9040ef          	jal	ra,6140 <srand>
C:\MRS_DATA\workspace\CH592F_SSD1306\obj/../src/Main.c:45
    float posX      = (rand() % (int)(Xmax - Xmin + 1)) + Xmin;
    186c:	133040ef          	jal	ra,619e <rand>
    1870:	07100793          	li	a5,113
    1874:	02f56533          	rem	a0,a0,a5
    1878:	fc850513          	addi	a0,a0,-56
    187c:	496040ef          	jal	ra,5d12 <__floatsisf>
    1880:	84aa                	mv	s1,a0
C:\MRS_DATA\workspace\CH592F_SSD1306\obj/../src/Main.c:46
    float posY      = (rand() % (int)(Ymax - Ymin + 1)) + Ymin;
    1882:	11d040ef          	jal	ra,619e <rand>
    1886:	47c5                	li	a5,17
    1888:	02f56533          	rem	a0,a0,a5
    188c:	1561                	addi	a0,a0,-8
    188e:	484040ef          	jal	ra,5d12 <__floatsisf>
    1892:	892a                	mv	s2,a0
C:\MRS_DATA\workspace\CH592F_SSD1306\obj/../src/Main.c:47
    float velocityX = ((rand() % 5) + 1) * (rand() % 2 ? 1 : -1);
    1894:	10b040ef          	jal	ra,619e <rand>
    1898:	4795                	li	a5,5
    189a:	02f567b3          	rem	a5,a0,a5
    189e:	00178413          	addi	s0,a5,1
    18a2:	0fd040ef          	jal	ra,619e <rand>
    18a6:	8905                	andi	a0,a0,1
    18a8:	4785                	li	a5,1
    18aa:	e111                	bnez	a0,18ae <main+0xb8>
    18ac:	57fd                	li	a5,-1
C:\MRS_DATA\workspace\CH592F_SSD1306\obj/../src/Main.c:47 (discriminator 4)
    18ae:	02f40533          	mul	a0,s0,a5
    18b2:	460040ef          	jal	ra,5d12 <__floatsisf>
    18b6:	8a2a                	mv	s4,a0
C:\MRS_DATA\workspace\CH592F_SSD1306\obj/../src/Main.c:48 (discriminator 4)
    float velocityY = ((rand() % 5) + 1) * (rand() % 2 ? 1 : -1);
    18b8:	0e7040ef          	jal	ra,619e <rand>
    18bc:	4795                	li	a5,5
    18be:	02f567b3          	rem	a5,a0,a5
    18c2:	00178413          	addi	s0,a5,1
    18c6:	0d9040ef          	jal	ra,619e <rand>
    18ca:	8905                	andi	a0,a0,1
    18cc:	4785                	li	a5,1
    18ce:	e111                	bnez	a0,18d2 <main+0xdc>
C:\MRS_DATA\workspace\CH592F_SSD1306\obj/../src/Main.c:48
    18d0:	57fd                	li	a5,-1
C:\MRS_DATA\workspace\CH592F_SSD1306\obj/../src/Main.c:48 (discriminator 4)
    18d2:	02f40533          	mul	a0,s0,a5
    18d6:	00005d17          	auipc	s10,0x5
    18da:	aead0d13          	addi	s10,s10,-1302 # 63c0 <original_vertices+0x60>
C:\MRS_DATA\workspace\CH592F_SSD1306\obj/../src/Main.c:32 (discriminator 4)
    float angleX = 0.0, angleY = 0.0, angleZ = 0.0;
    18de:	00000413          	li	s0,0
    18e2:	00005c17          	auipc	s8,0x5
    18e6:	ae6c0c13          	addi	s8,s8,-1306 # 63c8 <original_vertices+0x68>
    18ea:	00005b97          	auipc	s7,0x5
    18ee:	ae6b8b93          	addi	s7,s7,-1306 # 63d0 <original_vertices+0x70>
C:\MRS_DATA\workspace\CH592F_SSD1306\obj/../src/Main.c:48 (discriminator 4)
    float velocityY = ((rand() % 5) + 1) * (rand() % 2 ? 1 : -1);
    18f2:	420040ef          	jal	ra,5d12 <__floatsisf>
    18f6:	00005797          	auipc	a5,0x5
    18fa:	ace78793          	addi	a5,a5,-1330 # 63c4 <original_vertices+0x64>
    18fe:	89aa                	mv	s3,a0
C:\MRS_DATA\workspace\CH592F_SSD1306\obj/../src/Main.c:62 (discriminator 4)
        if (posY <= Ymin || posY >= Ymax)
    1900:	0007ac83          	lw	s9,0(a5)
    1904:	a059                	j	198a <main+0x194>
C:\MRS_DATA\workspace\CH592F_SSD1306\obj/../src/Main.c:62 (discriminator 1)
    1906:	000d2583          	lw	a1,0(s10)
    190a:	854a                	mv	a0,s2
    190c:	477030ef          	jal	ra,5582 <__gesf2>
    1910:	24055663          	bgez	a0,1b5c <main+0x366>
C:\MRS_DATA\workspace\CH592F_SSD1306\obj/../src/Main.c:69
        if (posX <= Xmin || posX >= Xmax)
    1914:	854a                	mv	a0,s2
    1916:	39a040ef          	jal	ra,5cb0 <__fixsfsi>
    191a:	000c2583          	lw	a1,0(s8)
    191e:	8b2a                	mv	s6,a0
    1920:	8526                	mv	a0,s1
    1922:	4e7030ef          	jal	ra,5608 <__lesf2>
    1926:	16a05463          	blez	a0,1a8e <main+0x298>
    192a:	00005797          	auipc	a5,0x5
    192e:	aa278793          	addi	a5,a5,-1374 # 63cc <original_vertices+0x6c>
    1932:	438c                	lw	a1,0(a5)
    1934:	8526                	mv	a0,s1
    1936:	44d030ef          	jal	ra,5582 <__gesf2>
    193a:	26055263          	bgez	a0,1b9e <main+0x3a8>
    193e:	8526                	mv	a0,s1
    1940:	370040ef          	jal	ra,5cb0 <__fixsfsi>
    1944:	8aaa                	mv	s5,a0
C:\MRS_DATA\workspace\CH592F_SSD1306\obj/../src/Main.c:93
        if (angleX >= angle_bound)   { angleX -= angle_bound; };
    1946:	00005797          	auipc	a5,0x5
    194a:	a9a78793          	addi	a5,a5,-1382 # 63e0 <original_vertices+0x80>
    194e:	0007ad83          	lw	s11,0(a5)
    1952:	8522                	mv	a0,s0
    1954:	85ee                	mv	a1,s11
    1956:	42d030ef          	jal	ra,5582 <__gesf2>
    195a:	10054e63          	bltz	a0,1a76 <main+0x280>
C:\MRS_DATA\workspace\CH592F_SSD1306\obj/../src/Main.c:93 (discriminator 1)
    195e:	8522                	mv	a0,s0
    1960:	85ee                	mv	a1,s11
    1962:	7c7030ef          	jal	ra,5928 <__subsf3>
    1966:	842a                	mv	s0,a0
C:\MRS_DATA\workspace\CH592F_SSD1306\obj/../src/Main.c:98 (discriminator 3)
        OLED_Draw3DCube(angleX, angleY, angleZ, scale, posX, posY);
    1968:	00005797          	auipc	a5,0x5
    196c:	a8078793          	addi	a5,a5,-1408 # 63e8 <original_vertices+0x88>
    1970:	4394                	lw	a3,0(a5)
    1972:	8522                	mv	a0,s0
    1974:	87da                	mv	a5,s6
    1976:	8756                	mv	a4,s5
    1978:	8622                	mv	a2,s0
    197a:	85a2                	mv	a1,s0
    197c:	bb9ff0ef          	jal	ra,1534 <OLED_Draw3DCube>
C:\MRS_DATA\workspace\CH592F_SSD1306\obj/../src/Main.c:101 (discriminator 3)
        DelayMs(1);
    1980:	4505                	li	a0,1
    1982:	1ffff097          	auipc	ra,0x1ffff
    1986:	9b8080e7          	jalr	-1608(ra) # 2000033a <mDelaymS>
C:\MRS_DATA\workspace\CH592F_SSD1306\obj/../src/Main.c:57
        posX += velocityX;
    198a:	85d2                	mv	a1,s4
    198c:	8526                	mv	a0,s1
    198e:	08b030ef          	jal	ra,5218 <__addsf3>
C:\MRS_DATA\workspace\CH592F_SSD1306\obj/../src/Main.c:58
        posY += velocityY;
    1992:	85ce                	mv	a1,s3
C:\MRS_DATA\workspace\CH592F_SSD1306\obj/../src/Main.c:57
        posX += velocityX;
    1994:	84aa                	mv	s1,a0
C:\MRS_DATA\workspace\CH592F_SSD1306\obj/../src/Main.c:58
        posY += velocityY;
    1996:	854a                	mv	a0,s2
    1998:	081030ef          	jal	ra,5218 <__addsf3>
C:\MRS_DATA\workspace\CH592F_SSD1306\obj/../src/Main.c:62
        if (posY <= Ymin || posY >= Ymax)
    199c:	85e6                	mv	a1,s9
C:\MRS_DATA\workspace\CH592F_SSD1306\obj/../src/Main.c:58
        posY += velocityY;
    199e:	892a                	mv	s2,a0
C:\MRS_DATA\workspace\CH592F_SSD1306\obj/../src/Main.c:62
        if (posY <= Ymin || posY >= Ymax)
    19a0:	469030ef          	jal	ra,5608 <__lesf2>
    19a4:	f6a041e3          	bgtz	a0,1906 <main+0x110>
C:\MRS_DATA\workspace\CH592F_SSD1306\obj/../src/Main.c:64
            velocityY = -velocityY * accelerationFactor;
    19a8:	000ba583          	lw	a1,0(s7)
    19ac:	854e                	mv	a0,s3
    19ae:	4e7030ef          	jal	ra,5694 <__mulsf3>
C:\MRS_DATA\workspace\CH592F_SSD1306\obj/../src/Main.c:65
            posY = (posY >= Ymax) ? Ymax : Ymin;
    19b2:	000d2583          	lw	a1,0(s10)
C:\MRS_DATA\workspace\CH592F_SSD1306\obj/../src/Main.c:64
            velocityY = -velocityY * accelerationFactor;
    19b6:	89aa                	mv	s3,a0
C:\MRS_DATA\workspace\CH592F_SSD1306\obj/../src/Main.c:65
            posY = (posY >= Ymax) ? Ymax : Ymin;
    19b8:	854a                	mv	a0,s2
    19ba:	3c9030ef          	jal	ra,5582 <__gesf2>
    19be:	1a055563          	bgez	a0,1b68 <main+0x372>
C:\MRS_DATA\workspace\CH592F_SSD1306\obj/../src/Main.c:69
        if (posX <= Xmin || posX >= Xmax)
    19c2:	000c2583          	lw	a1,0(s8)
    19c6:	8526                	mv	a0,s1
    19c8:	441030ef          	jal	ra,5608 <__lesf2>
    19cc:	0aa05f63          	blez	a0,1a8a <main+0x294>
    19d0:	00005797          	auipc	a5,0x5
    19d4:	9fc78793          	addi	a5,a5,-1540 # 63cc <original_vertices+0x6c>
    19d8:	438c                	lw	a1,0(a5)
    19da:	8526                	mv	a0,s1
    19dc:	3a7030ef          	jal	ra,5582 <__gesf2>
    19e0:	1a055d63          	bgez	a0,1b9a <main+0x3a4>
    19e4:	8526                	mv	a0,s1
    19e6:	2ca040ef          	jal	ra,5cb0 <__fixsfsi>
    19ea:	8aaa                	mv	s5,a0
    19ec:	5b61                	li	s6,-8
C:\MRS_DATA\workspace\CH592F_SSD1306\obj/../src/Main.c:65
            posY = (posY >= Ymax) ? Ymax : Ymin;
    19ee:	8966                	mv	s2,s9
C:\MRS_DATA\workspace\CH592F_SSD1306\obj/../src/Main.c:79
            if (velocityX >  velocityCap)   { velocityX =  maxVelocity - (rand() % (int)maxVelocity);};
    19f0:	00005797          	auipc	a5,0x5
    19f4:	9e478793          	addi	a5,a5,-1564 # 63d4 <original_vertices+0x74>
    19f8:	438c                	lw	a1,0(a5)
    19fa:	8552                	mv	a0,s4
    19fc:	387030ef          	jal	ra,5582 <__gesf2>
    1a00:	0ca04a63          	bgtz	a0,1ad4 <main+0x2de>
C:\MRS_DATA\workspace\CH592F_SSD1306\obj/../src/Main.c:80 (discriminator 3)
            if (velocityY >  velocityCap)   { velocityY =  maxVelocity - (rand() % (int)maxVelocity);};
    1a04:	00005797          	auipc	a5,0x5
    1a08:	9d078793          	addi	a5,a5,-1584 # 63d4 <original_vertices+0x74>
    1a0c:	438c                	lw	a1,0(a5)
    1a0e:	854e                	mv	a0,s3
    1a10:	373030ef          	jal	ra,5582 <__gesf2>
    1a14:	0ea04a63          	bgtz	a0,1b08 <main+0x312>
C:\MRS_DATA\workspace\CH592F_SSD1306\obj/../src/Main.c:81 (discriminator 3)
            if (velocityX < -velocityCap)   { velocityX =  maxVelocity + (rand() % (int)maxVelocity);};
    1a18:	00005797          	auipc	a5,0x5
    1a1c:	9c478793          	addi	a5,a5,-1596 # 63dc <original_vertices+0x7c>
    1a20:	438c                	lw	a1,0(a5)
    1a22:	8552                	mv	a0,s4
    1a24:	3e5030ef          	jal	ra,5608 <__lesf2>
    1a28:	10054a63          	bltz	a0,1b3c <main+0x346>
C:\MRS_DATA\workspace\CH592F_SSD1306\obj/../src/Main.c:82 (discriminator 3)
            if (velocityY < -velocityCap)   { velocityY =  maxVelocity + (rand() % (int)maxVelocity);};
    1a2c:	00005797          	auipc	a5,0x5
    1a30:	9b078793          	addi	a5,a5,-1616 # 63dc <original_vertices+0x7c>
    1a34:	438c                	lw	a1,0(a5)
    1a36:	854e                	mv	a0,s3
    1a38:	3d1030ef          	jal	ra,5608 <__lesf2>
    1a3c:	f00555e3          	bgez	a0,1946 <main+0x150>
C:\MRS_DATA\workspace\CH592F_SSD1306\obj/../src/Main.c:82 (discriminator 1)
    1a40:	75e040ef          	jal	ra,619e <rand>
    1a44:	4795                	li	a5,5
    1a46:	02f56533          	rem	a0,a0,a5
    1a4a:	2c8040ef          	jal	ra,5d12 <__floatsisf>
    1a4e:	00005797          	auipc	a5,0x5
    1a52:	98a78793          	addi	a5,a5,-1654 # 63d8 <original_vertices+0x78>
    1a56:	438c                	lw	a1,0(a5)
    1a58:	7c0030ef          	jal	ra,5218 <__addsf3>
C:\MRS_DATA\workspace\CH592F_SSD1306\obj/../src/Main.c:93 (discriminator 1)
        if (angleX >= angle_bound)   { angleX -= angle_bound; };
    1a5c:	00005797          	auipc	a5,0x5
    1a60:	98478793          	addi	a5,a5,-1660 # 63e0 <original_vertices+0x80>
    1a64:	0007ad83          	lw	s11,0(a5)
C:\MRS_DATA\workspace\CH592F_SSD1306\obj/../src/Main.c:82 (discriminator 1)
            if (velocityY < -velocityCap)   { velocityY =  maxVelocity + (rand() % (int)maxVelocity);};
    1a68:	89aa                	mv	s3,a0
C:\MRS_DATA\workspace\CH592F_SSD1306\obj/../src/Main.c:93 (discriminator 1)
        if (angleX >= angle_bound)   { angleX -= angle_bound; };
    1a6a:	8522                	mv	a0,s0
    1a6c:	85ee                	mv	a1,s11
    1a6e:	315030ef          	jal	ra,5582 <__gesf2>
    1a72:	ee0556e3          	bgez	a0,195e <main+0x168>
C:\MRS_DATA\workspace\CH592F_SSD1306\obj/../src/Main.c:88
        angleX += angleIncrementX;
    1a76:	00005797          	auipc	a5,0x5
    1a7a:	96e78793          	addi	a5,a5,-1682 # 63e4 <original_vertices+0x84>
    1a7e:	438c                	lw	a1,0(a5)
    1a80:	8522                	mv	a0,s0
    1a82:	796030ef          	jal	ra,5218 <__addsf3>
    1a86:	842a                	mv	s0,a0
    1a88:	b5c5                	j	1968 <main+0x172>
C:\MRS_DATA\workspace\CH592F_SSD1306\obj/../src/Main.c:69
        if (posX <= Xmin || posX >= Xmax)
    1a8a:	5b61                	li	s6,-8
C:\MRS_DATA\workspace\CH592F_SSD1306\obj/../src/Main.c:65
            posY = (posY >= Ymax) ? Ymax : Ymin;
    1a8c:	8966                	mv	s2,s9
C:\MRS_DATA\workspace\CH592F_SSD1306\obj/../src/Main.c:71
            velocityX = -velocityX * accelerationFactor;
    1a8e:	000ba583          	lw	a1,0(s7)
    1a92:	8552                	mv	a0,s4
C:\MRS_DATA\workspace\CH592F_SSD1306\obj/../src/Main.c:72
            posX = (posX >= Xmax) ? Xmax : Xmin;
    1a94:	03800a93          	li	s5,56
C:\MRS_DATA\workspace\CH592F_SSD1306\obj/../src/Main.c:71
            velocityX = -velocityX * accelerationFactor;
    1a98:	3fd030ef          	jal	ra,5694 <__mulsf3>
C:\MRS_DATA\workspace\CH592F_SSD1306\obj/../src/Main.c:72
            posX = (posX >= Xmax) ? Xmax : Xmin;
    1a9c:	00005797          	auipc	a5,0x5
    1aa0:	93078793          	addi	a5,a5,-1744 # 63cc <original_vertices+0x6c>
    1aa4:	0007ad83          	lw	s11,0(a5)
C:\MRS_DATA\workspace\CH592F_SSD1306\obj/../src/Main.c:71
            velocityX = -velocityX * accelerationFactor;
    1aa8:	8a2a                	mv	s4,a0
C:\MRS_DATA\workspace\CH592F_SSD1306\obj/../src/Main.c:72
            posX = (posX >= Xmax) ? Xmax : Xmin;
    1aaa:	8526                	mv	a0,s1
    1aac:	85ee                	mv	a1,s11
    1aae:	2d5030ef          	jal	ra,5582 <__gesf2>
    1ab2:	84ee                	mv	s1,s11
    1ab4:	f2055ee3          	bgez	a0,19f0 <main+0x1fa>
C:\MRS_DATA\workspace\CH592F_SSD1306\obj/../src/Main.c:79
            if (velocityX >  velocityCap)   { velocityX =  maxVelocity - (rand() % (int)maxVelocity);};
    1ab8:	00005797          	auipc	a5,0x5
    1abc:	91c78793          	addi	a5,a5,-1764 # 63d4 <original_vertices+0x74>
    1ac0:	438c                	lw	a1,0(a5)
    1ac2:	8552                	mv	a0,s4
C:\MRS_DATA\workspace\CH592F_SSD1306\obj/../src/Main.c:72
            posX = (posX >= Xmax) ? Xmax : Xmin;
    1ac4:	000c2483          	lw	s1,0(s8)
    1ac8:	fc800a93          	li	s5,-56
C:\MRS_DATA\workspace\CH592F_SSD1306\obj/../src/Main.c:79
            if (velocityX >  velocityCap)   { velocityX =  maxVelocity - (rand() % (int)maxVelocity);};
    1acc:	2b7030ef          	jal	ra,5582 <__gesf2>
    1ad0:	f2a05ae3          	blez	a0,1a04 <main+0x20e>
C:\MRS_DATA\workspace\CH592F_SSD1306\obj/../src/Main.c:79 (discriminator 1)
    1ad4:	6ca040ef          	jal	ra,619e <rand>
    1ad8:	4795                	li	a5,5
    1ada:	02f56533          	rem	a0,a0,a5
    1ade:	234040ef          	jal	ra,5d12 <__floatsisf>
    1ae2:	00005797          	auipc	a5,0x5
    1ae6:	8f678793          	addi	a5,a5,-1802 # 63d8 <original_vertices+0x78>
    1aea:	85aa                	mv	a1,a0
    1aec:	4388                	lw	a0,0(a5)
    1aee:	63b030ef          	jal	ra,5928 <__subsf3>
C:\MRS_DATA\workspace\CH592F_SSD1306\obj/../src/Main.c:80 (discriminator 1)
            if (velocityY >  velocityCap)   { velocityY =  maxVelocity - (rand() % (int)maxVelocity);};
    1af2:	00005797          	auipc	a5,0x5
    1af6:	8e278793          	addi	a5,a5,-1822 # 63d4 <original_vertices+0x74>
    1afa:	438c                	lw	a1,0(a5)
C:\MRS_DATA\workspace\CH592F_SSD1306\obj/../src/Main.c:79 (discriminator 1)
            if (velocityX >  velocityCap)   { velocityX =  maxVelocity - (rand() % (int)maxVelocity);};
    1afc:	8a2a                	mv	s4,a0
C:\MRS_DATA\workspace\CH592F_SSD1306\obj/../src/Main.c:80 (discriminator 1)
            if (velocityY >  velocityCap)   { velocityY =  maxVelocity - (rand() % (int)maxVelocity);};
    1afe:	854e                	mv	a0,s3
    1b00:	283030ef          	jal	ra,5582 <__gesf2>
    1b04:	f0a05ae3          	blez	a0,1a18 <main+0x222>
    1b08:	696040ef          	jal	ra,619e <rand>
    1b0c:	4795                	li	a5,5
    1b0e:	02f56533          	rem	a0,a0,a5
    1b12:	200040ef          	jal	ra,5d12 <__floatsisf>
    1b16:	00005797          	auipc	a5,0x5
    1b1a:	8c278793          	addi	a5,a5,-1854 # 63d8 <original_vertices+0x78>
    1b1e:	85aa                	mv	a1,a0
    1b20:	4388                	lw	a0,0(a5)
    1b22:	607030ef          	jal	ra,5928 <__subsf3>
C:\MRS_DATA\workspace\CH592F_SSD1306\obj/../src/Main.c:81 (discriminator 1)
            if (velocityX < -velocityCap)   { velocityX =  maxVelocity + (rand() % (int)maxVelocity);};
    1b26:	00005797          	auipc	a5,0x5
    1b2a:	8b678793          	addi	a5,a5,-1866 # 63dc <original_vertices+0x7c>
    1b2e:	438c                	lw	a1,0(a5)
C:\MRS_DATA\workspace\CH592F_SSD1306\obj/../src/Main.c:80 (discriminator 1)
            if (velocityY >  velocityCap)   { velocityY =  maxVelocity - (rand() % (int)maxVelocity);};
    1b30:	89aa                	mv	s3,a0
C:\MRS_DATA\workspace\CH592F_SSD1306\obj/../src/Main.c:81 (discriminator 1)
            if (velocityX < -velocityCap)   { velocityX =  maxVelocity + (rand() % (int)maxVelocity);};
    1b32:	8552                	mv	a0,s4
    1b34:	2d5030ef          	jal	ra,5608 <__lesf2>
    1b38:	ee055ae3          	bgez	a0,1a2c <main+0x236>
    1b3c:	662040ef          	jal	ra,619e <rand>
    1b40:	4795                	li	a5,5
    1b42:	02f56533          	rem	a0,a0,a5
    1b46:	1cc040ef          	jal	ra,5d12 <__floatsisf>
    1b4a:	00005797          	auipc	a5,0x5
    1b4e:	88e78793          	addi	a5,a5,-1906 # 63d8 <original_vertices+0x78>
    1b52:	438c                	lw	a1,0(a5)
    1b54:	6c4030ef          	jal	ra,5218 <__addsf3>
    1b58:	8a2a                	mv	s4,a0
    1b5a:	bdc9                	j	1a2c <main+0x236>
C:\MRS_DATA\workspace\CH592F_SSD1306\obj/../src/Main.c:64
            velocityY = -velocityY * accelerationFactor;
    1b5c:	000ba583          	lw	a1,0(s7)
    1b60:	854e                	mv	a0,s3
    1b62:	333030ef          	jal	ra,5694 <__mulsf3>
    1b66:	89aa                	mv	s3,a0
C:\MRS_DATA\workspace\CH592F_SSD1306\obj/../src/Main.c:69
        if (posX <= Xmin || posX >= Xmax)
    1b68:	000c2583          	lw	a1,0(s8)
    1b6c:	8526                	mv	a0,s1
    1b6e:	29b030ef          	jal	ra,5608 <__lesf2>
    1b72:	04a05463          	blez	a0,1bba <main+0x3c4>
    1b76:	00005797          	auipc	a5,0x5
    1b7a:	85678793          	addi	a5,a5,-1962 # 63cc <original_vertices+0x6c>
    1b7e:	438c                	lw	a1,0(a5)
    1b80:	8526                	mv	a0,s1
    1b82:	201030ef          	jal	ra,5582 <__gesf2>
    1b86:	02055e63          	bgez	a0,1bc2 <main+0x3cc>
    1b8a:	8526                	mv	a0,s1
    1b8c:	124040ef          	jal	ra,5cb0 <__fixsfsi>
    1b90:	8aaa                	mv	s5,a0
    1b92:	4b21                	li	s6,8
C:\MRS_DATA\workspace\CH592F_SSD1306\obj/../src/Main.c:65
            posY = (posY >= Ymax) ? Ymax : Ymin;
    1b94:	000d2903          	lw	s2,0(s10)
    1b98:	bda1                	j	19f0 <main+0x1fa>
C:\MRS_DATA\workspace\CH592F_SSD1306\obj/../src/Main.c:69
        if (posX <= Xmin || posX >= Xmax)
    1b9a:	5b61                	li	s6,-8
C:\MRS_DATA\workspace\CH592F_SSD1306\obj/../src/Main.c:65
            posY = (posY >= Ymax) ? Ymax : Ymin;
    1b9c:	8966                	mv	s2,s9
C:\MRS_DATA\workspace\CH592F_SSD1306\obj/../src/Main.c:71
            velocityX = -velocityX * accelerationFactor;
    1b9e:	000ba583          	lw	a1,0(s7)
    1ba2:	8552                	mv	a0,s4
    1ba4:	03800a93          	li	s5,56
    1ba8:	2ed030ef          	jal	ra,5694 <__mulsf3>
C:\MRS_DATA\workspace\CH592F_SSD1306\obj/../src/Main.c:72
            posX = (posX >= Xmax) ? Xmax : Xmin;
    1bac:	00005797          	auipc	a5,0x5
    1bb0:	82078793          	addi	a5,a5,-2016 # 63cc <original_vertices+0x6c>
C:\MRS_DATA\workspace\CH592F_SSD1306\obj/../src/Main.c:71
            velocityX = -velocityX * accelerationFactor;
    1bb4:	8a2a                	mv	s4,a0
C:\MRS_DATA\workspace\CH592F_SSD1306\obj/../src/Main.c:72
            posX = (posX >= Xmax) ? Xmax : Xmin;
    1bb6:	4384                	lw	s1,0(a5)
    1bb8:	bd25                	j	19f0 <main+0x1fa>
C:\MRS_DATA\workspace\CH592F_SSD1306\obj/../src/Main.c:69
        if (posX <= Xmin || posX >= Xmax)
    1bba:	4b21                	li	s6,8
C:\MRS_DATA\workspace\CH592F_SSD1306\obj/../src/Main.c:65
            posY = (posY >= Ymax) ? Ymax : Ymin;
    1bbc:	000d2903          	lw	s2,0(s10)
    1bc0:	b5f9                	j	1a8e <main+0x298>
C:\MRS_DATA\workspace\CH592F_SSD1306\obj/../src/Main.c:71
            velocityX = -velocityX * accelerationFactor;
    1bc2:	000ba583          	lw	a1,0(s7)
    1bc6:	8552                	mv	a0,s4
C:\MRS_DATA\workspace\CH592F_SSD1306\obj/../src/Main.c:69
        if (posX <= Xmin || posX >= Xmax)
    1bc8:	4b21                	li	s6,8
C:\MRS_DATA\workspace\CH592F_SSD1306\obj/../src/Main.c:71
            velocityX = -velocityX * accelerationFactor;
    1bca:	2cb030ef          	jal	ra,5694 <__mulsf3>
C:\MRS_DATA\workspace\CH592F_SSD1306\obj/../src/Main.c:72
            posX = (posX >= Xmax) ? Xmax : Xmin;
    1bce:	00004797          	auipc	a5,0x4
    1bd2:	7fe78793          	addi	a5,a5,2046 # 63cc <original_vertices+0x6c>
C:\MRS_DATA\workspace\CH592F_SSD1306\obj/../src/Main.c:65
            posY = (posY >= Ymax) ? Ymax : Ymin;
    1bd6:	000d2903          	lw	s2,0(s10)
C:\MRS_DATA\workspace\CH592F_SSD1306\obj/../src/Main.c:71
            velocityX = -velocityX * accelerationFactor;
    1bda:	03800a93          	li	s5,56
    1bde:	8a2a                	mv	s4,a0
C:\MRS_DATA\workspace\CH592F_SSD1306\obj/../src/Main.c:72
            posX = (posX >= Xmax) ? Xmax : Xmin;
    1be0:	4384                	lw	s1,0(a5)
    1be2:	b539                	j	19f0 <main+0x1fa>

00001be4 <DebugInit>:
DebugInit():
C:\MRS_DATA\workspace\CH592F_SSD1306\obj/../src/board.c:9

void DebugInit(void)
{
#ifdef  DEBUG
#if DEBUG == Debug_UART0
    GPIOB_SetBits(GPIO_Pin_7);
    1be4:	40001737          	lui	a4,0x40001
    1be8:	0c872783          	lw	a5,200(a4) # 400010c8 <_eusrstack+0x1fffa8c8>
C:\MRS_DATA\workspace\CH592F_SSD1306\obj/../src/board.c:6
{
    1bec:	1141                	addi	sp,sp,-16
    1bee:	c606                	sw	ra,12(sp)
C:\MRS_DATA\workspace\CH592F_SSD1306\obj/../src/board.c:9
    GPIOB_SetBits(GPIO_Pin_7);
    1bf0:	0807e793          	ori	a5,a5,128
C:\MRS_DATA\workspace\CH592F_SSD1306\obj/../src/board.c:10
    GPIOB_ModeCfg(GPIO_Pin_7, GPIO_ModeOut_PP_5mA);
    1bf4:	458d                	li	a1,3
    1bf6:	08000513          	li	a0,128
C:\MRS_DATA\workspace\CH592F_SSD1306\obj/../src/board.c:9
    GPIOB_SetBits(GPIO_Pin_7);
    1bfa:	0cf72423          	sw	a5,200(a4)
C:\MRS_DATA\workspace\CH592F_SSD1306\obj/../src/board.c:10
    GPIOB_ModeCfg(GPIO_Pin_7, GPIO_ModeOut_PP_5mA);
    1bfe:	20e5                	jal	1ce6 <GPIOB_ModeCfg>
C:\MRS_DATA\workspace\CH592F_SSD1306\obj/../src/board.c:29
    GPIOB_SetBits(GPIO_Pin_21);
    GPIOB_ModeCfg(GPIO_Pin_21, GPIO_ModeOut_PP_5mA);
    UART3_DefInit();
#endif
#endif
}
    1c00:	40b2                	lw	ra,12(sp)
    1c02:	0141                	addi	sp,sp,16
C:\MRS_DATA\workspace\CH592F_SSD1306\obj/../src/board.c:11
    UART0_DefInit();
    1c04:	a3a1                	j	214c <UART0_DefInit>

00001c06 <led_init>:
led_init():
C:\MRS_DATA\workspace\CH592F_SSD1306\obj/../src/board.c:33

void led_init(void)
{
    GPIOA_SetBits(GPIO_Pin_8);
    1c06:	40001737          	lui	a4,0x40001
    1c0a:	0a872783          	lw	a5,168(a4) # 400010a8 <_eusrstack+0x1fffa8a8>
C:\MRS_DATA\workspace\CH592F_SSD1306\obj/../src/board.c:34
    GPIOA_ModeCfg(GPIO_Pin_8, GPIO_ModeOut_PP_5mA);
    1c0e:	458d                	li	a1,3
    1c10:	10000513          	li	a0,256
C:\MRS_DATA\workspace\CH592F_SSD1306\obj/../src/board.c:33
    GPIOA_SetBits(GPIO_Pin_8);
    1c14:	1007e793          	ori	a5,a5,256
    1c18:	0af72423          	sw	a5,168(a4)
C:\MRS_DATA\workspace\CH592F_SSD1306\obj/../src/board.c:34
    GPIOA_ModeCfg(GPIO_Pin_8, GPIO_ModeOut_PP_5mA);
    1c1c:	a009                	j	1c1e <GPIOA_ModeCfg>

00001c1e <GPIOA_ModeCfg>:
GPIOA_ModeCfg():
C:\MRS_DATA\workspace\CH592F_SSD1306\obj/../StdPeriphDriver/CH59x_gpio.c:27
 *
 * @return  none
 */
void GPIOA_ModeCfg(uint32_t pin, GPIOModeTypeDef mode)
{
    switch(mode)
    1c1e:	4791                	li	a5,4
    1c20:	02b7e763          	bltu	a5,a1,1c4e <GPIOA_ModeCfg+0x30>
    1c24:	00004717          	auipc	a4,0x4
    1c28:	7c870713          	addi	a4,a4,1992 # 63ec <original_vertices+0x8c>
    1c2c:	058a                	slli	a1,a1,0x2
    1c2e:	95ba                	add	a1,a1,a4
    1c30:	419c                	lw	a5,0(a1)
    1c32:	97ba                	add	a5,a5,a4
    1c34:	8782                	jr	a5
C:\MRS_DATA\workspace\CH592F_SSD1306\obj/../StdPeriphDriver/CH59x_gpio.c:53
            R32_PA_PD_DRV &= ~pin;
            R32_PA_DIR |= pin;
            break;

        case GPIO_ModeOut_PP_20mA:
            R32_PA_PD_DRV |= pin;
    1c36:	400017b7          	lui	a5,0x40001
    1c3a:	0b47a703          	lw	a4,180(a5) # 400010b4 <_eusrstack+0x1fffa8b4>
    1c3e:	8f49                	or	a4,a4,a0
    1c40:	0ae7aa23          	sw	a4,180(a5)
C:\MRS_DATA\workspace\CH592F_SSD1306\obj/../StdPeriphDriver/CH59x_gpio.c:54
            R32_PA_DIR |= pin;
    1c44:	0a07a703          	lw	a4,160(a5)
    1c48:	8d59                	or	a0,a0,a4
    1c4a:	0aa7a023          	sw	a0,160(a5)
C:\MRS_DATA\workspace\CH592F_SSD1306\obj/../StdPeriphDriver/CH59x_gpio.c:60
            break;

        default:
            break;
    }
}
    1c4e:	8082                	ret
C:\MRS_DATA\workspace\CH592F_SSD1306\obj/../StdPeriphDriver/CH59x_gpio.c:48
            R32_PA_PD_DRV &= ~pin;
    1c50:	400017b7          	lui	a5,0x40001
    1c54:	0b47a683          	lw	a3,180(a5) # 400010b4 <_eusrstack+0x1fffa8b4>
    1c58:	fff54713          	not	a4,a0
    1c5c:	8f75                	and	a4,a4,a3
    1c5e:	0ae7aa23          	sw	a4,180(a5)
C:\MRS_DATA\workspace\CH592F_SSD1306\obj/../StdPeriphDriver/CH59x_gpio.c:49
            R32_PA_DIR |= pin;
    1c62:	0a07a703          	lw	a4,160(a5)
    1c66:	8d59                	or	a0,a0,a4
    1c68:	0aa7a023          	sw	a0,160(a5)
C:\MRS_DATA\workspace\CH592F_SSD1306\obj/../StdPeriphDriver/CH59x_gpio.c:50
            break;
    1c6c:	8082                	ret
C:\MRS_DATA\workspace\CH592F_SSD1306\obj/../StdPeriphDriver/CH59x_gpio.c:30
            R32_PA_PD_DRV &= ~pin;
    1c6e:	400017b7          	lui	a5,0x40001
    1c72:	0b47a703          	lw	a4,180(a5) # 400010b4 <_eusrstack+0x1fffa8b4>
    1c76:	fff54513          	not	a0,a0
    1c7a:	8f69                	and	a4,a4,a0
    1c7c:	0ae7aa23          	sw	a4,180(a5)
C:\MRS_DATA\workspace\CH592F_SSD1306\obj/../StdPeriphDriver/CH59x_gpio.c:31
            R32_PA_PU &= ~pin;
    1c80:	0b07a703          	lw	a4,176(a5)
    1c84:	8f69                	and	a4,a4,a0
    1c86:	0ae7a823          	sw	a4,176(a5)
C:\MRS_DATA\workspace\CH592F_SSD1306\obj/../StdPeriphDriver/CH59x_gpio.c:32
            R32_PA_DIR &= ~pin;
    1c8a:	0a07a703          	lw	a4,160(a5)
    1c8e:	8d79                	and	a0,a0,a4
    1c90:	0aa7a023          	sw	a0,160(a5)
C:\MRS_DATA\workspace\CH592F_SSD1306\obj/../StdPeriphDriver/CH59x_gpio.c:33
            break;
    1c94:	8082                	ret
C:\MRS_DATA\workspace\CH592F_SSD1306\obj/../StdPeriphDriver/CH59x_gpio.c:36
            R32_PA_PD_DRV &= ~pin;
    1c96:	400017b7          	lui	a5,0x40001
    1c9a:	0b47a683          	lw	a3,180(a5) # 400010b4 <_eusrstack+0x1fffa8b4>
    1c9e:	fff54713          	not	a4,a0
    1ca2:	8ef9                	and	a3,a3,a4
    1ca4:	0ad7aa23          	sw	a3,180(a5)
C:\MRS_DATA\workspace\CH592F_SSD1306\obj/../StdPeriphDriver/CH59x_gpio.c:37
            R32_PA_PU |= pin;
    1ca8:	0b07a683          	lw	a3,176(a5)
    1cac:	8d55                	or	a0,a0,a3
    1cae:	0aa7a823          	sw	a0,176(a5)
C:\MRS_DATA\workspace\CH592F_SSD1306\obj/../StdPeriphDriver/CH59x_gpio.c:38
            R32_PA_DIR &= ~pin;
    1cb2:	0a07a683          	lw	a3,160(a5)
    1cb6:	8f75                	and	a4,a4,a3
    1cb8:	0ae7a023          	sw	a4,160(a5)
C:\MRS_DATA\workspace\CH592F_SSD1306\obj/../StdPeriphDriver/CH59x_gpio.c:39
            break;
    1cbc:	8082                	ret
C:\MRS_DATA\workspace\CH592F_SSD1306\obj/../StdPeriphDriver/CH59x_gpio.c:42
            R32_PA_PD_DRV |= pin;
    1cbe:	400017b7          	lui	a5,0x40001
    1cc2:	0b47a683          	lw	a3,180(a5) # 400010b4 <_eusrstack+0x1fffa8b4>
C:\MRS_DATA\workspace\CH592F_SSD1306\obj/../StdPeriphDriver/CH59x_gpio.c:43
            R32_PA_PU &= ~pin;
    1cc6:	fff54713          	not	a4,a0
C:\MRS_DATA\workspace\CH592F_SSD1306\obj/../StdPeriphDriver/CH59x_gpio.c:42
            R32_PA_PD_DRV |= pin;
    1cca:	8d55                	or	a0,a0,a3
    1ccc:	0aa7aa23          	sw	a0,180(a5)
C:\MRS_DATA\workspace\CH592F_SSD1306\obj/../StdPeriphDriver/CH59x_gpio.c:43
            R32_PA_PU &= ~pin;
    1cd0:	0b07a683          	lw	a3,176(a5)
    1cd4:	8ef9                	and	a3,a3,a4
    1cd6:	0ad7a823          	sw	a3,176(a5)
C:\MRS_DATA\workspace\CH592F_SSD1306\obj/../StdPeriphDriver/CH59x_gpio.c:44
            R32_PA_DIR &= ~pin;
    1cda:	0a07a683          	lw	a3,160(a5)
    1cde:	8f75                	and	a4,a4,a3
    1ce0:	0ae7a023          	sw	a4,160(a5)
C:\MRS_DATA\workspace\CH592F_SSD1306\obj/../StdPeriphDriver/CH59x_gpio.c:45
            break;
    1ce4:	8082                	ret

00001ce6 <GPIOB_ModeCfg>:
GPIOB_ModeCfg():
C:\MRS_DATA\workspace\CH592F_SSD1306\obj/../StdPeriphDriver/CH59x_gpio.c:74
 *
 * @return  none
 */
void GPIOB_ModeCfg(uint32_t pin, GPIOModeTypeDef mode)
{
    switch(mode)
    1ce6:	4791                	li	a5,4
    1ce8:	02b7e763          	bltu	a5,a1,1d16 <GPIOB_ModeCfg+0x30>
    1cec:	00004717          	auipc	a4,0x4
    1cf0:	71470713          	addi	a4,a4,1812 # 6400 <original_vertices+0xa0>
    1cf4:	058a                	slli	a1,a1,0x2
    1cf6:	95ba                	add	a1,a1,a4
    1cf8:	419c                	lw	a5,0(a1)
    1cfa:	97ba                	add	a5,a5,a4
    1cfc:	8782                	jr	a5
C:\MRS_DATA\workspace\CH592F_SSD1306\obj/../StdPeriphDriver/CH59x_gpio.c:100
            R32_PB_PD_DRV &= ~pin;
            R32_PB_DIR |= pin;
            break;

        case GPIO_ModeOut_PP_20mA:
            R32_PB_PD_DRV |= pin;
    1cfe:	400017b7          	lui	a5,0x40001
    1d02:	0d47a703          	lw	a4,212(a5) # 400010d4 <_eusrstack+0x1fffa8d4>
    1d06:	8f49                	or	a4,a4,a0
    1d08:	0ce7aa23          	sw	a4,212(a5)
C:\MRS_DATA\workspace\CH592F_SSD1306\obj/../StdPeriphDriver/CH59x_gpio.c:101
            R32_PB_DIR |= pin;
    1d0c:	0c07a703          	lw	a4,192(a5)
    1d10:	8d59                	or	a0,a0,a4
    1d12:	0ca7a023          	sw	a0,192(a5)
C:\MRS_DATA\workspace\CH592F_SSD1306\obj/../StdPeriphDriver/CH59x_gpio.c:107
            break;

        default:
            break;
    }
}
    1d16:	8082                	ret
C:\MRS_DATA\workspace\CH592F_SSD1306\obj/../StdPeriphDriver/CH59x_gpio.c:95
            R32_PB_PD_DRV &= ~pin;
    1d18:	400017b7          	lui	a5,0x40001
    1d1c:	0d47a683          	lw	a3,212(a5) # 400010d4 <_eusrstack+0x1fffa8d4>
    1d20:	fff54713          	not	a4,a0
    1d24:	8f75                	and	a4,a4,a3
    1d26:	0ce7aa23          	sw	a4,212(a5)
C:\MRS_DATA\workspace\CH592F_SSD1306\obj/../StdPeriphDriver/CH59x_gpio.c:96
            R32_PB_DIR |= pin;
    1d2a:	0c07a703          	lw	a4,192(a5)
    1d2e:	8d59                	or	a0,a0,a4
    1d30:	0ca7a023          	sw	a0,192(a5)
C:\MRS_DATA\workspace\CH592F_SSD1306\obj/../StdPeriphDriver/CH59x_gpio.c:97
            break;
    1d34:	8082                	ret
C:\MRS_DATA\workspace\CH592F_SSD1306\obj/../StdPeriphDriver/CH59x_gpio.c:77
            R32_PB_PD_DRV &= ~pin;
    1d36:	400017b7          	lui	a5,0x40001
    1d3a:	0d47a703          	lw	a4,212(a5) # 400010d4 <_eusrstack+0x1fffa8d4>
    1d3e:	fff54513          	not	a0,a0
    1d42:	8f69                	and	a4,a4,a0
    1d44:	0ce7aa23          	sw	a4,212(a5)
C:\MRS_DATA\workspace\CH592F_SSD1306\obj/../StdPeriphDriver/CH59x_gpio.c:78
            R32_PB_PU &= ~pin;
    1d48:	0d07a703          	lw	a4,208(a5)
    1d4c:	8f69                	and	a4,a4,a0
    1d4e:	0ce7a823          	sw	a4,208(a5)
C:\MRS_DATA\workspace\CH592F_SSD1306\obj/../StdPeriphDriver/CH59x_gpio.c:79
            R32_PB_DIR &= ~pin;
    1d52:	0c07a703          	lw	a4,192(a5)
    1d56:	8d79                	and	a0,a0,a4
    1d58:	0ca7a023          	sw	a0,192(a5)
C:\MRS_DATA\workspace\CH592F_SSD1306\obj/../StdPeriphDriver/CH59x_gpio.c:80
            break;
    1d5c:	8082                	ret
C:\MRS_DATA\workspace\CH592F_SSD1306\obj/../StdPeriphDriver/CH59x_gpio.c:83
            R32_PB_PD_DRV &= ~pin;
    1d5e:	400017b7          	lui	a5,0x40001
    1d62:	0d47a683          	lw	a3,212(a5) # 400010d4 <_eusrstack+0x1fffa8d4>
    1d66:	fff54713          	not	a4,a0
    1d6a:	8ef9                	and	a3,a3,a4
    1d6c:	0cd7aa23          	sw	a3,212(a5)
C:\MRS_DATA\workspace\CH592F_SSD1306\obj/../StdPeriphDriver/CH59x_gpio.c:84
            R32_PB_PU |= pin;
    1d70:	0d07a683          	lw	a3,208(a5)
    1d74:	8d55                	or	a0,a0,a3
    1d76:	0ca7a823          	sw	a0,208(a5)
C:\MRS_DATA\workspace\CH592F_SSD1306\obj/../StdPeriphDriver/CH59x_gpio.c:85
            R32_PB_DIR &= ~pin;
    1d7a:	0c07a683          	lw	a3,192(a5)
    1d7e:	8f75                	and	a4,a4,a3
    1d80:	0ce7a023          	sw	a4,192(a5)
C:\MRS_DATA\workspace\CH592F_SSD1306\obj/../StdPeriphDriver/CH59x_gpio.c:86
            break;
    1d84:	8082                	ret
C:\MRS_DATA\workspace\CH592F_SSD1306\obj/../StdPeriphDriver/CH59x_gpio.c:89
            R32_PB_PD_DRV |= pin;
    1d86:	400017b7          	lui	a5,0x40001
    1d8a:	0d47a683          	lw	a3,212(a5) # 400010d4 <_eusrstack+0x1fffa8d4>
C:\MRS_DATA\workspace\CH592F_SSD1306\obj/../StdPeriphDriver/CH59x_gpio.c:90
            R32_PB_PU &= ~pin;
    1d8e:	fff54713          	not	a4,a0
C:\MRS_DATA\workspace\CH592F_SSD1306\obj/../StdPeriphDriver/CH59x_gpio.c:89
            R32_PB_PD_DRV |= pin;
    1d92:	8d55                	or	a0,a0,a3
    1d94:	0ca7aa23          	sw	a0,212(a5)
C:\MRS_DATA\workspace\CH592F_SSD1306\obj/../StdPeriphDriver/CH59x_gpio.c:90
            R32_PB_PU &= ~pin;
    1d98:	0d07a683          	lw	a3,208(a5)
    1d9c:	8ef9                	and	a3,a3,a4
    1d9e:	0cd7a823          	sw	a3,208(a5)
C:\MRS_DATA\workspace\CH592F_SSD1306\obj/../StdPeriphDriver/CH59x_gpio.c:91
            R32_PB_DIR &= ~pin;
    1da2:	0c07a683          	lw	a3,192(a5)
    1da6:	8f75                	and	a4,a4,a3
    1da8:	0ce7a023          	sw	a4,192(a5)
C:\MRS_DATA\workspace\CH592F_SSD1306\obj/../StdPeriphDriver/CH59x_gpio.c:92
            break;
    1dac:	8082                	ret

00001dae <I2C_Init>:
I2C_Init():
C:\MRS_DATA\workspace\CH592F_SSD1306\obj/../StdPeriphDriver/CH59x_i2c.c:34
 *
 * @return  none
 */
void I2C_Init(I2C_ModeTypeDef I2C_Mode, UINT32 I2C_ClockSpeed, I2C_DutyTypeDef I2C_DutyCycle,
              I2C_AckTypeDef I2C_Ack, I2C_AckAddrTypeDef I2C_AckAddr, UINT16 I2C_OwnAddress1)
{
    1dae:	7179                	addi	sp,sp,-48
    1db0:	d422                	sw	s0,40(sp)
I2C_SoftwareResetCmd():
C:\MRS_DATA\workspace\CH592F_SSD1306\obj/../StdPeriphDriver/CH59x_i2c.c:286
 * @return  none
 */
void I2C_SoftwareResetCmd(FunctionalState NewState)
{
    if(NewState != DISABLE)
        R16_I2C_CTRL1 |= RB_I2C_SWRST;
    1db2:	40005437          	lui	s0,0x40005
    1db6:	80045803          	lhu	a6,-2048(s0) # 40004800 <_eusrstack+0x1fffe000>
I2C_Init():
C:\MRS_DATA\workspace\CH592F_SSD1306\obj/../StdPeriphDriver/CH59x_i2c.c:34
{
    1dba:	c65e                	sw	s7,12(sp)
I2C_SoftwareResetCmd():
C:\MRS_DATA\workspace\CH592F_SSD1306\obj/../StdPeriphDriver/CH59x_i2c.c:286
        R16_I2C_CTRL1 |= RB_I2C_SWRST;
    1dbc:	7be1                	lui	s7,0xffff8
    1dbe:	01786833          	or	a6,a6,s7
    1dc2:	0842                	slli	a6,a6,0x10
I2C_Init():
C:\MRS_DATA\workspace\CH592F_SSD1306\obj/../StdPeriphDriver/CH59x_i2c.c:34
{
    1dc4:	d226                	sw	s1,36(sp)
    1dc6:	d04a                	sw	s2,32(sp)
    1dc8:	ce4e                	sw	s3,28(sp)
    1dca:	cc52                	sw	s4,24(sp)
    1dcc:	ca56                	sw	s5,20(sp)
    1dce:	c85a                	sw	s6,16(sp)
    1dd0:	c462                	sw	s8,8(sp)
    1dd2:	d606                	sw	ra,44(sp)
I2C_SoftwareResetCmd():
C:\MRS_DATA\workspace\CH592F_SSD1306\obj/../StdPeriphDriver/CH59x_i2c.c:286
        R16_I2C_CTRL1 |= RB_I2C_SWRST;
    1dd4:	01085813          	srli	a6,a6,0x10
    1dd8:	81041023          	sh	a6,-2048(s0)
C:\MRS_DATA\workspace\CH592F_SSD1306\obj/../StdPeriphDriver/CH59x_i2c.c:288
    else
        R16_I2C_CTRL1 &= ~RB_I2C_SWRST;
    1ddc:	80045883          	lhu	a7,-2048(s0)
    1de0:	6c21                	lui	s8,0x8
    1de2:	fffc0813          	addi	a6,s8,-1 # 7fff <_data_lma+0x1757>
    1de6:	01187833          	and	a6,a6,a7
    1dea:	81041023          	sh	a6,-2048(s0)
I2C_Init():
C:\MRS_DATA\workspace\CH592F_SSD1306\obj/../StdPeriphDriver/CH59x_i2c.c:34
{
    1dee:	893a                	mv	s2,a4
    1df0:	8a3e                	mv	s4,a5
    1df2:	84aa                	mv	s1,a0
    1df4:	8b2e                	mv	s6,a1
    1df6:	89b2                	mv	s3,a2
    1df8:	8ab6                	mv	s5,a3
C:\MRS_DATA\workspace\CH592F_SSD1306\obj/../StdPeriphDriver/CH59x_i2c.c:41
    sysClock = GetSysClock();
    1dfa:	2639                	jal	2108 <GetSysClock>
C:\MRS_DATA\workspace\CH592F_SSD1306\obj/../StdPeriphDriver/CH59x_i2c.c:44
    R16_I2C_CTRL2 |= (sysClock / 1000000);
    1dfc:	000f4837          	lui	a6,0xf4
    1e00:	24080813          	addi	a6,a6,576 # f4240 <_data_lma+0xed998>
    1e04:	03055833          	divu	a6,a0,a6
C:\MRS_DATA\workspace\CH592F_SSD1306\obj/../StdPeriphDriver/CH59x_i2c.c:43
    R16_I2C_CTRL2 &= ~RB_I2C_FREQ;
    1e08:	80445883          	lhu	a7,-2044(s0)
C:\MRS_DATA\workspace\CH592F_SSD1306\obj/../StdPeriphDriver/CH59x_i2c.c:48
    if(I2C_ClockSpeed <= 100000)
    1e0c:	6761                	lui	a4,0x18
    1e0e:	6a070713          	addi	a4,a4,1696 # 186a0 <_data_lma+0x11df8>
C:\MRS_DATA\workspace\CH592F_SSD1306\obj/../StdPeriphDriver/CH59x_i2c.c:43
    R16_I2C_CTRL2 &= ~RB_I2C_FREQ;
    1e12:	08c2                	slli	a7,a7,0x10
    1e14:	0108d893          	srli	a7,a7,0x10
    1e18:	fc08f893          	andi	a7,a7,-64
    1e1c:	08c2                	slli	a7,a7,0x10
    1e1e:	0108d893          	srli	a7,a7,0x10
    1e22:	81141223          	sh	a7,-2044(s0)
C:\MRS_DATA\workspace\CH592F_SSD1306\obj/../StdPeriphDriver/CH59x_i2c.c:44
    R16_I2C_CTRL2 |= (sysClock / 1000000);
    1e26:	80445783          	lhu	a5,-2044(s0)
    1e2a:	00f867b3          	or	a5,a6,a5
    1e2e:	07c2                	slli	a5,a5,0x10
    1e30:	83c1                	srli	a5,a5,0x10
    1e32:	80f41223          	sh	a5,-2044(s0)
C:\MRS_DATA\workspace\CH592F_SSD1306\obj/../StdPeriphDriver/CH59x_i2c.c:46
    R16_I2C_CTRL1 &= ~RB_I2C_PE;
    1e36:	80045883          	lhu	a7,-2048(s0)
    1e3a:	08c2                	slli	a7,a7,0x10
    1e3c:	0108d893          	srli	a7,a7,0x10
    1e40:	ffe8f893          	andi	a7,a7,-2
    1e44:	08c2                	slli	a7,a7,0x10
    1e46:	0108d893          	srli	a7,a7,0x10
    1e4a:	81141023          	sh	a7,-2048(s0)
C:\MRS_DATA\workspace\CH592F_SSD1306\obj/../StdPeriphDriver/CH59x_i2c.c:48
    if(I2C_ClockSpeed <= 100000)
    1e4e:	0b676663          	bltu	a4,s6,1efa <I2C_Init+0x14c>
C:\MRS_DATA\workspace\CH592F_SSD1306\obj/../StdPeriphDriver/CH59x_i2c.c:50
        tmpreg = (sysClock / (I2C_ClockSpeed << 1)) & RB_I2C_CCR;
    1e52:	0b06                	slli	s6,s6,0x1
    1e54:	03655533          	divu	a0,a0,s6
C:\MRS_DATA\workspace\CH592F_SSD1306\obj/../StdPeriphDriver/CH59x_i2c.c:52
        if(tmpreg < 0x04)
    1e58:	6685                	lui	a3,0x1
    1e5a:	ffc68713          	addi	a4,a3,-4 # ffc <OLED_Init+0x71a>
C:\MRS_DATA\workspace\CH592F_SSD1306\obj/../StdPeriphDriver/CH59x_i2c.c:53
            tmpreg = 0x04;
    1e5e:	4791                	li	a5,4
C:\MRS_DATA\workspace\CH592F_SSD1306\obj/../StdPeriphDriver/CH59x_i2c.c:50
        tmpreg = (sysClock / (I2C_ClockSpeed << 1)) & RB_I2C_CCR;
    1e60:	0542                	slli	a0,a0,0x10
    1e62:	8141                	srli	a0,a0,0x10
C:\MRS_DATA\workspace\CH592F_SSD1306\obj/../StdPeriphDriver/CH59x_i2c.c:52
        if(tmpreg < 0x04)
    1e64:	8f69                	and	a4,a4,a0
    1e66:	e751                	bnez	a4,1ef2 <I2C_Init+0x144>
C:\MRS_DATA\workspace\CH592F_SSD1306\obj/../StdPeriphDriver/CH59x_i2c.c:55
        R16_I2C_RTR = (((sysClock / 1000000) + 1) > 0x3F) ? 0x3F : ((sysClock / 1000000) + 1);
    1e68:	0805                	addi	a6,a6,1
    1e6a:	03f00713          	li	a4,63
    1e6e:	01077463          	bgeu	a4,a6,1e76 <I2C_Init+0xc8>
    1e72:	03f00813          	li	a6,63
C:\MRS_DATA\workspace\CH592F_SSD1306\obj/../StdPeriphDriver/CH59x_i2c.c:75
        R16_I2C_RTR = (uint16_t)((((sysClock / 1000000) * (uint16_t)300) / (uint16_t)1000) + (uint16_t)1);
    1e76:	0842                	slli	a6,a6,0x10
    1e78:	01085813          	srli	a6,a6,0x10
    1e7c:	40005737          	lui	a4,0x40005
    1e80:	83071023          	sh	a6,-2016(a4) # 40004820 <_eusrstack+0x1fffe020>
C:\MRS_DATA\workspace\CH592F_SSD1306\obj/../StdPeriphDriver/CH59x_i2c.c:77
    R16_I2C_CKCFGR = tmpreg;
    1e84:	40005637          	lui	a2,0x40005
    1e88:	80f61e23          	sh	a5,-2020(a2) # 4000481c <_eusrstack+0x1fffe01c>
C:\MRS_DATA\workspace\CH592F_SSD1306\obj/../StdPeriphDriver/CH59x_i2c.c:79
    R16_I2C_CTRL1 |= RB_I2C_PE;
    1e8c:	80065783          	lhu	a5,-2048(a2)
C:\MRS_DATA\workspace\CH592F_SSD1306\obj/../StdPeriphDriver/CH59x_i2c.c:86
}
    1e90:	50b2                	lw	ra,44(sp)
    1e92:	5422                	lw	s0,40(sp)
C:\MRS_DATA\workspace\CH592F_SSD1306\obj/../StdPeriphDriver/CH59x_i2c.c:79
    R16_I2C_CTRL1 |= RB_I2C_PE;
    1e94:	0017e793          	ori	a5,a5,1
    1e98:	80f61023          	sh	a5,-2048(a2)
C:\MRS_DATA\workspace\CH592F_SSD1306\obj/../StdPeriphDriver/CH59x_i2c.c:81
    R16_I2C_CTRL1 &= ~(RB_I2C_SMBUS | RB_I2C_SMBTYPE | RB_I2C_ACK);
    1e9c:	80065583          	lhu	a1,-2048(a2)
C:\MRS_DATA\workspace\CH592F_SSD1306\obj/../StdPeriphDriver/CH59x_i2c.c:86
}
    1ea0:	49f2                	lw	s3,28(sp)
    1ea2:	4b42                	lw	s6,16(sp)
C:\MRS_DATA\workspace\CH592F_SSD1306\obj/../StdPeriphDriver/CH59x_i2c.c:81
    R16_I2C_CTRL1 &= ~(RB_I2C_SMBUS | RB_I2C_SMBTYPE | RB_I2C_ACK);
    1ea4:	05c2                	slli	a1,a1,0x10
    1ea6:	81c1                	srli	a1,a1,0x10
    1ea8:	bf55f593          	andi	a1,a1,-1035
    1eac:	05c2                	slli	a1,a1,0x10
    1eae:	81c1                	srli	a1,a1,0x10
    1eb0:	80b61023          	sh	a1,-2048(a2)
C:\MRS_DATA\workspace\CH592F_SSD1306\obj/../StdPeriphDriver/CH59x_i2c.c:82
    R16_I2C_CTRL1 |= I2C_Mode | I2C_Ack;
    1eb4:	80065683          	lhu	a3,-2048(a2)
C:\MRS_DATA\workspace\CH592F_SSD1306\obj/../StdPeriphDriver/CH59x_i2c.c:86
}
    1eb8:	4bb2                	lw	s7,12(sp)
    1eba:	4c22                	lw	s8,8(sp)
C:\MRS_DATA\workspace\CH592F_SSD1306\obj/../StdPeriphDriver/CH59x_i2c.c:82
    R16_I2C_CTRL1 |= I2C_Mode | I2C_Ack;
    1ebc:	00dae6b3          	or	a3,s5,a3
    1ec0:	8ec5                	or	a3,a3,s1
    1ec2:	06c2                	slli	a3,a3,0x10
    1ec4:	82c1                	srli	a3,a3,0x10
    1ec6:	80d61023          	sh	a3,-2048(a2)
C:\MRS_DATA\workspace\CH592F_SSD1306\obj/../StdPeriphDriver/CH59x_i2c.c:84
    R16_I2C_OADDR1 &= ~0xFFFF;
    1eca:	80865783          	lhu	a5,-2040(a2)
    1ece:	80061423          	sh	zero,-2040(a2)
C:\MRS_DATA\workspace\CH592F_SSD1306\obj/../StdPeriphDriver/CH59x_i2c.c:85
    R16_I2C_OADDR1 |= I2C_AckAddr | I2C_OwnAddress1;
    1ed2:	80865783          	lhu	a5,-2040(a2)
C:\MRS_DATA\workspace\CH592F_SSD1306\obj/../StdPeriphDriver/CH59x_i2c.c:86
}
    1ed6:	5492                	lw	s1,36(sp)
    1ed8:	4ad2                	lw	s5,20(sp)
C:\MRS_DATA\workspace\CH592F_SSD1306\obj/../StdPeriphDriver/CH59x_i2c.c:85
    R16_I2C_OADDR1 |= I2C_AckAddr | I2C_OwnAddress1;
    1eda:	00fa67b3          	or	a5,s4,a5
    1ede:	0127e7b3          	or	a5,a5,s2
    1ee2:	07c2                	slli	a5,a5,0x10
    1ee4:	83c1                	srli	a5,a5,0x10
    1ee6:	80f61423          	sh	a5,-2040(a2)
C:\MRS_DATA\workspace\CH592F_SSD1306\obj/../StdPeriphDriver/CH59x_i2c.c:86
}
    1eea:	5902                	lw	s2,32(sp)
    1eec:	4a62                	lw	s4,24(sp)
    1eee:	6145                	addi	sp,sp,48
    1ef0:	8082                	ret
C:\MRS_DATA\workspace\CH592F_SSD1306\obj/../StdPeriphDriver/CH59x_i2c.c:50
        tmpreg = (sysClock / (I2C_ClockSpeed << 1)) & RB_I2C_CCR;
    1ef2:	fff68793          	addi	a5,a3,-1
    1ef6:	8fe9                	and	a5,a5,a0
    1ef8:	bf85                	j	1e68 <I2C_Init+0xba>
C:\MRS_DATA\workspace\CH592F_SSD1306\obj/../StdPeriphDriver/CH59x_i2c.c:59
        if(I2C_DutyCycle == I2C_DutyCycle_2)
    1efa:	02099663          	bnez	s3,1f26 <I2C_Init+0x178>
C:\MRS_DATA\workspace\CH592F_SSD1306\obj/../StdPeriphDriver/CH59x_i2c.c:61
            tmpreg = (sysClock / (I2C_ClockSpeed * 3)) & RB_I2C_CCR;
    1efe:	001b1593          	slli	a1,s6,0x1
    1f02:	95da                	add	a1,a1,s6
    1f04:	02b55533          	divu	a0,a0,a1
    1f08:	001c0793          	addi	a5,s8,1
    1f0c:	0552                	slli	a0,a0,0x14
    1f0e:	8151                	srli	a0,a0,0x14
C:\MRS_DATA\workspace\CH592F_SSD1306\obj/../StdPeriphDriver/CH59x_i2c.c:69
        if(tmpreg == 0)
    1f10:	e51d                	bnez	a0,1f3e <I2C_Init+0x190>
C:\MRS_DATA\workspace\CH592F_SSD1306\obj/../StdPeriphDriver/CH59x_i2c.c:75
        R16_I2C_RTR = (uint16_t)((((sysClock / 1000000) * (uint16_t)300) / (uint16_t)1000) + (uint16_t)1);
    1f12:	12c00713          	li	a4,300
    1f16:	02e80833          	mul	a6,a6,a4
    1f1a:	3e800713          	li	a4,1000
    1f1e:	02e85833          	divu	a6,a6,a4
    1f22:	0805                	addi	a6,a6,1
    1f24:	bf89                	j	1e76 <I2C_Init+0xc8>
C:\MRS_DATA\workspace\CH592F_SSD1306\obj/../StdPeriphDriver/CH59x_i2c.c:65
            tmpreg = (sysClock / (I2C_ClockSpeed * 25)) & RB_I2C_CCR;
    1f26:	001b1793          	slli	a5,s6,0x1
    1f2a:	97da                	add	a5,a5,s6
    1f2c:	078e                	slli	a5,a5,0x3
    1f2e:	97da                	add	a5,a5,s6
    1f30:	02f557b3          	divu	a5,a0,a5
    1f34:	6531                	lui	a0,0xc
    1f36:	07d2                	slli	a5,a5,0x14
    1f38:	83d1                	srli	a5,a5,0x14
    1f3a:	8fc9                	or	a5,a5,a0
    1f3c:	bfd9                	j	1f12 <I2C_Init+0x164>
    1f3e:	017567b3          	or	a5,a0,s7
    1f42:	07c2                	slli	a5,a5,0x10
    1f44:	83c1                	srli	a5,a5,0x10
    1f46:	b7f1                	j	1f12 <I2C_Init+0x164>

00001f48 <I2C_GenerateSTART>:
I2C_GenerateSTART():
C:\MRS_DATA\workspace\CH592F_SSD1306\obj/../StdPeriphDriver/CH59x_i2c.c:117
        R16_I2C_CTRL1 |= RB_I2C_START;
    1f48:	40005737          	lui	a4,0x40005
    1f4c:	80075783          	lhu	a5,-2048(a4) # 40004800 <_eusrstack+0x1fffe000>
C:\MRS_DATA\workspace\CH592F_SSD1306\obj/../StdPeriphDriver/CH59x_i2c.c:116
    if(NewState != DISABLE)
    1f50:	c511                	beqz	a0,1f5c <I2C_GenerateSTART+0x14>
C:\MRS_DATA\workspace\CH592F_SSD1306\obj/../StdPeriphDriver/CH59x_i2c.c:117
        R16_I2C_CTRL1 |= RB_I2C_START;
    1f52:	1007e793          	ori	a5,a5,256
    1f56:	80f71023          	sh	a5,-2048(a4)
    1f5a:	8082                	ret
C:\MRS_DATA\workspace\CH592F_SSD1306\obj/../StdPeriphDriver/CH59x_i2c.c:119
        R16_I2C_CTRL1 &= ~RB_I2C_START;
    1f5c:	07c2                	slli	a5,a5,0x10
    1f5e:	83c1                	srli	a5,a5,0x10
    1f60:	eff7f793          	andi	a5,a5,-257
    1f64:	07c2                	slli	a5,a5,0x10
    1f66:	83c1                	srli	a5,a5,0x10
    1f68:	80f71023          	sh	a5,-2048(a4)
C:\MRS_DATA\workspace\CH592F_SSD1306\obj/../StdPeriphDriver/CH59x_i2c.c:120
}
    1f6c:	8082                	ret

00001f6e <I2C_GenerateSTOP>:
I2C_GenerateSTOP():
C:\MRS_DATA\workspace\CH592F_SSD1306\obj/../StdPeriphDriver/CH59x_i2c.c:134
        R16_I2C_CTRL1 |= RB_I2C_STOP;
    1f6e:	40005737          	lui	a4,0x40005
    1f72:	80075783          	lhu	a5,-2048(a4) # 40004800 <_eusrstack+0x1fffe000>
C:\MRS_DATA\workspace\CH592F_SSD1306\obj/../StdPeriphDriver/CH59x_i2c.c:133
    if(NewState != DISABLE)
    1f76:	c511                	beqz	a0,1f82 <I2C_GenerateSTOP+0x14>
C:\MRS_DATA\workspace\CH592F_SSD1306\obj/../StdPeriphDriver/CH59x_i2c.c:134
        R16_I2C_CTRL1 |= RB_I2C_STOP;
    1f78:	2007e793          	ori	a5,a5,512
    1f7c:	80f71023          	sh	a5,-2048(a4)
    1f80:	8082                	ret
C:\MRS_DATA\workspace\CH592F_SSD1306\obj/../StdPeriphDriver/CH59x_i2c.c:136
        R16_I2C_CTRL1 &= ~RB_I2C_STOP;
    1f82:	07c2                	slli	a5,a5,0x10
    1f84:	83c1                	srli	a5,a5,0x10
    1f86:	dff7f793          	andi	a5,a5,-513
    1f8a:	07c2                	slli	a5,a5,0x10
    1f8c:	83c1                	srli	a5,a5,0x10
    1f8e:	80f71023          	sh	a5,-2048(a4)
C:\MRS_DATA\workspace\CH592F_SSD1306\obj/../StdPeriphDriver/CH59x_i2c.c:137
}
    1f92:	8082                	ret

00001f94 <I2C_SendData>:
I2C_SendData():
C:\MRS_DATA\workspace\CH592F_SSD1306\obj/../StdPeriphDriver/CH59x_i2c.c:237
    R16_I2C_DATAR = Data;
    1f94:	400057b7          	lui	a5,0x40005
    1f98:	80a79823          	sh	a0,-2032(a5) # 40004810 <_eusrstack+0x1fffe010>
C:\MRS_DATA\workspace\CH592F_SSD1306\obj/../StdPeriphDriver/CH59x_i2c.c:238
}
    1f9c:	8082                	ret

00001f9e <I2C_Send7bitAddress>:
I2C_Send7bitAddress():
C:\MRS_DATA\workspace\CH592F_SSD1306\obj/../StdPeriphDriver/CH59x_i2c.c:269
        Address &= OADDR1_ADD0_Reset;
    1f9e:	0fe57793          	andi	a5,a0,254
C:\MRS_DATA\workspace\CH592F_SSD1306\obj/../StdPeriphDriver/CH59x_i2c.c:266
    if(I2C_Direction != I2C_Direction_Transmitter)
    1fa2:	c199                	beqz	a1,1fa8 <I2C_Send7bitAddress+0xa>
C:\MRS_DATA\workspace\CH592F_SSD1306\obj/../StdPeriphDriver/CH59x_i2c.c:267
        Address |= OADDR1_ADD0_Set;
    1fa4:	00156793          	ori	a5,a0,1
C:\MRS_DATA\workspace\CH592F_SSD1306\obj/../StdPeriphDriver/CH59x_i2c.c:271
    R16_I2C_DATAR = Address;
    1fa8:	07c2                	slli	a5,a5,0x10
    1faa:	83c1                	srli	a5,a5,0x10
    1fac:	40005737          	lui	a4,0x40005
    1fb0:	80f71823          	sh	a5,-2032(a4) # 40004810 <_eusrstack+0x1fffe010>
C:\MRS_DATA\workspace\CH592F_SSD1306\obj/../StdPeriphDriver/CH59x_i2c.c:272
}
    1fb4:	8082                	ret

00001fb6 <I2C_CheckEvent>:
I2C_CheckEvent():
C:\MRS_DATA\workspace\CH592F_SSD1306\obj/../StdPeriphDriver/CH59x_i2c.c:482
{
    uint32_t lastevent = 0;
    uint32_t flag1 = 0, flag2 = 0;
    uint8_t  status = 0;

    flag1 = R16_I2C_STAR1;
    1fb6:	400056b7          	lui	a3,0x40005
    1fba:	8146d603          	lhu	a2,-2028(a3) # 40004814 <_eusrstack+0x1fffe014>
C:\MRS_DATA\workspace\CH592F_SSD1306\obj/../StdPeriphDriver/CH59x_i2c.c:483
    flag2 = R16_I2C_STAR2;
    1fbe:	8186d703          	lhu	a4,-2024(a3)
C:\MRS_DATA\workspace\CH592F_SSD1306\obj/../StdPeriphDriver/CH59x_i2c.c:484
    flag2 = flag2 << 16;
    1fc2:	01071793          	slli	a5,a4,0x10
C:\MRS_DATA\workspace\CH592F_SSD1306\obj/../StdPeriphDriver/CH59x_i2c.c:486

    lastevent = (flag1 | flag2) & FLAG_Mask;
    1fc6:	8fd1                	or	a5,a5,a2
C:\MRS_DATA\workspace\CH592F_SSD1306\obj/../StdPeriphDriver/CH59x_i2c.c:488

    if((lastevent & I2C_EVENT) == I2C_EVENT)
    1fc8:	8fe9                	and	a5,a5,a0
    1fca:	07a2                	slli	a5,a5,0x8
    1fcc:	83a1                	srli	a5,a5,0x8
    1fce:	40a78533          	sub	a0,a5,a0
C:\MRS_DATA\workspace\CH592F_SSD1306\obj/../StdPeriphDriver/CH59x_i2c.c:498
    {
        status = 0;
    }

    return status;
}
    1fd2:	00153513          	seqz	a0,a0
    1fd6:	8082                	ret

00001fd8 <PWR_DCDCCfg>:
PWR_DCDCCfg():
C:\MRS_DATA\workspace\CH592F_SSD1306\obj/../StdPeriphDriver/CH59x_pwr.c:25
 * @param   s       - 是否打开DCDC电源
 *
 * @return  none
 */
void PWR_DCDCCfg(FunctionalState s)
{
    1fd8:	7179                	addi	sp,sp,-48
    1fda:	d422                	sw	s0,40(sp)
C:\MRS_DATA\workspace\CH592F_SSD1306\obj/../StdPeriphDriver/CH59x_pwr.c:26
    uint16_t adj = R16_AUX_POWER_ADJ;
    1fdc:	40001437          	lui	s0,0x40001
    1fe0:	02245703          	lhu	a4,34(s0) # 40001022 <_eusrstack+0x1fffa822>
C:\MRS_DATA\workspace\CH592F_SSD1306\obj/../StdPeriphDriver/CH59x_pwr.c:27
    uint16_t plan = R16_POWER_PLAN;
    1fe4:	02045783          	lhu	a5,32(s0)
C:\MRS_DATA\workspace\CH592F_SSD1306\obj/../StdPeriphDriver/CH59x_pwr.c:25
{
    1fe8:	d226                	sw	s1,36(sp)
    1fea:	d04a                	sw	s2,32(sp)
C:\MRS_DATA\workspace\CH592F_SSD1306\obj/../StdPeriphDriver/CH59x_pwr.c:27
    uint16_t plan = R16_POWER_PLAN;
    1fec:	01079493          	slli	s1,a5,0x10
C:\MRS_DATA\workspace\CH592F_SSD1306\obj/../StdPeriphDriver/CH59x_pwr.c:26
    uint16_t adj = R16_AUX_POWER_ADJ;
    1ff0:	01071913          	slli	s2,a4,0x10
C:\MRS_DATA\workspace\CH592F_SSD1306\obj/../StdPeriphDriver/CH59x_pwr.c:25
{
    1ff4:	d606                	sw	ra,44(sp)
    1ff6:	ce4e                	sw	s3,28(sp)
C:\MRS_DATA\workspace\CH592F_SSD1306\obj/../StdPeriphDriver/CH59x_pwr.c:26
    uint16_t adj = R16_AUX_POWER_ADJ;
    1ff8:	01095913          	srli	s2,s2,0x10
C:\MRS_DATA\workspace\CH592F_SSD1306\obj/../StdPeriphDriver/CH59x_pwr.c:27
    uint16_t plan = R16_POWER_PLAN;
    1ffc:	80c1                	srli	s1,s1,0x10
C:\MRS_DATA\workspace\CH592F_SSD1306\obj/../StdPeriphDriver/CH59x_pwr.c:29

    if(s == DISABLE)
    1ffe:	ed31                	bnez	a0,205a <PWR_DCDCCfg+0x82>
C:\MRS_DATA\workspace\CH592F_SSD1306\obj/../StdPeriphDriver/CH59x_pwr.c:32
    {
        
        adj &= ~RB_DCDC_CHARGE;
    2000:	f7f97713          	andi	a4,s2,-129
C:\MRS_DATA\workspace\CH592F_SSD1306\obj/../StdPeriphDriver/CH59x_pwr.c:33
        plan &= ~(RB_PWR_DCDC_EN | RB_PWR_DCDC_PRE); // 旁路 DC/DC
    2004:	9ff4f793          	andi	a5,s1,-1537
C:\MRS_DATA\workspace\CH592F_SSD1306\obj/../StdPeriphDriver/CH59x_pwr.c:32
        adj &= ~RB_DCDC_CHARGE;
    2008:	0742                	slli	a4,a4,0x10
C:\MRS_DATA\workspace\CH592F_SSD1306\obj/../StdPeriphDriver/CH59x_pwr.c:33
        plan &= ~(RB_PWR_DCDC_EN | RB_PWR_DCDC_PRE); // 旁路 DC/DC
    200a:	07c2                	slli	a5,a5,0x10
C:\MRS_DATA\workspace\CH592F_SSD1306\obj/../StdPeriphDriver/CH59x_pwr.c:32
        adj &= ~RB_DCDC_CHARGE;
    200c:	8341                	srli	a4,a4,0x10
C:\MRS_DATA\workspace\CH592F_SSD1306\obj/../StdPeriphDriver/CH59x_pwr.c:33
        plan &= ~(RB_PWR_DCDC_EN | RB_PWR_DCDC_PRE); // 旁路 DC/DC
    200e:	83c1                	srli	a5,a5,0x10
__risc_v_disable_irq():
C:\MRS_DATA\workspace\CH592F_SSD1306\RVMSIS/core_riscv.h:130
  __asm volatile ("csrrc %0, 0x800, %1" : \
    2010:	08800693          	li	a3,136
    2014:	8006b6f3          	csrrc	a3,0x800,a3
C:\MRS_DATA\workspace\CH592F_SSD1306\RVMSIS/core_riscv.h:132
  return result & 0x88;
    2018:	0886f693          	andi	a3,a3,136
PWR_DCDCCfg():
C:\MRS_DATA\workspace\CH592F_SSD1306\obj/../StdPeriphDriver/CH59x_pwr.c:34
        sys_safe_access_enable();
    201c:	c436                	sw	a3,8(sp)
    201e:	0001                	nop
    2020:	0001                	nop
    2022:	05700693          	li	a3,87
    2026:	04d40023          	sb	a3,64(s0)
    202a:	fa800693          	li	a3,-88
    202e:	04d40023          	sb	a3,64(s0)
    2032:	0001                	nop
    2034:	0001                	nop
C:\MRS_DATA\workspace\CH592F_SSD1306\obj/../StdPeriphDriver/CH59x_pwr.c:35
        R16_AUX_POWER_ADJ = adj;
    2036:	02e41123          	sh	a4,34(s0)
C:\MRS_DATA\workspace\CH592F_SSD1306\obj/../StdPeriphDriver/CH59x_pwr.c:36
        R16_POWER_PLAN = plan;
    203a:	02f41023          	sh	a5,32(s0)
C:\MRS_DATA\workspace\CH592F_SSD1306\obj/../StdPeriphDriver/CH59x_pwr.c:37
        sys_safe_access_disable();
    203e:	04040023          	sb	zero,64(s0)
    2042:	47a2                	lw	a5,8(sp)
__risc_v_enable_irq():
C:\MRS_DATA\workspace\CH592F_SSD1306\RVMSIS/core_riscv.h:114
  __asm volatile ("csrrs %0, 0x800, %1" : \
    2044:	8007a7f3          	csrrs	a5,0x800,a5
PWR_DCDCCfg():
C:\MRS_DATA\workspace\CH592F_SSD1306\obj/../StdPeriphDriver/CH59x_pwr.c:37
    2048:	0001                	nop
    204a:	0001                	nop
C:\MRS_DATA\workspace\CH592F_SSD1306\obj/../StdPeriphDriver/CH59x_pwr.c:58
        DelayUs(10);
        sys_safe_access_enable();
        R16_POWER_PLAN |= RB_PWR_DCDC_EN;
        sys_safe_access_disable();
    }
}
    204c:	50b2                	lw	ra,44(sp)
    204e:	5422                	lw	s0,40(sp)
    2050:	5492                	lw	s1,36(sp)
    2052:	5902                	lw	s2,32(sp)
    2054:	49f2                	lw	s3,28(sp)
    2056:	6145                	addi	sp,sp,48
    2058:	8082                	ret
C:\MRS_DATA\workspace\CH592F_SSD1306\obj/../StdPeriphDriver/CH59x_pwr.c:42
        FLASH_EEPROM_CMD(CMD_GET_ROM_INFO, ROM_CFG_ADR_HW, HW_Data, 0);
    205a:	0007f5b7          	lui	a1,0x7f
    205e:	4681                	li	a3,0
    2060:	0030                	addi	a2,sp,8
    2062:	05b1                	addi	a1,a1,12
    2064:	4519                	li	a0,6
    2066:	1fffe097          	auipc	ra,0x1fffe
    206a:	3b6080e7          	jalr	950(ra) # 2000041c <FLASH_EEPROM_CMD>
C:\MRS_DATA\workspace\CH592F_SSD1306\obj/../StdPeriphDriver/CH59x_pwr.c:43
        if((HW_Data[0]) & (1 << 13))
    206e:	47a2                	lw	a5,8(sp)
    2070:	01279713          	slli	a4,a5,0x12
    2074:	fc074ce3          	bltz	a4,204c <PWR_DCDCCfg+0x74>
C:\MRS_DATA\workspace\CH592F_SSD1306\obj/../StdPeriphDriver/CH59x_pwr.c:48
        plan |= RB_PWR_DCDC_PRE;
    2078:	4004e793          	ori	a5,s1,1024
C:\MRS_DATA\workspace\CH592F_SSD1306\obj/../StdPeriphDriver/CH59x_pwr.c:47
        adj |= RB_DCDC_CHARGE;
    207c:	08096713          	ori	a4,s2,128
__risc_v_disable_irq():
C:\MRS_DATA\workspace\CH592F_SSD1306\RVMSIS/core_riscv.h:130
  __asm volatile ("csrrc %0, 0x800, %1" : \
    2080:	08800493          	li	s1,136
    2084:	8004b6f3          	csrrc	a3,0x800,s1
C:\MRS_DATA\workspace\CH592F_SSD1306\RVMSIS/core_riscv.h:132
  return result & 0x88;
    2088:	0886f693          	andi	a3,a3,136
PWR_DCDCCfg():
C:\MRS_DATA\workspace\CH592F_SSD1306\obj/../StdPeriphDriver/CH59x_pwr.c:49
        sys_safe_access_enable();
    208c:	c036                	sw	a3,0(sp)
    208e:	0001                	nop
    2090:	0001                	nop
    2092:	05700993          	li	s3,87
    2096:	05340023          	sb	s3,64(s0)
    209a:	fa800913          	li	s2,-88
    209e:	05240023          	sb	s2,64(s0)
    20a2:	0001                	nop
    20a4:	0001                	nop
C:\MRS_DATA\workspace\CH592F_SSD1306\obj/../StdPeriphDriver/CH59x_pwr.c:50
        R16_AUX_POWER_ADJ = adj;
    20a6:	02e41123          	sh	a4,34(s0)
C:\MRS_DATA\workspace\CH592F_SSD1306\obj/../StdPeriphDriver/CH59x_pwr.c:51
        R16_POWER_PLAN = plan;
    20aa:	02f41023          	sh	a5,32(s0)
C:\MRS_DATA\workspace\CH592F_SSD1306\obj/../StdPeriphDriver/CH59x_pwr.c:52
        sys_safe_access_disable();
    20ae:	04040023          	sb	zero,64(s0)
    20b2:	4782                	lw	a5,0(sp)
__risc_v_enable_irq():
C:\MRS_DATA\workspace\CH592F_SSD1306\RVMSIS/core_riscv.h:114
  __asm volatile ("csrrs %0, 0x800, %1" : \
    20b4:	8007a7f3          	csrrs	a5,0x800,a5
PWR_DCDCCfg():
C:\MRS_DATA\workspace\CH592F_SSD1306\obj/../StdPeriphDriver/CH59x_pwr.c:52
    20b8:	0001                	nop
    20ba:	0001                	nop
C:\MRS_DATA\workspace\CH592F_SSD1306\obj/../StdPeriphDriver/CH59x_pwr.c:53
        DelayUs(10);
    20bc:	4529                	li	a0,10
    20be:	1fffe097          	auipc	ra,0x1fffe
    20c2:	26c080e7          	jalr	620(ra) # 2000032a <mDelayuS>
__risc_v_disable_irq():
C:\MRS_DATA\workspace\CH592F_SSD1306\RVMSIS/core_riscv.h:130
  __asm volatile ("csrrc %0, 0x800, %1" : \
    20c6:	8004b4f3          	csrrc	s1,0x800,s1
C:\MRS_DATA\workspace\CH592F_SSD1306\RVMSIS/core_riscv.h:132
  return result & 0x88;
    20ca:	0884f493          	andi	s1,s1,136
PWR_DCDCCfg():
C:\MRS_DATA\workspace\CH592F_SSD1306\obj/../StdPeriphDriver/CH59x_pwr.c:54
        sys_safe_access_enable();
    20ce:	c226                	sw	s1,4(sp)
    20d0:	0001                	nop
    20d2:	0001                	nop
    20d4:	05340023          	sb	s3,64(s0)
    20d8:	05240023          	sb	s2,64(s0)
    20dc:	0001                	nop
    20de:	0001                	nop
C:\MRS_DATA\workspace\CH592F_SSD1306\obj/../StdPeriphDriver/CH59x_pwr.c:55
        R16_POWER_PLAN |= RB_PWR_DCDC_EN;
    20e0:	02045783          	lhu	a5,32(s0)
    20e4:	2007e793          	ori	a5,a5,512
    20e8:	02f41023          	sh	a5,32(s0)
C:\MRS_DATA\workspace\CH592F_SSD1306\obj/../StdPeriphDriver/CH59x_pwr.c:56
        sys_safe_access_disable();
    20ec:	04040023          	sb	zero,64(s0)
    20f0:	4792                	lw	a5,4(sp)
__risc_v_enable_irq():
C:\MRS_DATA\workspace\CH592F_SSD1306\RVMSIS/core_riscv.h:114
  __asm volatile ("csrrs %0, 0x800, %1" : \
    20f2:	8007a7f3          	csrrs	a5,0x800,a5
PWR_DCDCCfg():
C:\MRS_DATA\workspace\CH592F_SSD1306\obj/../StdPeriphDriver/CH59x_pwr.c:56
    20f6:	0001                	nop
    20f8:	0001                	nop
C:\MRS_DATA\workspace\CH592F_SSD1306\obj/../StdPeriphDriver/CH59x_pwr.c:58
}
    20fa:	50b2                	lw	ra,44(sp)
    20fc:	5422                	lw	s0,40(sp)
    20fe:	5492                	lw	s1,36(sp)
    2100:	5902                	lw	s2,32(sp)
    2102:	49f2                	lw	s3,28(sp)
    2104:	6145                	addi	sp,sp,48
    2106:	8082                	ret

00002108 <GetSysClock>:
GetSysClock():
C:\MRS_DATA\workspace\CH592F_SSD1306\obj/../StdPeriphDriver/CH59x_sys.c:83
    rev = R32_CLK_SYS_CFG & 0xff;
    2108:	400017b7          	lui	a5,0x40001
    210c:	4788                	lw	a0,8(a5)
    210e:	0542                	slli	a0,a0,0x10
    2110:	8141                	srli	a0,a0,0x10
C:\MRS_DATA\workspace\CH592F_SSD1306\obj/../StdPeriphDriver/CH59x_sys.c:84
    if((rev & 0x40) == (0 << 6))
    2112:	04057793          	andi	a5,a0,64
    2116:	c39d                	beqz	a5,213c <GetSysClock+0x34>
C:\MRS_DATA\workspace\CH592F_SSD1306\obj/../StdPeriphDriver/CH59x_sys.c:88
    else if((rev & RB_CLK_SYS_MOD) == (1 << 6))
    2118:	0c057793          	andi	a5,a0,192
    211c:	04000713          	li	a4,64
    2120:	00e78663          	beq	a5,a4,212c <GetSysClock+0x24>
C:\MRS_DATA\workspace\CH592F_SSD1306\obj/../StdPeriphDriver/CH59x_sys.c:94
        return (32000);
    2124:	6521                	lui	a0,0x8
    2126:	d0050513          	addi	a0,a0,-768 # 7d00 <_data_lma+0x1458>
C:\MRS_DATA\workspace\CH592F_SSD1306\obj/../StdPeriphDriver/CH59x_sys.c:96
}
    212a:	8082                	ret
C:\MRS_DATA\workspace\CH592F_SSD1306\obj/../StdPeriphDriver/CH59x_sys.c:90
        return (480000000 / (rev & 0x1f));
    212c:	1c9c47b7          	lui	a5,0x1c9c4
    2130:	80078793          	addi	a5,a5,-2048 # 1c9c3800 <_data_lma+0x1c9bcf58>
    2134:	897d                	andi	a0,a0,31
    2136:	02a7c533          	div	a0,a5,a0
    213a:	8082                	ret
C:\MRS_DATA\workspace\CH592F_SSD1306\obj/../StdPeriphDriver/CH59x_sys.c:86
        return (32000000 / (rev & 0x1f));
    213c:	01e857b7          	lui	a5,0x1e85
    2140:	80078793          	addi	a5,a5,-2048 # 1e84800 <_data_lma+0x1e7df58>
    2144:	897d                	andi	a0,a0,31
    2146:	02a7c533          	div	a0,a5,a0
    214a:	8082                	ret

0000214c <UART0_DefInit>:
UART0_DefInit():
C:\MRS_DATA\workspace\CH592F_SSD1306\obj/../StdPeriphDriver/CH59x_uart0.c:25
 * @param   none
 *
 * @return  none
 */
void UART0_DefInit(void)
{
    214c:	1141                	addi	sp,sp,-16
    214e:	c606                	sw	ra,12(sp)
UART0_BaudRateCfg():
C:\MRS_DATA\workspace\CH592F_SSD1306\obj/../StdPeriphDriver/CH59x_uart0.c:46
 */
void UART0_BaudRateCfg(uint32_t baudrate)
{
    uint32_t x;

    x = 10 * GetSysClock() / 8 / baudrate;
    2150:	3f65                	jal	2108 <GetSysClock>
    2152:	00251793          	slli	a5,a0,0x2
    2156:	97aa                	add	a5,a5,a0
    2158:	0786                	slli	a5,a5,0x1
    215a:	000e1537          	lui	a0,0xe1
    215e:	02a7d7b3          	divu	a5,a5,a0
C:\MRS_DATA\workspace\CH592F_SSD1306\obj/../StdPeriphDriver/CH59x_uart0.c:47
    x = (x + 5) / 10;
    2162:	46a9                	li	a3,10
C:\MRS_DATA\workspace\CH592F_SSD1306\obj/../StdPeriphDriver/CH59x_uart0.c:48
    R16_UART0_DL = (uint16_t)x;
    2164:	40003737          	lui	a4,0x40003
C:\MRS_DATA\workspace\CH592F_SSD1306\obj/../StdPeriphDriver/CH59x_uart0.c:47
    x = (x + 5) / 10;
    2168:	0795                	addi	a5,a5,5
    216a:	02d7d7b3          	divu	a5,a5,a3
C:\MRS_DATA\workspace\CH592F_SSD1306\obj/../StdPeriphDriver/CH59x_uart0.c:48
    R16_UART0_DL = (uint16_t)x;
    216e:	07c2                	slli	a5,a5,0x10
    2170:	83c1                	srli	a5,a5,0x10
    2172:	00f71623          	sh	a5,12(a4) # 4000300c <_eusrstack+0x1fffc80c>
UART0_DefInit():
C:\MRS_DATA\workspace\CH592F_SSD1306\obj/../StdPeriphDriver/CH59x_uart0.c:27
    R8_UART0_FCR = (2 << 6) | RB_FCR_TX_FIFO_CLR | RB_FCR_RX_FIFO_CLR | RB_FCR_FIFO_EN; // FIFO打开，触发点4字节
    2176:	f8700793          	li	a5,-121
    217a:	00f70123          	sb	a5,2(a4)
C:\MRS_DATA\workspace\CH592F_SSD1306\obj/../StdPeriphDriver/CH59x_uart0.c:28
    R8_UART0_LCR = RB_LCR_WORD_SZ;
    217e:	478d                	li	a5,3
    2180:	00f701a3          	sb	a5,3(a4)
C:\MRS_DATA\workspace\CH592F_SSD1306\obj/../StdPeriphDriver/CH59x_uart0.c:29
    R8_UART0_IER = RB_IER_TXD_EN;
    2184:	04000793          	li	a5,64
    2188:	00f700a3          	sb	a5,1(a4)
C:\MRS_DATA\workspace\CH592F_SSD1306\obj/../StdPeriphDriver/CH59x_uart0.c:30
    R8_UART0_DIV = 1;
    218c:	4785                	li	a5,1
    218e:	00f70723          	sb	a5,14(a4)
C:\MRS_DATA\workspace\CH592F_SSD1306\obj/../StdPeriphDriver/CH59x_uart0.c:31
}
    2192:	40b2                	lw	ra,12(sp)
    2194:	0141                	addi	sp,sp,16
    2196:	8082                	ret

00002198 <cos>:
cos():
    2198:	1101                	addi	sp,sp,-32
    219a:	cc22                	sw	s0,24(sp)
    219c:	80000437          	lui	s0,0x80000
    21a0:	fff44793          	not	a5,s0
    21a4:	3fe92737          	lui	a4,0x3fe92
    21a8:	ce06                	sw	ra,28(sp)
    21aa:	8fed                	and	a5,a5,a1
    21ac:	1fb70713          	addi	a4,a4,507 # 3fe921fb <_eusrstack+0x1fe8b9fb>
    21b0:	04f75063          	bge	a4,a5,21f0 <cos+0x58>
    21b4:	7ff00737          	lui	a4,0x7ff00
    21b8:	00e7ca63          	blt	a5,a4,21cc <cos+0x34>
    21bc:	86ae                	mv	a3,a1
    21be:	862a                	mv	a2,a0
    21c0:	041020ef          	jal	ra,4a00 <__subdf3>
    21c4:	40f2                	lw	ra,28(sp)
    21c6:	4462                	lw	s0,24(sp)
    21c8:	6105                	addi	sp,sp,32
    21ca:	8082                	ret
    21cc:	860a                	mv	a2,sp
    21ce:	20cd                	jal	22b0 <__ieee754_rem_pio2>
    21d0:	890d                	andi	a0,a0,3
    21d2:	4785                	li	a5,1
    21d4:	02f50563          	beq	a0,a5,21fe <cos+0x66>
    21d8:	4789                	li	a5,2
    21da:	4622                	lw	a2,8(sp)
    21dc:	46b2                	lw	a3,12(sp)
    21de:	02f50d63          	beq	a0,a5,2218 <cos+0x80>
    21e2:	c51d                	beqz	a0,2210 <cos+0x78>
    21e4:	4502                	lw	a0,0(sp)
    21e6:	4592                	lw	a1,4(sp)
    21e8:	4705                	li	a4,1
    21ea:	126010ef          	jal	ra,3310 <__kernel_sin>
    21ee:	bfd9                	j	21c4 <cos+0x2c>
    21f0:	4601                	li	a2,0
    21f2:	4681                	li	a3,0
    21f4:	2305                	jal	2714 <__kernel_cos>
    21f6:	40f2                	lw	ra,28(sp)
    21f8:	4462                	lw	s0,24(sp)
    21fa:	6105                	addi	sp,sp,32
    21fc:	8082                	ret
    21fe:	4622                	lw	a2,8(sp)
    2200:	46b2                	lw	a3,12(sp)
    2202:	4502                	lw	a0,0(sp)
    2204:	4592                	lw	a1,4(sp)
    2206:	4705                	li	a4,1
    2208:	108010ef          	jal	ra,3310 <__kernel_sin>
    220c:	8da1                	xor	a1,a1,s0
    220e:	bf5d                	j	21c4 <cos+0x2c>
    2210:	4502                	lw	a0,0(sp)
    2212:	4592                	lw	a1,4(sp)
    2214:	2301                	jal	2714 <__kernel_cos>
    2216:	b77d                	j	21c4 <cos+0x2c>
    2218:	4502                	lw	a0,0(sp)
    221a:	4592                	lw	a1,4(sp)
    221c:	29e5                	jal	2714 <__kernel_cos>
    221e:	8da1                	xor	a1,a1,s0
    2220:	b755                	j	21c4 <cos+0x2c>

00002222 <sin>:
sin():
    2222:	1101                	addi	sp,sp,-32
    2224:	cc22                	sw	s0,24(sp)
    2226:	80000437          	lui	s0,0x80000
    222a:	fff44793          	not	a5,s0
    222e:	3fe92737          	lui	a4,0x3fe92
    2232:	ce06                	sw	ra,28(sp)
    2234:	8fed                	and	a5,a5,a1
    2236:	1fb70713          	addi	a4,a4,507 # 3fe921fb <_eusrstack+0x1fe8b9fb>
    223a:	02f75f63          	bge	a4,a5,2278 <sin+0x56>
    223e:	7ff00737          	lui	a4,0x7ff00
    2242:	00e7ca63          	blt	a5,a4,2256 <sin+0x34>
    2246:	86ae                	mv	a3,a1
    2248:	862a                	mv	a2,a0
    224a:	7b6020ef          	jal	ra,4a00 <__subdf3>
    224e:	40f2                	lw	ra,28(sp)
    2250:	4462                	lw	s0,24(sp)
    2252:	6105                	addi	sp,sp,32
    2254:	8082                	ret
    2256:	860a                	mv	a2,sp
    2258:	28a1                	jal	22b0 <__ieee754_rem_pio2>
    225a:	890d                	andi	a0,a0,3
    225c:	4785                	li	a5,1
    225e:	02f50663          	beq	a0,a5,228a <sin+0x68>
    2262:	4789                	li	a5,2
    2264:	4622                	lw	a2,8(sp)
    2266:	46b2                	lw	a3,12(sp)
    2268:	02f50d63          	beq	a0,a5,22a2 <sin+0x80>
    226c:	c50d                	beqz	a0,2296 <sin+0x74>
    226e:	4502                	lw	a0,0(sp)
    2270:	4592                	lw	a1,4(sp)
    2272:	214d                	jal	2714 <__kernel_cos>
    2274:	8da1                	xor	a1,a1,s0
    2276:	bfe1                	j	224e <sin+0x2c>
    2278:	4701                	li	a4,0
    227a:	4601                	li	a2,0
    227c:	4681                	li	a3,0
    227e:	092010ef          	jal	ra,3310 <__kernel_sin>
    2282:	40f2                	lw	ra,28(sp)
    2284:	4462                	lw	s0,24(sp)
    2286:	6105                	addi	sp,sp,32
    2288:	8082                	ret
    228a:	4622                	lw	a2,8(sp)
    228c:	46b2                	lw	a3,12(sp)
    228e:	4502                	lw	a0,0(sp)
    2290:	4592                	lw	a1,4(sp)
    2292:	2149                	jal	2714 <__kernel_cos>
    2294:	bf6d                	j	224e <sin+0x2c>
    2296:	4502                	lw	a0,0(sp)
    2298:	4592                	lw	a1,4(sp)
    229a:	4705                	li	a4,1
    229c:	074010ef          	jal	ra,3310 <__kernel_sin>
    22a0:	b77d                	j	224e <sin+0x2c>
    22a2:	4502                	lw	a0,0(sp)
    22a4:	4592                	lw	a1,4(sp)
    22a6:	4705                	li	a4,1
    22a8:	068010ef          	jal	ra,3310 <__kernel_sin>
    22ac:	8da1                	xor	a1,a1,s0
    22ae:	b745                	j	224e <sin+0x2c>

000022b0 <__ieee754_rem_pio2>:
__ieee754_rem_pio2():
    22b0:	7159                	addi	sp,sp,-112
    22b2:	d4a2                	sw	s0,104(sp)
    22b4:	3fe92737          	lui	a4,0x3fe92
    22b8:	00159413          	slli	s0,a1,0x1
    22bc:	d686                	sw	ra,108(sp)
    22be:	d2a6                	sw	s1,100(sp)
    22c0:	d0ca                	sw	s2,96(sp)
    22c2:	cece                	sw	s3,92(sp)
    22c4:	ccd2                	sw	s4,88(sp)
    22c6:	cad6                	sw	s5,84(sp)
    22c8:	c8da                	sw	s6,80(sp)
    22ca:	c6de                	sw	s7,76(sp)
    22cc:	c4e2                	sw	s8,72(sp)
    22ce:	c2e6                	sw	s9,68(sp)
    22d0:	c0ea                	sw	s10,64(sp)
    22d2:	de6e                	sw	s11,60(sp)
    22d4:	8005                	srli	s0,s0,0x1
    22d6:	1fb70713          	addi	a4,a4,507 # 3fe921fb <_eusrstack+0x1fe8b9fb>
    22da:	14875b63          	bge	a4,s0,2430 <__ieee754_rem_pio2+0x180>
    22de:	4002e737          	lui	a4,0x4002e
    22e2:	97b70713          	addi	a4,a4,-1669 # 4002d97b <_eusrstack+0x2002717b>
    22e6:	89b2                	mv	s3,a2
    22e8:	06874f63          	blt	a4,s0,2366 <__ieee754_rem_pio2+0xb6>
    22ec:	00004797          	auipc	a5,0x4
    22f0:	12c78793          	addi	a5,a5,300 # 6418 <original_vertices+0xb8>
    22f4:	4390                	lw	a2,0(a5)
    22f6:	43d4                	lw	a3,4(a5)
    22f8:	3ab05663          	blez	a1,26a4 <__ieee754_rem_pio2+0x3f4>
    22fc:	704020ef          	jal	ra,4a00 <__subdf3>
    2300:	3ff927b7          	lui	a5,0x3ff92
    2304:	1fb78793          	addi	a5,a5,507 # 3ff921fb <_eusrstack+0x1ff8b9fb>
    2308:	8a2a                	mv	s4,a0
    230a:	8aae                	mv	s5,a1
    230c:	14f40863          	beq	s0,a5,245c <__ieee754_rem_pio2+0x1ac>
    2310:	00004417          	auipc	s0,0x4
    2314:	11040413          	addi	s0,s0,272 # 6420 <original_vertices+0xc0>
    2318:	4010                	lw	a2,0(s0)
    231a:	4054                	lw	a3,4(s0)
    231c:	4485                	li	s1,1
    231e:	6e2020ef          	jal	ra,4a00 <__subdf3>
    2322:	862a                	mv	a2,a0
    2324:	86ae                	mv	a3,a1
    2326:	00a9a023          	sw	a0,0(s3) # 30000 <_data_lma+0x29758>
    232a:	00b9a223          	sw	a1,4(s3)
    232e:	8552                	mv	a0,s4
    2330:	85d6                	mv	a1,s5
    2332:	6ce020ef          	jal	ra,4a00 <__subdf3>
    2336:	4010                	lw	a2,0(s0)
    2338:	4054                	lw	a3,4(s0)
    233a:	6c6020ef          	jal	ra,4a00 <__subdf3>
    233e:	00a9a423          	sw	a0,8(s3)
    2342:	00b9a623          	sw	a1,12(s3)
    2346:	50b6                	lw	ra,108(sp)
    2348:	5426                	lw	s0,104(sp)
    234a:	8526                	mv	a0,s1
    234c:	5906                	lw	s2,96(sp)
    234e:	5496                	lw	s1,100(sp)
    2350:	49f6                	lw	s3,92(sp)
    2352:	4a66                	lw	s4,88(sp)
    2354:	4ad6                	lw	s5,84(sp)
    2356:	4b46                	lw	s6,80(sp)
    2358:	4bb6                	lw	s7,76(sp)
    235a:	4c26                	lw	s8,72(sp)
    235c:	4c96                	lw	s9,68(sp)
    235e:	4d06                	lw	s10,64(sp)
    2360:	5df2                	lw	s11,60(sp)
    2362:	6165                	addi	sp,sp,112
    2364:	8082                	ret
    2366:	41392737          	lui	a4,0x41392
    236a:	1fb70713          	addi	a4,a4,507 # 413921fb <_eusrstack+0x2138b9fb>
    236e:	892e                	mv	s2,a1
    2370:	10875863          	bge	a4,s0,2480 <__ieee754_rem_pio2+0x1d0>
    2374:	7ff00737          	lui	a4,0x7ff00
    2378:	0ce45463          	bge	s0,a4,2440 <__ieee754_rem_pio2+0x190>
    237c:	41445a13          	srai	s4,s0,0x14
    2380:	beaa0a13          	addi	s4,s4,-1046
    2384:	014a1793          	slli	a5,s4,0x14
    2388:	8c1d                	sub	s0,s0,a5
    238a:	85a2                	mv	a1,s0
    238c:	84aa                	mv	s1,a0
    238e:	5b1020ef          	jal	ra,513e <__fixdfsi>
    2392:	615020ef          	jal	ra,51a6 <__floatsidf>
    2396:	872a                	mv	a4,a0
    2398:	87ae                	mv	a5,a1
    239a:	863a                	mv	a2,a4
    239c:	86be                	mv	a3,a5
    239e:	8526                	mv	a0,s1
    23a0:	85a2                	mv	a1,s0
    23a2:	cc3a                	sw	a4,24(sp)
    23a4:	ce3e                	sw	a5,28(sp)
    23a6:	00004497          	auipc	s1,0x4
    23aa:	0b248493          	addi	s1,s1,178 # 6458 <original_vertices+0xf8>
    23ae:	652020ef          	jal	ra,4a00 <__subdf3>
    23b2:	4090                	lw	a2,0(s1)
    23b4:	40d4                	lw	a3,4(s1)
    23b6:	192020ef          	jal	ra,4548 <__muldf3>
    23ba:	8bae                	mv	s7,a1
    23bc:	8b2a                	mv	s6,a0
    23be:	581020ef          	jal	ra,513e <__fixdfsi>
    23c2:	842a                	mv	s0,a0
    23c4:	5e3020ef          	jal	ra,51a6 <__floatsidf>
    23c8:	872a                	mv	a4,a0
    23ca:	87ae                	mv	a5,a1
    23cc:	862a                	mv	a2,a0
    23ce:	86ae                	mv	a3,a1
    23d0:	855a                	mv	a0,s6
    23d2:	85de                	mv	a1,s7
    23d4:	d03a                	sw	a4,32(sp)
    23d6:	d23e                	sw	a5,36(sp)
    23d8:	628020ef          	jal	ra,4a00 <__subdf3>
    23dc:	4090                	lw	a2,0(s1)
    23de:	40d4                	lw	a3,4(s1)
    23e0:	168020ef          	jal	ra,4548 <__muldf3>
    23e4:	4681                	li	a3,0
    23e6:	4601                	li	a2,0
    23e8:	d42a                	sw	a0,40(sp)
    23ea:	d62e                	sw	a1,44(sp)
    23ec:	044020ef          	jal	ra,4430 <__eqdf2>
    23f0:	008036b3          	snez	a3,s0
    23f4:	0685                	addi	a3,a3,1
    23f6:	22051763          	bnez	a0,2624 <__ieee754_rem_pio2+0x374>
    23fa:	00004797          	auipc	a5,0x4
    23fe:	0e678793          	addi	a5,a5,230 # 64e0 <two_over_pi>
    2402:	4709                	li	a4,2
    2404:	8652                	mv	a2,s4
    2406:	85ce                	mv	a1,s3
    2408:	0828                	addi	a0,sp,24
    240a:	23c9                	jal	29cc <__kernel_rem_pio2>
    240c:	84aa                	mv	s1,a0
    240e:	f2095ce3          	bgez	s2,2346 <__ieee754_rem_pio2+0x96>
    2412:	0049a703          	lw	a4,4(s3)
    2416:	00c9a783          	lw	a5,12(s3)
    241a:	800006b7          	lui	a3,0x80000
    241e:	8f35                	xor	a4,a4,a3
    2420:	8fb5                	xor	a5,a5,a3
    2422:	00e9a223          	sw	a4,4(s3)
    2426:	00f9a623          	sw	a5,12(s3)
    242a:	40a004b3          	neg	s1,a0
    242e:	bf21                	j	2346 <__ieee754_rem_pio2+0x96>
    2430:	c208                	sw	a0,0(a2)
    2432:	c24c                	sw	a1,4(a2)
    2434:	00062423          	sw	zero,8(a2)
    2438:	00062623          	sw	zero,12(a2)
    243c:	4481                	li	s1,0
    243e:	b721                	j	2346 <__ieee754_rem_pio2+0x96>
    2440:	862a                	mv	a2,a0
    2442:	86ae                	mv	a3,a1
    2444:	5bc020ef          	jal	ra,4a00 <__subdf3>
    2448:	00a9a423          	sw	a0,8(s3)
    244c:	00b9a623          	sw	a1,12(s3)
    2450:	00a9a023          	sw	a0,0(s3)
    2454:	00b9a223          	sw	a1,4(s3)
    2458:	4481                	li	s1,0
    245a:	b5f5                	j	2346 <__ieee754_rem_pio2+0x96>
    245c:	00004797          	auipc	a5,0x4
    2460:	fcc78793          	addi	a5,a5,-52 # 6428 <original_vertices+0xc8>
    2464:	4390                	lw	a2,0(a5)
    2466:	43d4                	lw	a3,4(a5)
    2468:	00004417          	auipc	s0,0x4
    246c:	fc840413          	addi	s0,s0,-56 # 6430 <original_vertices+0xd0>
    2470:	4485                	li	s1,1
    2472:	58e020ef          	jal	ra,4a00 <__subdf3>
    2476:	8a2a                	mv	s4,a0
    2478:	8aae                	mv	s5,a1
    247a:	4010                	lw	a2,0(s0)
    247c:	4054                	lw	a3,4(s0)
    247e:	b545                	j	231e <__ieee754_rem_pio2+0x6e>
    2480:	022010ef          	jal	ra,34a2 <fabs>
    2484:	00004797          	auipc	a5,0x4
    2488:	fb478793          	addi	a5,a5,-76 # 6438 <original_vertices+0xd8>
    248c:	4390                	lw	a2,0(a5)
    248e:	43d4                	lw	a3,4(a5)
    2490:	8a2a                	mv	s4,a0
    2492:	8aae                	mv	s5,a1
    2494:	0b4020ef          	jal	ra,4548 <__muldf3>
    2498:	00004797          	auipc	a5,0x4
    249c:	fa878793          	addi	a5,a5,-88 # 6440 <original_vertices+0xe0>
    24a0:	4390                	lw	a2,0(a5)
    24a2:	43d4                	lw	a3,4(a5)
    24a4:	2a8010ef          	jal	ra,374c <__adddf3>
    24a8:	497020ef          	jal	ra,513e <__fixdfsi>
    24ac:	84aa                	mv	s1,a0
    24ae:	4f9020ef          	jal	ra,51a6 <__floatsidf>
    24b2:	00004797          	auipc	a5,0x4
    24b6:	f6678793          	addi	a5,a5,-154 # 6418 <original_vertices+0xb8>
    24ba:	4390                	lw	a2,0(a5)
    24bc:	43d4                	lw	a3,4(a5)
    24be:	8b2a                	mv	s6,a0
    24c0:	8bae                	mv	s7,a1
    24c2:	086020ef          	jal	ra,4548 <__muldf3>
    24c6:	862a                	mv	a2,a0
    24c8:	86ae                	mv	a3,a1
    24ca:	8552                	mv	a0,s4
    24cc:	85d6                	mv	a1,s5
    24ce:	532020ef          	jal	ra,4a00 <__subdf3>
    24d2:	00004797          	auipc	a5,0x4
    24d6:	f4e78793          	addi	a5,a5,-178 # 6420 <original_vertices+0xc0>
    24da:	4390                	lw	a2,0(a5)
    24dc:	43d4                	lw	a3,4(a5)
    24de:	8d2a                	mv	s10,a0
    24e0:	8cae                	mv	s9,a1
    24e2:	855a                	mv	a0,s6
    24e4:	85de                	mv	a1,s7
    24e6:	062020ef          	jal	ra,4548 <__muldf3>
    24ea:	8a2a                	mv	s4,a0
    24ec:	8aae                	mv	s5,a1
    24ee:	47fd                	li	a5,31
    24f0:	856a                	mv	a0,s10
    24f2:	85e6                	mv	a1,s9
    24f4:	8652                	mv	a2,s4
    24f6:	86d6                	mv	a3,s5
    24f8:	0297c763          	blt	a5,s1,2526 <__ieee754_rem_pio2+0x276>
    24fc:	504020ef          	jal	ra,4a00 <__subdf3>
    2500:	fff48793          	addi	a5,s1,-1
    2504:	00279713          	slli	a4,a5,0x2
    2508:	00004797          	auipc	a5,0x4
    250c:	f5878793          	addi	a5,a5,-168 # 6460 <npio2_hw>
    2510:	97ba                	add	a5,a5,a4
    2512:	439c                	lw	a5,0(a5)
    2514:	8daa                	mv	s11,a0
    2516:	8c2e                	mv	s8,a1
    2518:	00878b63          	beq	a5,s0,252e <__ieee754_rem_pio2+0x27e>
    251c:	00a9a023          	sw	a0,0(s3)
    2520:	00b9a223          	sw	a1,4(s3)
    2524:	a025                	j	254c <__ieee754_rem_pio2+0x29c>
    2526:	4da020ef          	jal	ra,4a00 <__subdf3>
    252a:	8daa                	mv	s11,a0
    252c:	8c2e                	mv	s8,a1
    252e:	014c5793          	srli	a5,s8,0x14
    2532:	41445813          	srai	a6,s0,0x14
    2536:	7ff7f793          	andi	a5,a5,2047
    253a:	40f807b3          	sub	a5,a6,a5
    253e:	46c1                	li	a3,16
    2540:	04f6c663          	blt	a3,a5,258c <__ieee754_rem_pio2+0x2dc>
    2544:	01b9a023          	sw	s11,0(s3)
    2548:	0189a223          	sw	s8,4(s3)
    254c:	866e                	mv	a2,s11
    254e:	86e2                	mv	a3,s8
    2550:	856a                	mv	a0,s10
    2552:	85e6                	mv	a1,s9
    2554:	4ac020ef          	jal	ra,4a00 <__subdf3>
    2558:	8652                	mv	a2,s4
    255a:	86d6                	mv	a3,s5
    255c:	4a4020ef          	jal	ra,4a00 <__subdf3>
    2560:	00a9a423          	sw	a0,8(s3)
    2564:	00b9a623          	sw	a1,12(s3)
    2568:	dc095fe3          	bgez	s2,2346 <__ieee754_rem_pio2+0x96>
    256c:	800007b7          	lui	a5,0x80000
    2570:	0187cc33          	xor	s8,a5,s8
    2574:	8dbd                	xor	a1,a1,a5
    2576:	01b9a023          	sw	s11,0(s3)
    257a:	0189a223          	sw	s8,4(s3)
    257e:	00a9a423          	sw	a0,8(s3)
    2582:	00b9a623          	sw	a1,12(s3)
    2586:	409004b3          	neg	s1,s1
    258a:	bb75                	j	2346 <__ieee754_rem_pio2+0x96>
    258c:	00004797          	auipc	a5,0x4
    2590:	e9c78793          	addi	a5,a5,-356 # 6428 <original_vertices+0xc8>
    2594:	4390                	lw	a2,0(a5)
    2596:	43d4                	lw	a3,4(a5)
    2598:	855a                	mv	a0,s6
    259a:	85de                	mv	a1,s7
    259c:	c442                	sw	a6,8(sp)
    259e:	7ab010ef          	jal	ra,4548 <__muldf3>
    25a2:	8a2a                	mv	s4,a0
    25a4:	8aae                	mv	s5,a1
    25a6:	862a                	mv	a2,a0
    25a8:	86ae                	mv	a3,a1
    25aa:	856a                	mv	a0,s10
    25ac:	85e6                	mv	a1,s9
    25ae:	452020ef          	jal	ra,4a00 <__subdf3>
    25b2:	8c2e                	mv	s8,a1
    25b4:	862a                	mv	a2,a0
    25b6:	86ae                	mv	a3,a1
    25b8:	842a                	mv	s0,a0
    25ba:	c62e                	sw	a1,12(sp)
    25bc:	856a                	mv	a0,s10
    25be:	85e6                	mv	a1,s9
    25c0:	440020ef          	jal	ra,4a00 <__subdf3>
    25c4:	8652                	mv	a2,s4
    25c6:	86d6                	mv	a3,s5
    25c8:	438020ef          	jal	ra,4a00 <__subdf3>
    25cc:	00004797          	auipc	a5,0x4
    25d0:	e6478793          	addi	a5,a5,-412 # 6430 <original_vertices+0xd0>
    25d4:	4390                	lw	a2,0(a5)
    25d6:	43d4                	lw	a3,4(a5)
    25d8:	8a2a                	mv	s4,a0
    25da:	8aae                	mv	s5,a1
    25dc:	855a                	mv	a0,s6
    25de:	85de                	mv	a1,s7
    25e0:	769010ef          	jal	ra,4548 <__muldf3>
    25e4:	8652                	mv	a2,s4
    25e6:	86d6                	mv	a3,s5
    25e8:	418020ef          	jal	ra,4a00 <__subdf3>
    25ec:	862a                	mv	a2,a0
    25ee:	86ae                	mv	a3,a1
    25f0:	8a2a                	mv	s4,a0
    25f2:	8aae                	mv	s5,a1
    25f4:	8522                	mv	a0,s0
    25f6:	85e2                	mv	a1,s8
    25f8:	408020ef          	jal	ra,4a00 <__subdf3>
    25fc:	4822                	lw	a6,8(sp)
    25fe:	0145d793          	srli	a5,a1,0x14
    2602:	7ff7f793          	andi	a5,a5,2047
    2606:	40f80833          	sub	a6,a6,a5
    260a:	03100793          	li	a5,49
    260e:	8ce2                	mv	s9,s8
    2610:	8daa                	mv	s11,a0
    2612:	8c2e                	mv	s8,a1
    2614:	0107ca63          	blt	a5,a6,2628 <__ieee754_rem_pio2+0x378>
    2618:	00a9a023          	sw	a0,0(s3)
    261c:	00b9a223          	sw	a1,4(s3)
    2620:	8d22                	mv	s10,s0
    2622:	b72d                	j	254c <__ieee754_rem_pio2+0x29c>
    2624:	468d                	li	a3,3
    2626:	bbd1                	j	23fa <__ieee754_rem_pio2+0x14a>
    2628:	00004797          	auipc	a5,0x4
    262c:	e2078793          	addi	a5,a5,-480 # 6448 <original_vertices+0xe8>
    2630:	4390                	lw	a2,0(a5)
    2632:	43d4                	lw	a3,4(a5)
    2634:	855a                	mv	a0,s6
    2636:	85de                	mv	a1,s7
    2638:	711010ef          	jal	ra,4548 <__muldf3>
    263c:	4c32                	lw	s8,12(sp)
    263e:	8a2a                	mv	s4,a0
    2640:	8aae                	mv	s5,a1
    2642:	862a                	mv	a2,a0
    2644:	86ae                	mv	a3,a1
    2646:	8522                	mv	a0,s0
    2648:	85e2                	mv	a1,s8
    264a:	3b6020ef          	jal	ra,4a00 <__subdf3>
    264e:	862a                	mv	a2,a0
    2650:	86ae                	mv	a3,a1
    2652:	8d2a                	mv	s10,a0
    2654:	8cae                	mv	s9,a1
    2656:	8522                	mv	a0,s0
    2658:	85e2                	mv	a1,s8
    265a:	3a6020ef          	jal	ra,4a00 <__subdf3>
    265e:	8652                	mv	a2,s4
    2660:	86d6                	mv	a3,s5
    2662:	39e020ef          	jal	ra,4a00 <__subdf3>
    2666:	00004797          	auipc	a5,0x4
    266a:	dea78793          	addi	a5,a5,-534 # 6450 <original_vertices+0xf0>
    266e:	4390                	lw	a2,0(a5)
    2670:	43d4                	lw	a3,4(a5)
    2672:	8a2a                	mv	s4,a0
    2674:	8aae                	mv	s5,a1
    2676:	855a                	mv	a0,s6
    2678:	85de                	mv	a1,s7
    267a:	6cf010ef          	jal	ra,4548 <__muldf3>
    267e:	8652                	mv	a2,s4
    2680:	86d6                	mv	a3,s5
    2682:	37e020ef          	jal	ra,4a00 <__subdf3>
    2686:	862a                	mv	a2,a0
    2688:	86ae                	mv	a3,a1
    268a:	8a2a                	mv	s4,a0
    268c:	8aae                	mv	s5,a1
    268e:	856a                	mv	a0,s10
    2690:	85e6                	mv	a1,s9
    2692:	36e020ef          	jal	ra,4a00 <__subdf3>
    2696:	8daa                	mv	s11,a0
    2698:	8c2e                	mv	s8,a1
    269a:	00a9a023          	sw	a0,0(s3)
    269e:	00b9a223          	sw	a1,4(s3)
    26a2:	b56d                	j	254c <__ieee754_rem_pio2+0x29c>
    26a4:	0a8010ef          	jal	ra,374c <__adddf3>
    26a8:	3ff927b7          	lui	a5,0x3ff92
    26ac:	1fb78793          	addi	a5,a5,507 # 3ff921fb <_eusrstack+0x1ff8b9fb>
    26b0:	8a2a                	mv	s4,a0
    26b2:	8aae                	mv	s5,a1
    26b4:	02f40e63          	beq	s0,a5,26f0 <__ieee754_rem_pio2+0x440>
    26b8:	00004417          	auipc	s0,0x4
    26bc:	d6840413          	addi	s0,s0,-664 # 6420 <original_vertices+0xc0>
    26c0:	4010                	lw	a2,0(s0)
    26c2:	4054                	lw	a3,4(s0)
    26c4:	54fd                	li	s1,-1
    26c6:	086010ef          	jal	ra,374c <__adddf3>
    26ca:	862a                	mv	a2,a0
    26cc:	86ae                	mv	a3,a1
    26ce:	00a9a023          	sw	a0,0(s3)
    26d2:	00b9a223          	sw	a1,4(s3)
    26d6:	8552                	mv	a0,s4
    26d8:	85d6                	mv	a1,s5
    26da:	326020ef          	jal	ra,4a00 <__subdf3>
    26de:	4010                	lw	a2,0(s0)
    26e0:	4054                	lw	a3,4(s0)
    26e2:	06a010ef          	jal	ra,374c <__adddf3>
    26e6:	00a9a423          	sw	a0,8(s3)
    26ea:	00b9a623          	sw	a1,12(s3)
    26ee:	b9a1                	j	2346 <__ieee754_rem_pio2+0x96>
    26f0:	00004797          	auipc	a5,0x4
    26f4:	d3878793          	addi	a5,a5,-712 # 6428 <original_vertices+0xc8>
    26f8:	4390                	lw	a2,0(a5)
    26fa:	43d4                	lw	a3,4(a5)
    26fc:	00004417          	auipc	s0,0x4
    2700:	d3440413          	addi	s0,s0,-716 # 6430 <original_vertices+0xd0>
    2704:	54fd                	li	s1,-1
    2706:	046010ef          	jal	ra,374c <__adddf3>
    270a:	8a2a                	mv	s4,a0
    270c:	8aae                	mv	s5,a1
    270e:	4010                	lw	a2,0(s0)
    2710:	4054                	lw	a3,4(s0)
    2712:	bf55                	j	26c6 <__ieee754_rem_pio2+0x416>

00002714 <__kernel_cos>:
__kernel_cos():
    2714:	7139                	addi	sp,sp,-64
    2716:	d05a                	sw	s6,32(sp)
    2718:	00159b13          	slli	s6,a1,0x1
    271c:	d84a                	sw	s2,48(sp)
    271e:	d64e                	sw	s3,44(sp)
    2720:	cc62                	sw	s8,24(sp)
    2722:	ca66                	sw	s9,20(sp)
    2724:	de06                	sw	ra,60(sp)
    2726:	dc22                	sw	s0,56(sp)
    2728:	da26                	sw	s1,52(sp)
    272a:	d452                	sw	s4,40(sp)
    272c:	d256                	sw	s5,36(sp)
    272e:	ce5e                	sw	s7,28(sp)
    2730:	c86a                	sw	s10,16(sp)
    2732:	c66e                	sw	s11,12(sp)
    2734:	001b5b13          	srli	s6,s6,0x1
    2738:	3e4007b7          	lui	a5,0x3e400
    273c:	8c2e                	mv	s8,a1
    273e:	8caa                	mv	s9,a0
    2740:	8932                	mv	s2,a2
    2742:	89b6                	mv	s3,a3
    2744:	10fb5563          	bge	s6,a5,284e <__kernel_cos+0x13a>
    2748:	1f7020ef          	jal	ra,513e <__fixdfsi>
    274c:	26050963          	beqz	a0,29be <__kernel_cos+0x2aa>
    2750:	8666                	mv	a2,s9
    2752:	86e2                	mv	a3,s8
    2754:	8566                	mv	a0,s9
    2756:	85e2                	mv	a1,s8
    2758:	5f1010ef          	jal	ra,4548 <__muldf3>
    275c:	00004797          	auipc	a5,0x4
    2760:	e9c78793          	addi	a5,a5,-356 # 65f8 <two_over_pi+0x118>
    2764:	4390                	lw	a2,0(a5)
    2766:	43d4                	lw	a3,4(a5)
    2768:	842a                	mv	s0,a0
    276a:	84ae                	mv	s1,a1
    276c:	5dd010ef          	jal	ra,4548 <__muldf3>
    2770:	00004797          	auipc	a5,0x4
    2774:	e9078793          	addi	a5,a5,-368 # 6600 <two_over_pi+0x120>
    2778:	4390                	lw	a2,0(a5)
    277a:	43d4                	lw	a3,4(a5)
    277c:	7d1000ef          	jal	ra,374c <__adddf3>
    2780:	8622                	mv	a2,s0
    2782:	86a6                	mv	a3,s1
    2784:	5c5010ef          	jal	ra,4548 <__muldf3>
    2788:	00004797          	auipc	a5,0x4
    278c:	e8078793          	addi	a5,a5,-384 # 6608 <two_over_pi+0x128>
    2790:	4390                	lw	a2,0(a5)
    2792:	43d4                	lw	a3,4(a5)
    2794:	26c020ef          	jal	ra,4a00 <__subdf3>
    2798:	8622                	mv	a2,s0
    279a:	86a6                	mv	a3,s1
    279c:	5ad010ef          	jal	ra,4548 <__muldf3>
    27a0:	00004797          	auipc	a5,0x4
    27a4:	e7078793          	addi	a5,a5,-400 # 6610 <two_over_pi+0x130>
    27a8:	4390                	lw	a2,0(a5)
    27aa:	43d4                	lw	a3,4(a5)
    27ac:	7a1000ef          	jal	ra,374c <__adddf3>
    27b0:	8622                	mv	a2,s0
    27b2:	86a6                	mv	a3,s1
    27b4:	595010ef          	jal	ra,4548 <__muldf3>
    27b8:	00004797          	auipc	a5,0x4
    27bc:	e6078793          	addi	a5,a5,-416 # 6618 <two_over_pi+0x138>
    27c0:	4390                	lw	a2,0(a5)
    27c2:	43d4                	lw	a3,4(a5)
    27c4:	23c020ef          	jal	ra,4a00 <__subdf3>
    27c8:	8622                	mv	a2,s0
    27ca:	86a6                	mv	a3,s1
    27cc:	57d010ef          	jal	ra,4548 <__muldf3>
    27d0:	00004797          	auipc	a5,0x4
    27d4:	e5078793          	addi	a5,a5,-432 # 6620 <two_over_pi+0x140>
    27d8:	4390                	lw	a2,0(a5)
    27da:	43d4                	lw	a3,4(a5)
    27dc:	771000ef          	jal	ra,374c <__adddf3>
    27e0:	8622                	mv	a2,s0
    27e2:	86a6                	mv	a3,s1
    27e4:	565010ef          	jal	ra,4548 <__muldf3>
    27e8:	8a2a                	mv	s4,a0
    27ea:	8aae                	mv	s5,a1
    27ec:	00004797          	auipc	a5,0x4
    27f0:	c5478793          	addi	a5,a5,-940 # 6440 <original_vertices+0xe0>
    27f4:	4390                	lw	a2,0(a5)
    27f6:	43d4                	lw	a3,4(a5)
    27f8:	8522                	mv	a0,s0
    27fa:	85a6                	mv	a1,s1
    27fc:	54d010ef          	jal	ra,4548 <__muldf3>
    2800:	8b2a                	mv	s6,a0
    2802:	8bae                	mv	s7,a1
    2804:	8652                	mv	a2,s4
    2806:	86d6                	mv	a3,s5
    2808:	8522                	mv	a0,s0
    280a:	85a6                	mv	a1,s1
    280c:	53d010ef          	jal	ra,4548 <__muldf3>
    2810:	842a                	mv	s0,a0
    2812:	84ae                	mv	s1,a1
    2814:	864a                	mv	a2,s2
    2816:	86ce                	mv	a3,s3
    2818:	8566                	mv	a0,s9
    281a:	85e2                	mv	a1,s8
    281c:	52d010ef          	jal	ra,4548 <__muldf3>
    2820:	862a                	mv	a2,a0
    2822:	86ae                	mv	a3,a1
    2824:	8522                	mv	a0,s0
    2826:	85a6                	mv	a1,s1
    2828:	1d8020ef          	jal	ra,4a00 <__subdf3>
    282c:	862a                	mv	a2,a0
    282e:	86ae                	mv	a3,a1
    2830:	855a                	mv	a0,s6
    2832:	85de                	mv	a1,s7
    2834:	1cc020ef          	jal	ra,4a00 <__subdf3>
    2838:	00004797          	auipc	a5,0x4
    283c:	ab878793          	addi	a5,a5,-1352 # 62f0 <_sbrk+0x2e>
    2840:	862a                	mv	a2,a0
    2842:	86ae                	mv	a3,a1
    2844:	4388                	lw	a0,0(a5)
    2846:	43cc                	lw	a1,4(a5)
    2848:	1b8020ef          	jal	ra,4a00 <__subdf3>
    284c:	aa0d                	j	297e <__kernel_cos+0x26a>
    284e:	862a                	mv	a2,a0
    2850:	86ae                	mv	a3,a1
    2852:	4f7010ef          	jal	ra,4548 <__muldf3>
    2856:	00004797          	auipc	a5,0x4
    285a:	da278793          	addi	a5,a5,-606 # 65f8 <two_over_pi+0x118>
    285e:	4390                	lw	a2,0(a5)
    2860:	43d4                	lw	a3,4(a5)
    2862:	842a                	mv	s0,a0
    2864:	84ae                	mv	s1,a1
    2866:	4e3010ef          	jal	ra,4548 <__muldf3>
    286a:	00004797          	auipc	a5,0x4
    286e:	d9678793          	addi	a5,a5,-618 # 6600 <two_over_pi+0x120>
    2872:	4390                	lw	a2,0(a5)
    2874:	43d4                	lw	a3,4(a5)
    2876:	6d7000ef          	jal	ra,374c <__adddf3>
    287a:	8622                	mv	a2,s0
    287c:	86a6                	mv	a3,s1
    287e:	4cb010ef          	jal	ra,4548 <__muldf3>
    2882:	00004797          	auipc	a5,0x4
    2886:	d8678793          	addi	a5,a5,-634 # 6608 <two_over_pi+0x128>
    288a:	4390                	lw	a2,0(a5)
    288c:	43d4                	lw	a3,4(a5)
    288e:	172020ef          	jal	ra,4a00 <__subdf3>
    2892:	8622                	mv	a2,s0
    2894:	86a6                	mv	a3,s1
    2896:	4b3010ef          	jal	ra,4548 <__muldf3>
    289a:	00004797          	auipc	a5,0x4
    289e:	d7678793          	addi	a5,a5,-650 # 6610 <two_over_pi+0x130>
    28a2:	4390                	lw	a2,0(a5)
    28a4:	43d4                	lw	a3,4(a5)
    28a6:	6a7000ef          	jal	ra,374c <__adddf3>
    28aa:	8622                	mv	a2,s0
    28ac:	86a6                	mv	a3,s1
    28ae:	49b010ef          	jal	ra,4548 <__muldf3>
    28b2:	00004797          	auipc	a5,0x4
    28b6:	d6678793          	addi	a5,a5,-666 # 6618 <two_over_pi+0x138>
    28ba:	4390                	lw	a2,0(a5)
    28bc:	43d4                	lw	a3,4(a5)
    28be:	142020ef          	jal	ra,4a00 <__subdf3>
    28c2:	8622                	mv	a2,s0
    28c4:	86a6                	mv	a3,s1
    28c6:	483010ef          	jal	ra,4548 <__muldf3>
    28ca:	00004797          	auipc	a5,0x4
    28ce:	d5678793          	addi	a5,a5,-682 # 6620 <two_over_pi+0x140>
    28d2:	4390                	lw	a2,0(a5)
    28d4:	43d4                	lw	a3,4(a5)
    28d6:	677000ef          	jal	ra,374c <__adddf3>
    28da:	8622                	mv	a2,s0
    28dc:	86a6                	mv	a3,s1
    28de:	46b010ef          	jal	ra,4548 <__muldf3>
    28e2:	3fd337b7          	lui	a5,0x3fd33
    28e6:	33278793          	addi	a5,a5,818 # 3fd33332 <_eusrstack+0x1fd2cb32>
    28ea:	8a2a                	mv	s4,a0
    28ec:	8aae                	mv	s5,a1
    28ee:	ef67dfe3          	bge	a5,s6,27ec <__kernel_cos+0xd8>
    28f2:	3fe907b7          	lui	a5,0x3fe90
    28f6:	0b67c363          	blt	a5,s6,299c <__kernel_cos+0x288>
    28fa:	00004717          	auipc	a4,0x4
    28fe:	9f670713          	addi	a4,a4,-1546 # 62f0 <_sbrk+0x2e>
    2902:	ffe007b7          	lui	a5,0xffe00
    2906:	4308                	lw	a0,0(a4)
    2908:	434c                	lw	a1,4(a4)
    290a:	9b3e                	add	s6,s6,a5
    290c:	4781                	li	a5,0
    290e:	86da                	mv	a3,s6
    2910:	863e                	mv	a2,a5
    2912:	8d3e                	mv	s10,a5
    2914:	0ec020ef          	jal	ra,4a00 <__subdf3>
    2918:	8dda                	mv	s11,s6
    291a:	8bae                	mv	s7,a1
    291c:	8b2a                	mv	s6,a0
    291e:	00004797          	auipc	a5,0x4
    2922:	b2278793          	addi	a5,a5,-1246 # 6440 <original_vertices+0xe0>
    2926:	4390                	lw	a2,0(a5)
    2928:	43d4                	lw	a3,4(a5)
    292a:	8522                	mv	a0,s0
    292c:	85a6                	mv	a1,s1
    292e:	41b010ef          	jal	ra,4548 <__muldf3>
    2932:	866a                	mv	a2,s10
    2934:	86ee                	mv	a3,s11
    2936:	0ca020ef          	jal	ra,4a00 <__subdf3>
    293a:	8d2a                	mv	s10,a0
    293c:	8dae                	mv	s11,a1
    293e:	8652                	mv	a2,s4
    2940:	86d6                	mv	a3,s5
    2942:	8522                	mv	a0,s0
    2944:	85a6                	mv	a1,s1
    2946:	403010ef          	jal	ra,4548 <__muldf3>
    294a:	842a                	mv	s0,a0
    294c:	84ae                	mv	s1,a1
    294e:	864a                	mv	a2,s2
    2950:	86ce                	mv	a3,s3
    2952:	8566                	mv	a0,s9
    2954:	85e2                	mv	a1,s8
    2956:	3f3010ef          	jal	ra,4548 <__muldf3>
    295a:	862a                	mv	a2,a0
    295c:	86ae                	mv	a3,a1
    295e:	8522                	mv	a0,s0
    2960:	85a6                	mv	a1,s1
    2962:	09e020ef          	jal	ra,4a00 <__subdf3>
    2966:	862a                	mv	a2,a0
    2968:	86ae                	mv	a3,a1
    296a:	856a                	mv	a0,s10
    296c:	85ee                	mv	a1,s11
    296e:	092020ef          	jal	ra,4a00 <__subdf3>
    2972:	862a                	mv	a2,a0
    2974:	86ae                	mv	a3,a1
    2976:	855a                	mv	a0,s6
    2978:	85de                	mv	a1,s7
    297a:	086020ef          	jal	ra,4a00 <__subdf3>
    297e:	50f2                	lw	ra,60(sp)
    2980:	5462                	lw	s0,56(sp)
    2982:	54d2                	lw	s1,52(sp)
    2984:	5942                	lw	s2,48(sp)
    2986:	59b2                	lw	s3,44(sp)
    2988:	5a22                	lw	s4,40(sp)
    298a:	5a92                	lw	s5,36(sp)
    298c:	5b02                	lw	s6,32(sp)
    298e:	4bf2                	lw	s7,28(sp)
    2990:	4c62                	lw	s8,24(sp)
    2992:	4cd2                	lw	s9,20(sp)
    2994:	4d42                	lw	s10,16(sp)
    2996:	4db2                	lw	s11,12(sp)
    2998:	6121                	addi	sp,sp,64
    299a:	8082                	ret
    299c:	00004797          	auipc	a5,0x4
    29a0:	c4c78793          	addi	a5,a5,-948 # 65e8 <two_over_pi+0x108>
    29a4:	0007ab03          	lw	s6,0(a5)
    29a8:	0047ab83          	lw	s7,4(a5)
    29ac:	00004797          	auipc	a5,0x4
    29b0:	c4478793          	addi	a5,a5,-956 # 65f0 <two_over_pi+0x110>
    29b4:	0007ad03          	lw	s10,0(a5)
    29b8:	0047ad83          	lw	s11,4(a5)
    29bc:	b78d                	j	291e <__kernel_cos+0x20a>
    29be:	00004797          	auipc	a5,0x4
    29c2:	93278793          	addi	a5,a5,-1742 # 62f0 <_sbrk+0x2e>
    29c6:	4388                	lw	a0,0(a5)
    29c8:	43cc                	lw	a1,4(a5)
    29ca:	bf55                	j	297e <__kernel_cos+0x26a>

000029cc <__kernel_rem_pio2>:
__kernel_rem_pio2():
    29cc:	d5010113          	addi	sp,sp,-688
    29d0:	29312e23          	sw	s3,668(sp)
    29d4:	89b6                	mv	s3,a3
    29d6:	00271813          	slli	a6,a4,0x2
    29da:	dc3a                	sw	a4,56(sp)
    29dc:	d43e                	sw	a5,40(sp)
    29de:	00004717          	auipc	a4,0x4
    29e2:	caa70713          	addi	a4,a4,-854 # 6688 <init_jk>
    29e6:	fff98793          	addi	a5,s3,-1
    29ea:	27b12e23          	sw	s11,636(sp)
    29ee:	9742                	add	a4,a4,a6
    29f0:	2a112623          	sw	ra,684(sp)
    29f4:	2a812423          	sw	s0,680(sp)
    29f8:	2a912223          	sw	s1,676(sp)
    29fc:	2b212023          	sw	s2,672(sp)
    2a00:	29412c23          	sw	s4,664(sp)
    2a04:	29512a23          	sw	s5,660(sp)
    2a08:	29612823          	sw	s6,656(sp)
    2a0c:	29712623          	sw	s7,652(sp)
    2a10:	29812423          	sw	s8,648(sp)
    2a14:	29912223          	sw	s9,644(sp)
    2a18:	29a12023          	sw	s10,640(sp)
    2a1c:	56b1                	li	a3,-20
    2a1e:	d22a                	sw	a0,36(sp)
    2a20:	da2e                	sw	a1,52(sp)
    2a22:	c83e                	sw	a5,16(sp)
    2a24:	00072d83          	lw	s11,0(a4)
    2a28:	7ed64f63          	blt	a2,a3,3226 <__kernel_rem_pio2+0x85a>
    2a2c:	ffd60713          	addi	a4,a2,-3
    2a30:	47e1                	li	a5,24
    2a32:	02f747b3          	div	a5,a4,a5
    2a36:	d03e                	sw	a5,32(sp)
    2a38:	0785                	addi	a5,a5,1
    2a3a:	00279713          	slli	a4,a5,0x2
    2a3e:	8f99                	sub	a5,a5,a4
    2a40:	078e                	slli	a5,a5,0x3
    2a42:	5582                	lw	a1,32(sp)
    2a44:	fff98693          	addi	a3,s3,-1
    2a48:	00dd8733          	add	a4,s11,a3
    2a4c:	97b2                	add	a5,a5,a2
    2a4e:	40d58433          	sub	s0,a1,a3
    2a52:	00170913          	addi	s2,a4,1
    2a56:	ca3e                	sw	a5,20(sp)
    2a58:	0904                	addi	s1,sp,144
    2a5a:	9922                	add	s2,s2,s0
    2a5c:	02074363          	bltz	a4,2a82 <__kernel_rem_pio2+0xb6>
    2a60:	5a22                	lw	s4,40(sp)
    2a62:	00241793          	slli	a5,s0,0x2
    2a66:	97d2                	add	a5,a5,s4
    2a68:	4501                	li	a0,0
    2a6a:	4581                	li	a1,0
    2a6c:	00044563          	bltz	s0,2a76 <__kernel_rem_pio2+0xaa>
    2a70:	4388                	lw	a0,0(a5)
    2a72:	734020ef          	jal	ra,51a6 <__floatsidf>
    2a76:	c088                	sw	a0,0(s1)
    2a78:	c0cc                	sw	a1,4(s1)
    2a7a:	0405                	addi	s0,s0,1
    2a7c:	04a1                	addi	s1,s1,8
    2a7e:	ff2412e3          	bne	s0,s2,2a62 <__kernel_rem_pio2+0x96>
    2a82:	060dc463          	bltz	s11,2aea <__kernel_rem_pio2+0x11e>
    2a86:	4bc2                	lw	s7,16(sp)
    2a88:	5d12                	lw	s10,36(sp)
    2a8a:	091c                	addi	a5,sp,144
    2a8c:	003b9913          	slli	s2,s7,0x3
    2a90:	00890413          	addi	s0,s2,8
    2a94:	003d9a13          	slli	s4,s11,0x3
    2a98:	993e                	add	s2,s2,a5
    2a9a:	0bbc                	addi	a5,sp,472
    2a9c:	0b84                	addi	s1,sp,464
    2a9e:	9a3e                	add	s4,s4,a5
    2aa0:	946a                	add	s0,s0,s10
    2aa2:	8b4a                	mv	s6,s2
    2aa4:	8aea                	mv	s5,s10
    2aa6:	4c01                	li	s8,0
    2aa8:	4c81                	li	s9,0
    2aaa:	020bc863          	bltz	s7,2ada <__kernel_rem_pio2+0x10e>
    2aae:	000b2603          	lw	a2,0(s6)
    2ab2:	004b2683          	lw	a3,4(s6)
    2ab6:	000aa503          	lw	a0,0(s5)
    2aba:	004aa583          	lw	a1,4(s5)
    2abe:	0aa1                	addi	s5,s5,8
    2ac0:	1b61                	addi	s6,s6,-8
    2ac2:	287010ef          	jal	ra,4548 <__muldf3>
    2ac6:	862a                	mv	a2,a0
    2ac8:	86ae                	mv	a3,a1
    2aca:	8562                	mv	a0,s8
    2acc:	85e6                	mv	a1,s9
    2ace:	47f000ef          	jal	ra,374c <__adddf3>
    2ad2:	8c2a                	mv	s8,a0
    2ad4:	8cae                	mv	s9,a1
    2ad6:	fc8a9ce3          	bne	s5,s0,2aae <__kernel_rem_pio2+0xe2>
    2ada:	0184a023          	sw	s8,0(s1)
    2ade:	0194a223          	sw	s9,4(s1)
    2ae2:	04a1                	addi	s1,s1,8
    2ae4:	0921                	addi	s2,s2,8
    2ae6:	fb449ee3          	bne	s1,s4,2aa2 <__kernel_rem_pio2+0xd6>
    2aea:	002d9713          	slli	a4,s11,0x2
    2aee:	1870                	addi	a2,sp,60
    2af0:	ff870693          	addi	a3,a4,-8
    2af4:	00e60c33          	add	s8,a2,a4
    2af8:	0098                	addi	a4,sp,64
    2afa:	9736                	add	a4,a4,a3
    2afc:	d83a                	sw	a4,48(sp)
    2afe:	5712                	lw	a4,36(sp)
    2b00:	00399413          	slli	s0,s3,0x3
    2b04:	fffd8793          	addi	a5,s11,-1
    2b08:	943a                	add	s0,s0,a4
    2b0a:	20000737          	lui	a4,0x20000
    2b0e:	177d                	addi	a4,a4,-1
    2b10:	cc3a                	sw	a4,24(sp)
    2b12:	00800737          	lui	a4,0x800
    2b16:	177d                	addi	a4,a4,-1
    2b18:	078a                	slli	a5,a5,0x2
    2b1a:	de3a                	sw	a4,60(sp)
    2b1c:	1c98                	addi	a4,sp,624
    2b1e:	97ba                	add	a5,a5,a4
    2b20:	84ee                	mv	s1,s11
    2b22:	1d010d13          	addi	s10,sp,464
    2b26:	d63e                	sw	a5,44(sp)
    2b28:	ce6e                	sw	s11,28(sp)
    2b2a:	00349793          	slli	a5,s1,0x3
    2b2e:	1c98                	addi	a4,sp,624
    2b30:	97ba                	add	a5,a5,a4
    2b32:	f607aa03          	lw	s4,-160(a5)
    2b36:	f647aa83          	lw	s5,-156(a5)
    2b3a:	08905663          	blez	s1,2bc6 <__kernel_rem_pio2+0x1fa>
    2b3e:	47e2                	lw	a5,24(sp)
    2b40:	04010993          	addi	s3,sp,64
    2b44:	00f48933          	add	s2,s1,a5
    2b48:	00004797          	auipc	a5,0x4
    2b4c:	b2878793          	addi	a5,a5,-1240 # 6670 <PIo2+0x48>
    2b50:	0047a803          	lw	a6,4(a5)
    2b54:	439c                	lw	a5,0(a5)
    2b56:	090e                	slli	s2,s2,0x3
    2b58:	c242                	sw	a6,4(sp)
    2b5a:	c03e                	sw	a5,0(sp)
    2b5c:	00004797          	auipc	a5,0x4
    2b60:	8fc78793          	addi	a5,a5,-1796 # 6458 <original_vertices+0xf8>
    2b64:	0047a803          	lw	a6,4(a5)
    2b68:	439c                	lw	a5,0(a5)
    2b6a:	996a                	add	s2,s2,s10
    2b6c:	c642                	sw	a6,12(sp)
    2b6e:	c43e                	sw	a5,8(sp)
    2b70:	a011                	j	2b74 <__kernel_rem_pio2+0x1a8>
    2b72:	893e                	mv	s2,a5
    2b74:	4602                	lw	a2,0(sp)
    2b76:	4692                	lw	a3,4(sp)
    2b78:	8552                	mv	a0,s4
    2b7a:	85d6                	mv	a1,s5
    2b7c:	1cd010ef          	jal	ra,4548 <__muldf3>
    2b80:	5be020ef          	jal	ra,513e <__fixdfsi>
    2b84:	622020ef          	jal	ra,51a6 <__floatsidf>
    2b88:	4622                	lw	a2,8(sp)
    2b8a:	46b2                	lw	a3,12(sp)
    2b8c:	8b2a                	mv	s6,a0
    2b8e:	8bae                	mv	s7,a1
    2b90:	1b9010ef          	jal	ra,4548 <__muldf3>
    2b94:	862a                	mv	a2,a0
    2b96:	86ae                	mv	a3,a1
    2b98:	8552                	mv	a0,s4
    2b9a:	85d6                	mv	a1,s5
    2b9c:	665010ef          	jal	ra,4a00 <__subdf3>
    2ba0:	59e020ef          	jal	ra,513e <__fixdfsi>
    2ba4:	00092603          	lw	a2,0(s2)
    2ba8:	00492683          	lw	a3,4(s2)
    2bac:	00a9a023          	sw	a0,0(s3)
    2bb0:	85de                	mv	a1,s7
    2bb2:	855a                	mv	a0,s6
    2bb4:	399000ef          	jal	ra,374c <__adddf3>
    2bb8:	8a2a                	mv	s4,a0
    2bba:	8aae                	mv	s5,a1
    2bbc:	ff890793          	addi	a5,s2,-8
    2bc0:	0991                	addi	s3,s3,4
    2bc2:	fb2d18e3          	bne	s10,s2,2b72 <__kernel_rem_pio2+0x1a6>
    2bc6:	4b52                	lw	s6,20(sp)
    2bc8:	85d6                	mv	a1,s5
    2bca:	8552                	mv	a0,s4
    2bcc:	865a                	mv	a2,s6
    2bce:	22b000ef          	jal	ra,35f8 <scalbn>
    2bd2:	00004797          	auipc	a5,0x4
    2bd6:	aa678793          	addi	a5,a5,-1370 # 6678 <PIo2+0x50>
    2bda:	4390                	lw	a2,0(a5)
    2bdc:	43d4                	lw	a3,4(a5)
    2bde:	892a                	mv	s2,a0
    2be0:	89ae                	mv	s3,a1
    2be2:	167010ef          	jal	ra,4548 <__muldf3>
    2be6:	0c3000ef          	jal	ra,34a8 <floor>
    2bea:	00004797          	auipc	a5,0x4
    2bee:	a9678793          	addi	a5,a5,-1386 # 6680 <PIo2+0x58>
    2bf2:	4390                	lw	a2,0(a5)
    2bf4:	43d4                	lw	a3,4(a5)
    2bf6:	153010ef          	jal	ra,4548 <__muldf3>
    2bfa:	862a                	mv	a2,a0
    2bfc:	86ae                	mv	a3,a1
    2bfe:	854a                	mv	a0,s2
    2c00:	85ce                	mv	a1,s3
    2c02:	5ff010ef          	jal	ra,4a00 <__subdf3>
    2c06:	89ae                	mv	s3,a1
    2c08:	892a                	mv	s2,a0
    2c0a:	534020ef          	jal	ra,513e <__fixdfsi>
    2c0e:	8aaa                	mv	s5,a0
    2c10:	596020ef          	jal	ra,51a6 <__floatsidf>
    2c14:	862a                	mv	a2,a0
    2c16:	86ae                	mv	a3,a1
    2c18:	854a                	mv	a0,s2
    2c1a:	85ce                	mv	a1,s3
    2c1c:	5e5010ef          	jal	ra,4a00 <__subdf3>
    2c20:	892a                	mv	s2,a0
    2c22:	89ae                	mv	s3,a1
    2c24:	13605763          	blez	s6,2d52 <__kernel_rem_pio2+0x386>
    2c28:	fff48793          	addi	a5,s1,-1
    2c2c:	1c98                	addi	a4,sp,624
    2c2e:	078a                	slli	a5,a5,0x2
    2c30:	97ba                	add	a5,a5,a4
    2c32:	dd07aa03          	lw	s4,-560(a5)
    2c36:	4761                	li	a4,24
    2c38:	41670733          	sub	a4,a4,s6
    2c3c:	40ea56b3          	sra	a3,s4,a4
    2c40:	00e69733          	sll	a4,a3,a4
    2c44:	40ea0733          	sub	a4,s4,a4
    2c48:	4a5d                	li	s4,23
    2c4a:	416a0a33          	sub	s4,s4,s6
    2c4e:	dce7a823          	sw	a4,-560(a5)
    2c52:	41475a33          	sra	s4,a4,s4
    2c56:	9ab6                	add	s5,s5,a3
    2c58:	11404b63          	bgtz	s4,2d6e <__kernel_rem_pio2+0x3a2>
    2c5c:	4601                	li	a2,0
    2c5e:	4681                	li	a3,0
    2c60:	854a                	mv	a0,s2
    2c62:	85ce                	mv	a1,s3
    2c64:	7cc010ef          	jal	ra,4430 <__eqdf2>
    2c68:	1a051863          	bnez	a0,2e18 <__kernel_rem_pio2+0x44c>
    2c6c:	47f2                	lw	a5,28(sp)
    2c6e:	fff48613          	addi	a2,s1,-1
    2c72:	00f64f63          	blt	a2,a5,2c90 <__kernel_rem_pio2+0x2c4>
    2c76:	00249793          	slli	a5,s1,0x2
    2c7a:	0098                	addi	a4,sp,64
    2c7c:	17f1                	addi	a5,a5,-4
    2c7e:	97ba                	add	a5,a5,a4
    2c80:	4701                	li	a4,0
    2c82:	4394                	lw	a3,0(a5)
    2c84:	17f1                	addi	a5,a5,-4
    2c86:	8f55                	or	a4,a4,a3
    2c88:	ff879de3          	bne	a5,s8,2c82 <__kernel_rem_pio2+0x2b6>
    2c8c:	28071d63          	bnez	a4,2f26 <__kernel_rem_pio2+0x55a>
    2c90:	57b2                	lw	a5,44(sp)
    2c92:	dd07a783          	lw	a5,-560(a5)
    2c96:	28079363          	bnez	a5,2f1c <__kernel_rem_pio2+0x550>
    2c9a:	57c2                	lw	a5,48(sp)
    2c9c:	4705                	li	a4,1
    2c9e:	17f1                	addi	a5,a5,-4
    2ca0:	43d4                	lw	a3,4(a5)
    2ca2:	0705                	addi	a4,a4,1
    2ca4:	deed                	beqz	a3,2c9e <__kernel_rem_pio2+0x2d2>
    2ca6:	00148793          	addi	a5,s1,1
    2caa:	8abe                	mv	s5,a5
    2cac:	94ba                	add	s1,s1,a4
    2cae:	4742                	lw	a4,16(sp)
    2cb0:	5d92                	lw	s11,36(sp)
    2cb2:	c062                	sw	s8,0(sp)
    2cb4:	00f70933          	add	s2,a4,a5
    2cb8:	5702                	lw	a4,32(sp)
    2cba:	00f70a33          	add	s4,a4,a5
    2cbe:	4762                	lw	a4,24(sp)
    2cc0:	078e                	slli	a5,a5,0x3
    2cc2:	0a0a                	slli	s4,s4,0x2
    2cc4:	993a                	add	s2,s2,a4
    2cc6:	5722                	lw	a4,40(sp)
    2cc8:	090e                	slli	s2,s2,0x3
    2cca:	00fd09b3          	add	s3,s10,a5
    2cce:	091c                	addi	a5,sp,144
    2cd0:	9a3a                	add	s4,s4,a4
    2cd2:	993e                	add	s2,s2,a5
    2cd4:	000a2503          	lw	a0,0(s4)
    2cd8:	4ce020ef          	jal	ra,51a6 <__floatsidf>
    2cdc:	47c2                	lw	a5,16(sp)
    2cde:	00a92423          	sw	a0,8(s2)
    2ce2:	00b92623          	sw	a1,12(s2)
    2ce6:	0407c963          	bltz	a5,2d38 <__kernel_rem_pio2+0x36c>
    2cea:	8bca                	mv	s7,s2
    2cec:	8b6e                	mv	s6,s11
    2cee:	4c01                	li	s8,0
    2cf0:	4c81                	li	s9,0
    2cf2:	a031                	j	2cfe <__kernel_rem_pio2+0x332>
    2cf4:	000ba503          	lw	a0,0(s7) # ffff8000 <_eusrstack+0xdfff1800>
    2cf8:	004ba583          	lw	a1,4(s7)
    2cfc:	1be1                	addi	s7,s7,-8
    2cfe:	000b2603          	lw	a2,0(s6)
    2d02:	004b2683          	lw	a3,4(s6)
    2d06:	0b21                	addi	s6,s6,8
    2d08:	041010ef          	jal	ra,4548 <__muldf3>
    2d0c:	862a                	mv	a2,a0
    2d0e:	86ae                	mv	a3,a1
    2d10:	8562                	mv	a0,s8
    2d12:	85e6                	mv	a1,s9
    2d14:	239000ef          	jal	ra,374c <__adddf3>
    2d18:	8c2a                	mv	s8,a0
    2d1a:	8cae                	mv	s9,a1
    2d1c:	fc8b1ce3          	bne	s6,s0,2cf4 <__kernel_rem_pio2+0x328>
    2d20:	0189a023          	sw	s8,0(s3)
    2d24:	0199a223          	sw	s9,4(s3)
    2d28:	0a85                	addi	s5,s5,1
    2d2a:	0a11                	addi	s4,s4,4
    2d2c:	09a1                	addi	s3,s3,8
    2d2e:	0921                	addi	s2,s2,8
    2d30:	fb54d2e3          	bge	s1,s5,2cd4 <__kernel_rem_pio2+0x308>
    2d34:	4c02                	lw	s8,0(sp)
    2d36:	bbd5                	j	2b2a <__kernel_rem_pio2+0x15e>
    2d38:	4c01                	li	s8,0
    2d3a:	4c81                	li	s9,0
    2d3c:	0189a023          	sw	s8,0(s3)
    2d40:	0199a223          	sw	s9,4(s3)
    2d44:	0a85                	addi	s5,s5,1
    2d46:	0a11                	addi	s4,s4,4
    2d48:	09a1                	addi	s3,s3,8
    2d4a:	0921                	addi	s2,s2,8
    2d4c:	f954d4e3          	bge	s1,s5,2cd4 <__kernel_rem_pio2+0x308>
    2d50:	b7d5                	j	2d34 <__kernel_rem_pio2+0x368>
    2d52:	47d2                	lw	a5,20(sp)
    2d54:	18079863          	bnez	a5,2ee4 <__kernel_rem_pio2+0x518>
    2d58:	fff48793          	addi	a5,s1,-1
    2d5c:	078a                	slli	a5,a5,0x2
    2d5e:	1c98                	addi	a4,sp,624
    2d60:	97ba                	add	a5,a5,a4
    2d62:	dd07aa03          	lw	s4,-560(a5)
    2d66:	417a5a13          	srai	s4,s4,0x17
    2d6a:	ef4059e3          	blez	s4,2c5c <__kernel_rem_pio2+0x290>
    2d6e:	0a85                	addi	s5,s5,1
    2d70:	4a905f63          	blez	s1,322e <__kernel_rem_pio2+0x862>
    2d74:	4806                	lw	a6,64(sp)
    2d76:	4785                	li	a5,1
    2d78:	12081563          	bnez	a6,2ea2 <__kernel_rem_pio2+0x4d6>
    2d7c:	00f48e63          	beq	s1,a5,2d98 <__kernel_rem_pio2+0x3cc>
    2d80:	00d4                	addi	a3,sp,68
    2d82:	4705                	li	a4,1
    2d84:	0006a803          	lw	a6,0(a3) # 80000000 <_eusrstack+0x5fff9800>
    2d88:	00170793          	addi	a5,a4,1 # 800001 <_data_lma+0x7f9759>
    2d8c:	0691                	addi	a3,a3,4
    2d8e:	10081b63          	bnez	a6,2ea4 <__kernel_rem_pio2+0x4d8>
    2d92:	873e                	mv	a4,a5
    2d94:	fef498e3          	bne	s1,a5,2d84 <__kernel_rem_pio2+0x3b8>
    2d98:	4752                	lw	a4,20(sp)
    2d9a:	02e05363          	blez	a4,2dc0 <__kernel_rem_pio2+0x3f4>
    2d9e:	4785                	li	a5,1
    2da0:	46f70763          	beq	a4,a5,320e <__kernel_rem_pio2+0x842>
    2da4:	4789                	li	a5,2
    2da6:	00f71d63          	bne	a4,a5,2dc0 <__kernel_rem_pio2+0x3f4>
    2daa:	fff48793          	addi	a5,s1,-1
    2dae:	1c98                	addi	a4,sp,624
    2db0:	078a                	slli	a5,a5,0x2
    2db2:	97ba                	add	a5,a5,a4
    2db4:	dd07a703          	lw	a4,-560(a5)
    2db8:	072a                	slli	a4,a4,0xa
    2dba:	8329                	srli	a4,a4,0xa
    2dbc:	dce7a823          	sw	a4,-560(a5)
    2dc0:	4789                	li	a5,2
    2dc2:	e8fa1de3          	bne	s4,a5,2c5c <__kernel_rem_pio2+0x290>
    2dc6:	00003797          	auipc	a5,0x3
    2dca:	52a78793          	addi	a5,a5,1322 # 62f0 <_sbrk+0x2e>
    2dce:	4388                	lw	a0,0(a5)
    2dd0:	43cc                	lw	a1,4(a5)
    2dd2:	864a                	mv	a2,s2
    2dd4:	86ce                	mv	a3,s3
    2dd6:	c042                	sw	a6,0(sp)
    2dd8:	429010ef          	jal	ra,4a00 <__subdf3>
    2ddc:	4802                	lw	a6,0(sp)
    2dde:	892a                	mv	s2,a0
    2de0:	89ae                	mv	s3,a1
    2de2:	e6080de3          	beqz	a6,2c5c <__kernel_rem_pio2+0x290>
    2de6:	00003797          	auipc	a5,0x3
    2dea:	50a78793          	addi	a5,a5,1290 # 62f0 <_sbrk+0x2e>
    2dee:	4388                	lw	a0,0(a5)
    2df0:	43cc                	lw	a1,4(a5)
    2df2:	4652                	lw	a2,20(sp)
    2df4:	005000ef          	jal	ra,35f8 <scalbn>
    2df8:	862a                	mv	a2,a0
    2dfa:	86ae                	mv	a3,a1
    2dfc:	854a                	mv	a0,s2
    2dfe:	85ce                	mv	a1,s3
    2e00:	401010ef          	jal	ra,4a00 <__subdf3>
    2e04:	892a                	mv	s2,a0
    2e06:	89ae                	mv	s3,a1
    2e08:	4601                	li	a2,0
    2e0a:	4681                	li	a3,0
    2e0c:	854a                	mv	a0,s2
    2e0e:	85ce                	mv	a1,s3
    2e10:	620010ef          	jal	ra,4430 <__eqdf2>
    2e14:	e4050ce3          	beqz	a0,2c6c <__kernel_rem_pio2+0x2a0>
    2e18:	4d52                	lw	s10,20(sp)
    2e1a:	854a                	mv	a0,s2
    2e1c:	85ce                	mv	a1,s3
    2e1e:	41a00633          	neg	a2,s10
    2e22:	4df2                	lw	s11,28(sp)
    2e24:	7d4000ef          	jal	ra,35f8 <scalbn>
    2e28:	00003797          	auipc	a5,0x3
    2e2c:	63078793          	addi	a5,a5,1584 # 6458 <original_vertices+0xf8>
    2e30:	0007a903          	lw	s2,0(a5)
    2e34:	0047a983          	lw	s3,4(a5)
    2e38:	8c2a                	mv	s8,a0
    2e3a:	864a                	mv	a2,s2
    2e3c:	86ce                	mv	a3,s3
    2e3e:	8cae                	mv	s9,a1
    2e40:	65a010ef          	jal	ra,449a <__gedf2>
    2e44:	46054063          	bltz	a0,32a4 <__kernel_rem_pio2+0x8d8>
    2e48:	00004717          	auipc	a4,0x4
    2e4c:	82870713          	addi	a4,a4,-2008 # 6670 <PIo2+0x48>
    2e50:	4310                	lw	a2,0(a4)
    2e52:	4354                	lw	a3,4(a4)
    2e54:	8562                	mv	a0,s8
    2e56:	85e6                	mv	a1,s9
    2e58:	6f0010ef          	jal	ra,4548 <__muldf3>
    2e5c:	2e2020ef          	jal	ra,513e <__fixdfsi>
    2e60:	1c9c                	addi	a5,sp,624
    2e62:	00249413          	slli	s0,s1,0x2
    2e66:	943e                	add	s0,s0,a5
    2e68:	8baa                	mv	s7,a0
    2e6a:	33c020ef          	jal	ra,51a6 <__floatsidf>
    2e6e:	864a                	mv	a2,s2
    2e70:	86ce                	mv	a3,s3
    2e72:	6d6010ef          	jal	ra,4548 <__muldf3>
    2e76:	862a                	mv	a2,a0
    2e78:	86ae                	mv	a3,a1
    2e7a:	8562                	mv	a0,s8
    2e7c:	85e6                	mv	a1,s9
    2e7e:	383010ef          	jal	ra,4a00 <__subdf3>
    2e82:	2bc020ef          	jal	ra,513e <__fixdfsi>
    2e86:	00148b13          	addi	s6,s1,1
    2e8a:	1c98                	addi	a4,sp,624
    2e8c:	002b1793          	slli	a5,s6,0x2
    2e90:	97ba                	add	a5,a5,a4
    2e92:	dca42823          	sw	a0,-560(s0)
    2e96:	018d0713          	addi	a4,s10,24
    2e9a:	ca3a                	sw	a4,20(sp)
    2e9c:	dd77a823          	sw	s7,-560(a5)
    2ea0:	a855                	j	2f54 <__kernel_rem_pio2+0x588>
    2ea2:	4701                	li	a4,0
    2ea4:	070a                	slli	a4,a4,0x2
    2ea6:	01000637          	lui	a2,0x1000
    2eaa:	1c94                	addi	a3,sp,624
    2eac:	9736                	add	a4,a4,a3
    2eae:	41060833          	sub	a6,a2,a6
    2eb2:	dd072823          	sw	a6,-560(a4)
    2eb6:	0297d563          	bge	a5,s1,2ee0 <__kernel_rem_pio2+0x514>
    2eba:	078a                	slli	a5,a5,0x2
    2ebc:	00f68733          	add	a4,a3,a5
    2ec0:	008c                	addi	a1,sp,64
    2ec2:	00249693          	slli	a3,s1,0x2
    2ec6:	dd072703          	lw	a4,-560(a4)
    2eca:	97ae                	add	a5,a5,a1
    2ecc:	96ae                	add	a3,a3,a1
    2ece:	167d                	addi	a2,a2,-1
    2ed0:	a011                	j	2ed4 <__kernel_rem_pio2+0x508>
    2ed2:	4398                	lw	a4,0(a5)
    2ed4:	40e60733          	sub	a4,a2,a4
    2ed8:	c398                	sw	a4,0(a5)
    2eda:	0791                	addi	a5,a5,4
    2edc:	fed79be3          	bne	a5,a3,2ed2 <__kernel_rem_pio2+0x506>
    2ee0:	4805                	li	a6,1
    2ee2:	bd5d                	j	2d98 <__kernel_rem_pio2+0x3cc>
    2ee4:	00003797          	auipc	a5,0x3
    2ee8:	55c78793          	addi	a5,a5,1372 # 6440 <original_vertices+0xe0>
    2eec:	4390                	lw	a2,0(a5)
    2eee:	43d4                	lw	a3,4(a5)
    2ef0:	4a01                	li	s4,0
    2ef2:	5a8010ef          	jal	ra,449a <__gedf2>
    2ef6:	d60543e3          	bltz	a0,2c5c <__kernel_rem_pio2+0x290>
    2efa:	0a85                	addi	s5,s5,1
    2efc:	4a09                	li	s4,2
    2efe:	e6904be3          	bgtz	s1,2d74 <__kernel_rem_pio2+0x3a8>
    2f02:	00003797          	auipc	a5,0x3
    2f06:	3ee78793          	addi	a5,a5,1006 # 62f0 <_sbrk+0x2e>
    2f0a:	4388                	lw	a0,0(a5)
    2f0c:	43cc                	lw	a1,4(a5)
    2f0e:	864a                	mv	a2,s2
    2f10:	86ce                	mv	a3,s3
    2f12:	2ef010ef          	jal	ra,4a00 <__subdf3>
    2f16:	892a                	mv	s2,a0
    2f18:	89ae                	mv	s3,a1
    2f1a:	b389                	j	2c5c <__kernel_rem_pio2+0x290>
    2f1c:	00148793          	addi	a5,s1,1
    2f20:	8abe                	mv	s5,a5
    2f22:	84be                	mv	s1,a5
    2f24:	b369                	j	2cae <__kernel_rem_pio2+0x2e2>
    2f26:	1c98                	addi	a4,sp,624
    2f28:	00261793          	slli	a5,a2,0x2
    2f2c:	97ba                	add	a5,a5,a4
    2f2e:	4752                	lw	a4,20(sp)
    2f30:	dd07a783          	lw	a5,-560(a5)
    2f34:	4df2                	lw	s11,28(sp)
    2f36:	1721                	addi	a4,a4,-24
    2f38:	ca3a                	sw	a4,20(sp)
    2f3a:	8b32                	mv	s6,a2
    2f3c:	ef81                	bnez	a5,2f54 <__kernel_rem_pio2+0x588>
    2f3e:	00249793          	slli	a5,s1,0x2
    2f42:	17e1                	addi	a5,a5,-8
    2f44:	0094                	addi	a3,sp,64
    2f46:	97b6                	add	a5,a5,a3
    2f48:	17f1                	addi	a5,a5,-4
    2f4a:	43d4                	lw	a3,4(a5)
    2f4c:	1b7d                	addi	s6,s6,-1
    2f4e:	1721                	addi	a4,a4,-24
    2f50:	dee5                	beqz	a3,2f48 <__kernel_rem_pio2+0x57c>
    2f52:	ca3a                	sw	a4,20(sp)
    2f54:	00003797          	auipc	a5,0x3
    2f58:	39c78793          	addi	a5,a5,924 # 62f0 <_sbrk+0x2e>
    2f5c:	4388                	lw	a0,0(a5)
    2f5e:	43cc                	lw	a1,4(a5)
    2f60:	4652                	lw	a2,20(sp)
    2f62:	696000ef          	jal	ra,35f8 <scalbn>
    2f66:	842a                	mv	s0,a0
    2f68:	84ae                	mv	s1,a1
    2f6a:	380b4063          	bltz	s6,32ea <__kernel_rem_pio2+0x91e>
    2f6e:	003b1793          	slli	a5,s6,0x3
    2f72:	873e                	mv	a4,a5
    2f74:	0b94                	addi	a3,sp,464
    2f76:	00e68bb3          	add	s7,a3,a4
    2f7a:	c43e                	sw	a5,8(sp)
    2f7c:	00003717          	auipc	a4,0x3
    2f80:	6f470713          	addi	a4,a4,1780 # 6670 <PIo2+0x48>
    2f84:	002b1793          	slli	a5,s6,0x2
    2f88:	0094                	addi	a3,sp,64
    2f8a:	00f68cb3          	add	s9,a3,a5
    2f8e:	8c5e                	mv	s8,s7
    2f90:	00072903          	lw	s2,0(a4)
    2f94:	00472983          	lw	s3,4(a4)
    2f98:	a011                	j	2f9c <__kernel_rem_pio2+0x5d0>
    2f9a:	8cbe                	mv	s9,a5
    2f9c:	000ca503          	lw	a0,0(s9)
    2fa0:	1c61                	addi	s8,s8,-8
    2fa2:	204020ef          	jal	ra,51a6 <__floatsidf>
    2fa6:	8622                	mv	a2,s0
    2fa8:	86a6                	mv	a3,s1
    2faa:	59e010ef          	jal	ra,4548 <__muldf3>
    2fae:	00ac2423          	sw	a0,8(s8)
    2fb2:	00bc2623          	sw	a1,12(s8)
    2fb6:	8522                	mv	a0,s0
    2fb8:	85a6                	mv	a1,s1
    2fba:	864a                	mv	a2,s2
    2fbc:	86ce                	mv	a3,s3
    2fbe:	58a010ef          	jal	ra,4548 <__muldf3>
    2fc2:	0098                	addi	a4,sp,64
    2fc4:	842a                	mv	s0,a0
    2fc6:	84ae                	mv	s1,a1
    2fc8:	ffcc8793          	addi	a5,s9,-4
    2fcc:	fd9717e3          	bne	a4,s9,2f9a <__kernel_rem_pio2+0x5ce>
    2fd0:	1a1c                	addi	a5,sp,304
    2fd2:	c03e                	sw	a5,0(sp)
    2fd4:	8cee                	mv	s9,s11
    2fd6:	84be                	mv	s1,a5
    2fd8:	4401                	li	s0,0
    2fda:	060cc863          	bltz	s9,304a <__kernel_rem_pio2+0x67e>
    2fde:	00003797          	auipc	a5,0x3
    2fe2:	68a78793          	addi	a5,a5,1674 # 6668 <PIo2+0x40>
    2fe6:	00003c17          	auipc	s8,0x3
    2fea:	642c0c13          	addi	s8,s8,1602 # 6628 <PIo2>
    2fee:	89de                	mv	s3,s7
    2ff0:	4388                	lw	a0,0(a5)
    2ff2:	43cc                	lw	a1,4(a5)
    2ff4:	4d01                	li	s10,0
    2ff6:	4d81                	li	s11,0
    2ff8:	4901                	li	s2,0
    2ffa:	a809                	j	300c <__kernel_rem_pio2+0x640>
    2ffc:	0c21                	addi	s8,s8,8
    2ffe:	09a1                	addi	s3,s3,8
    3000:	03244763          	blt	s0,s2,302e <__kernel_rem_pio2+0x662>
    3004:	000c2503          	lw	a0,0(s8)
    3008:	004c2583          	lw	a1,4(s8)
    300c:	0009a603          	lw	a2,0(s3)
    3010:	0049a683          	lw	a3,4(s3)
    3014:	0905                	addi	s2,s2,1
    3016:	532010ef          	jal	ra,4548 <__muldf3>
    301a:	862a                	mv	a2,a0
    301c:	86ae                	mv	a3,a1
    301e:	856a                	mv	a0,s10
    3020:	85ee                	mv	a1,s11
    3022:	72a000ef          	jal	ra,374c <__adddf3>
    3026:	8d2a                	mv	s10,a0
    3028:	8dae                	mv	s11,a1
    302a:	fd2cd9e3          	bge	s9,s2,2ffc <__kernel_rem_pio2+0x630>
    302e:	01a4a023          	sw	s10,0(s1)
    3032:	01b4a223          	sw	s11,4(s1)
    3036:	0b98                	addi	a4,sp,464
    3038:	0405                	addi	s0,s0,1
    303a:	04a1                	addi	s1,s1,8
    303c:	ff8b8793          	addi	a5,s7,-8
    3040:	03770263          	beq	a4,s7,3064 <__kernel_rem_pio2+0x698>
    3044:	8bbe                	mv	s7,a5
    3046:	f80cdce3          	bgez	s9,2fde <__kernel_rem_pio2+0x612>
    304a:	4d01                	li	s10,0
    304c:	4d81                	li	s11,0
    304e:	01a4a023          	sw	s10,0(s1)
    3052:	01b4a223          	sw	s11,4(s1)
    3056:	0b98                	addi	a4,sp,464
    3058:	0405                	addi	s0,s0,1
    305a:	04a1                	addi	s1,s1,8
    305c:	ff8b8793          	addi	a5,s7,-8
    3060:	ff7712e3          	bne	a4,s7,3044 <__kernel_rem_pio2+0x678>
    3064:	5762                	lw	a4,56(sp)
    3066:	4789                	li	a5,2
    3068:	08e7c763          	blt	a5,a4,30f6 <__kernel_rem_pio2+0x72a>
    306c:	1ce04363          	bgtz	a4,3232 <__kernel_rem_pio2+0x866>
    3070:	e721                	bnez	a4,30b8 <__kernel_rem_pio2+0x6ec>
    3072:	47a2                	lw	a5,8(sp)
    3074:	4402                	lw	s0,0(sp)
    3076:	4501                	li	a0,0
    3078:	4581                	li	a1,0
    307a:	00f40cb3          	add	s9,s0,a5
    307e:	000ca603          	lw	a2,0(s9)
    3082:	004ca683          	lw	a3,4(s9)
    3086:	6c6000ef          	jal	ra,374c <__adddf3>
    308a:	ff8c8793          	addi	a5,s9,-8
    308e:	01940d63          	beq	s0,s9,30a8 <__kernel_rem_pio2+0x6dc>
    3092:	8cbe                	mv	s9,a5
    3094:	000ca603          	lw	a2,0(s9)
    3098:	004ca683          	lw	a3,4(s9)
    309c:	6b0000ef          	jal	ra,374c <__adddf3>
    30a0:	ff8c8793          	addi	a5,s9,-8
    30a4:	ff9417e3          	bne	s0,s9,3092 <__kernel_rem_pio2+0x6c6>
    30a8:	000a0563          	beqz	s4,30b2 <__kernel_rem_pio2+0x6e6>
    30ac:	800007b7          	lui	a5,0x80000
    30b0:	8dbd                	xor	a1,a1,a5
    30b2:	56d2                	lw	a3,52(sp)
    30b4:	c288                	sw	a0,0(a3)
    30b6:	c2cc                	sw	a1,4(a3)
    30b8:	2ac12083          	lw	ra,684(sp)
    30bc:	2a812403          	lw	s0,680(sp)
    30c0:	007af513          	andi	a0,s5,7
    30c4:	2a412483          	lw	s1,676(sp)
    30c8:	2a012903          	lw	s2,672(sp)
    30cc:	29c12983          	lw	s3,668(sp)
    30d0:	29812a03          	lw	s4,664(sp)
    30d4:	29412a83          	lw	s5,660(sp)
    30d8:	29012b03          	lw	s6,656(sp)
    30dc:	28c12b83          	lw	s7,652(sp)
    30e0:	28812c03          	lw	s8,648(sp)
    30e4:	28412c83          	lw	s9,644(sp)
    30e8:	28012d03          	lw	s10,640(sp)
    30ec:	27c12d83          	lw	s11,636(sp)
    30f0:	2b010113          	addi	sp,sp,688
    30f4:	8082                	ret
    30f6:	5762                	lw	a4,56(sp)
    30f8:	478d                	li	a5,3
    30fa:	faf71fe3          	bne	a4,a5,30b8 <__kernel_rem_pio2+0x6ec>
    30fe:	21605663          	blez	s6,330a <__kernel_rem_pio2+0x93e>
    3102:	003b1b93          	slli	s7,s6,0x3
    3106:	1c9c                	addi	a5,sp,624
    3108:	97de                	add	a5,a5,s7
    310a:	13010993          	addi	s3,sp,304
    310e:	ff8b8413          	addi	s0,s7,-8
    3112:	c04e                	sw	s3,0(sp)
    3114:	ec07ad83          	lw	s11,-320(a5) # 7ffffec0 <_eusrstack+0x5fff96c0>
    3118:	ec47ad03          	lw	s10,-316(a5)
    311c:	944e                	add	s0,s0,s3
    311e:	a011                	j	3122 <__kernel_rem_pio2+0x756>
    3120:	843e                	mv	s0,a5
    3122:	00042c03          	lw	s8,0(s0)
    3126:	00442c83          	lw	s9,4(s0)
    312a:	866e                	mv	a2,s11
    312c:	86ea                	mv	a3,s10
    312e:	8562                	mv	a0,s8
    3130:	85e6                	mv	a1,s9
    3132:	2d29                	jal	374c <__adddf3>
    3134:	892a                	mv	s2,a0
    3136:	84ae                	mv	s1,a1
    3138:	862a                	mv	a2,a0
    313a:	86ae                	mv	a3,a1
    313c:	8562                	mv	a0,s8
    313e:	85e6                	mv	a1,s9
    3140:	0c1010ef          	jal	ra,4a00 <__subdf3>
    3144:	866e                	mv	a2,s11
    3146:	86ea                	mv	a3,s10
    3148:	2511                	jal	374c <__adddf3>
    314a:	c408                	sw	a0,8(s0)
    314c:	c44c                	sw	a1,12(s0)
    314e:	01242023          	sw	s2,0(s0)
    3152:	c044                	sw	s1,4(s0)
    3154:	ff840793          	addi	a5,s0,-8
    3158:	8dca                	mv	s11,s2
    315a:	8d26                	mv	s10,s1
    315c:	fc8992e3          	bne	s3,s0,3120 <__kernel_rem_pio2+0x754>
    3160:	4785                	li	a5,1
    3162:	1b67d463          	bge	a5,s6,330a <__kernel_rem_pio2+0x93e>
    3166:	003b1413          	slli	s0,s6,0x3
    316a:	4b02                	lw	s6,0(sp)
    316c:	1c9c                	addi	a5,sp,624
    316e:	9bbe                	add	s7,s7,a5
    3170:	1461                	addi	s0,s0,-8
    3172:	ec0bad03          	lw	s10,-320(s7)
    3176:	008b04b3          	add	s1,s6,s0
    317a:	ec4bab83          	lw	s7,-316(s7)
    317e:	a011                	j	3182 <__kernel_rem_pio2+0x7b6>
    3180:	84be                	mv	s1,a5
    3182:	0004ac03          	lw	s8,0(s1)
    3186:	0044ac83          	lw	s9,4(s1)
    318a:	866a                	mv	a2,s10
    318c:	86de                	mv	a3,s7
    318e:	8562                	mv	a0,s8
    3190:	85e6                	mv	a1,s9
    3192:	2b6d                	jal	374c <__adddf3>
    3194:	89aa                	mv	s3,a0
    3196:	892e                	mv	s2,a1
    3198:	862a                	mv	a2,a0
    319a:	86ae                	mv	a3,a1
    319c:	8562                	mv	a0,s8
    319e:	85e6                	mv	a1,s9
    31a0:	061010ef          	jal	ra,4a00 <__subdf3>
    31a4:	866a                	mv	a2,s10
    31a6:	86de                	mv	a3,s7
    31a8:	2355                	jal	374c <__adddf3>
    31aa:	c488                	sw	a0,8(s1)
    31ac:	c4cc                	sw	a1,12(s1)
    31ae:	0134a023          	sw	s3,0(s1)
    31b2:	0124a223          	sw	s2,4(s1)
    31b6:	ff848793          	addi	a5,s1,-8
    31ba:	8d4e                	mv	s10,s3
    31bc:	8bca                	mv	s7,s2
    31be:	fcfb11e3          	bne	s6,a5,3180 <__kernel_rem_pio2+0x7b4>
    31c2:	4782                	lw	a5,0(sp)
    31c4:	0421                	addi	s0,s0,8
    31c6:	4501                	li	a0,0
    31c8:	00878933          	add	s2,a5,s0
    31cc:	4581                	li	a1,0
    31ce:	00092603          	lw	a2,0(s2)
    31d2:	00492683          	lw	a3,4(s2)
    31d6:	1961                	addi	s2,s2,-8
    31d8:	2b95                	jal	374c <__adddf3>
    31da:	ff249ae3          	bne	s1,s2,31ce <__kernel_rem_pio2+0x802>
    31de:	13012803          	lw	a6,304(sp)
    31e2:	13412703          	lw	a4,308(sp)
    31e6:	13812603          	lw	a2,312(sp)
    31ea:	13c12783          	lw	a5,316(sp)
    31ee:	0c0a1763          	bnez	s4,32bc <__kernel_rem_pio2+0x8f0>
    31f2:	88be                	mv	a7,a5
    31f4:	57d2                	lw	a5,52(sp)
    31f6:	8342                	mv	t1,a6
    31f8:	8832                	mv	a6,a2
    31fa:	0067a023          	sw	t1,0(a5)
    31fe:	c3d8                	sw	a4,4(a5)
    3200:	0107a423          	sw	a6,8(a5)
    3204:	0117a623          	sw	a7,12(a5)
    3208:	cb88                	sw	a0,16(a5)
    320a:	cbcc                	sw	a1,20(a5)
    320c:	b575                	j	30b8 <__kernel_rem_pio2+0x6ec>
    320e:	fff48793          	addi	a5,s1,-1
    3212:	1c98                	addi	a4,sp,624
    3214:	078a                	slli	a5,a5,0x2
    3216:	97ba                	add	a5,a5,a4
    3218:	dd07a703          	lw	a4,-560(a5)
    321c:	56f2                	lw	a3,60(sp)
    321e:	8f75                	and	a4,a4,a3
    3220:	dce7a823          	sw	a4,-560(a5)
    3224:	be71                	j	2dc0 <__kernel_rem_pio2+0x3f4>
    3226:	57a1                	li	a5,-24
    3228:	d002                	sw	zero,32(sp)
    322a:	819ff06f          	j	2a42 <__kernel_rem_pio2+0x76>
    322e:	4801                	li	a6,0
    3230:	b6a5                	j	2d98 <__kernel_rem_pio2+0x3cc>
    3232:	4702                	lw	a4,0(sp)
    3234:	47a2                	lw	a5,8(sp)
    3236:	4401                	li	s0,0
    3238:	4481                	li	s1,0
    323a:	00f70cb3          	add	s9,a4,a5
    323e:	87a2                	mv	a5,s0
    3240:	843a                	mv	s0,a4
    3242:	a011                	j	3246 <__kernel_rem_pio2+0x87a>
    3244:	8cba                	mv	s9,a4
    3246:	000ca603          	lw	a2,0(s9)
    324a:	004ca683          	lw	a3,4(s9)
    324e:	8526                	mv	a0,s1
    3250:	85be                	mv	a1,a5
    3252:	29ed                	jal	374c <__adddf3>
    3254:	ff8c8713          	addi	a4,s9,-8
    3258:	84aa                	mv	s1,a0
    325a:	87ae                	mv	a5,a1
    325c:	ff9414e3          	bne	s0,s9,3244 <__kernel_rem_pio2+0x878>
    3260:	842e                	mv	s0,a1
    3262:	13012503          	lw	a0,304(sp)
    3266:	13412583          	lw	a1,308(sp)
    326a:	8626                	mv	a2,s1
    326c:	86a2                	mv	a3,s0
    326e:	792010ef          	jal	ra,4a00 <__subdf3>
    3272:	060a1363          	bnez	s4,32d8 <__kernel_rem_pio2+0x90c>
    3276:	56d2                	lw	a3,52(sp)
    3278:	c284                	sw	s1,0(a3)
    327a:	c2c0                	sw	s0,4(a3)
    327c:	03605063          	blez	s6,329c <__kernel_rem_pio2+0x8d0>
    3280:	1a24                	addi	s1,sp,312
    3282:	4405                	li	s0,1
    3284:	4090                	lw	a2,0(s1)
    3286:	40d4                	lw	a3,4(s1)
    3288:	0405                	addi	s0,s0,1
    328a:	04a1                	addi	s1,s1,8
    328c:	21c1                	jal	374c <__adddf3>
    328e:	fe8b5be3          	bge	s6,s0,3284 <__kernel_rem_pio2+0x8b8>
    3292:	000a0563          	beqz	s4,329c <__kernel_rem_pio2+0x8d0>
    3296:	800007b7          	lui	a5,0x80000
    329a:	8dbd                	xor	a1,a1,a5
    329c:	56d2                	lw	a3,52(sp)
    329e:	c688                	sw	a0,8(a3)
    32a0:	c6cc                	sw	a1,12(a3)
    32a2:	bd19                	j	30b8 <__kernel_rem_pio2+0x6ec>
    32a4:	1c9c                	addi	a5,sp,624
    32a6:	00249413          	slli	s0,s1,0x2
    32aa:	8562                	mv	a0,s8
    32ac:	85e6                	mv	a1,s9
    32ae:	943e                	add	s0,s0,a5
    32b0:	68f010ef          	jal	ra,513e <__fixdfsi>
    32b4:	dca42823          	sw	a0,-560(s0)
    32b8:	8b26                	mv	s6,s1
    32ba:	b969                	j	2f54 <__kernel_rem_pio2+0x588>
    32bc:	800006b7          	lui	a3,0x80000
    32c0:	8f35                	xor	a4,a4,a3
    32c2:	8fb5                	xor	a5,a5,a3
    32c4:	8ead                	xor	a3,a3,a1
    32c6:	55d2                	lw	a1,52(sp)
    32c8:	0105a023          	sw	a6,0(a1) # 7f000 <_data_lma+0x78758>
    32cc:	c1d8                	sw	a4,4(a1)
    32ce:	c590                	sw	a2,8(a1)
    32d0:	c5dc                	sw	a5,12(a1)
    32d2:	c988                	sw	a0,16(a1)
    32d4:	c9d4                	sw	a3,20(a1)
    32d6:	b3cd                	j	30b8 <__kernel_rem_pio2+0x6ec>
    32d8:	800007b7          	lui	a5,0x80000
    32dc:	8c3d                	xor	s0,s0,a5
    32de:	57d2                	lw	a5,52(sp)
    32e0:	c384                	sw	s1,0(a5)
    32e2:	c3c0                	sw	s0,4(a5)
    32e4:	f9604ee3          	bgtz	s6,3280 <__kernel_rem_pio2+0x8b4>
    32e8:	b77d                	j	3296 <__kernel_rem_pio2+0x8ca>
    32ea:	5762                	lw	a4,56(sp)
    32ec:	4789                	li	a5,2
    32ee:	e0e7c4e3          	blt	a5,a4,30f6 <__kernel_rem_pio2+0x72a>
    32f2:	00e04963          	bgtz	a4,3304 <__kernel_rem_pio2+0x938>
    32f6:	4501                	li	a0,0
    32f8:	4581                	li	a1,0
    32fa:	da071fe3          	bnez	a4,30b8 <__kernel_rem_pio2+0x6ec>
    32fe:	da0a0ae3          	beqz	s4,30b2 <__kernel_rem_pio2+0x6e6>
    3302:	b36d                	j	30ac <__kernel_rem_pio2+0x6e0>
    3304:	4481                	li	s1,0
    3306:	4401                	li	s0,0
    3308:	bfa9                	j	3262 <__kernel_rem_pio2+0x896>
    330a:	4501                	li	a0,0
    330c:	4581                	li	a1,0
    330e:	bdc1                	j	31de <__kernel_rem_pio2+0x812>

00003310 <__kernel_sin>:
__kernel_sin():
    3310:	7139                	addi	sp,sp,-64
    3312:	00159793          	slli	a5,a1,0x1
    3316:	dc22                	sw	s0,56(sp)
    3318:	da26                	sw	s1,52(sp)
    331a:	d452                	sw	s4,40(sp)
    331c:	d256                	sw	s5,36(sp)
    331e:	cc62                	sw	s8,24(sp)
    3320:	de06                	sw	ra,60(sp)
    3322:	d84a                	sw	s2,48(sp)
    3324:	d64e                	sw	s3,44(sp)
    3326:	d05a                	sw	s6,32(sp)
    3328:	ce5e                	sw	s7,28(sp)
    332a:	ca66                	sw	s9,20(sp)
    332c:	c86a                	sw	s10,16(sp)
    332e:	c66e                	sw	s11,12(sp)
    3330:	8385                	srli	a5,a5,0x1
    3332:	3e400837          	lui	a6,0x3e400
    3336:	842e                	mv	s0,a1
    3338:	84aa                	mv	s1,a0
    333a:	8a32                	mv	s4,a2
    333c:	8ab6                	mv	s5,a3
    333e:	8c3a                	mv	s8,a4
    3340:	0107d763          	bge	a5,a6,334e <__kernel_sin+0x3e>
    3344:	5fb010ef          	jal	ra,513e <__fixdfsi>
    3348:	8726                	mv	a4,s1
    334a:	87a2                	mv	a5,s0
    334c:	c161                	beqz	a0,340c <__kernel_sin+0xfc>
    334e:	8626                	mv	a2,s1
    3350:	86a2                	mv	a3,s0
    3352:	8526                	mv	a0,s1
    3354:	85a2                	mv	a1,s0
    3356:	1f2010ef          	jal	ra,4548 <__muldf3>
    335a:	892a                	mv	s2,a0
    335c:	89ae                	mv	s3,a1
    335e:	862a                	mv	a2,a0
    3360:	86ae                	mv	a3,a1
    3362:	8526                	mv	a0,s1
    3364:	85a2                	mv	a1,s0
    3366:	1e2010ef          	jal	ra,4548 <__muldf3>
    336a:	00003797          	auipc	a5,0x3
    336e:	32e78793          	addi	a5,a5,814 # 6698 <init_jk+0x10>
    3372:	4390                	lw	a2,0(a5)
    3374:	43d4                	lw	a3,4(a5)
    3376:	8b2a                	mv	s6,a0
    3378:	8bae                	mv	s7,a1
    337a:	854a                	mv	a0,s2
    337c:	85ce                	mv	a1,s3
    337e:	1ca010ef          	jal	ra,4548 <__muldf3>
    3382:	00003797          	auipc	a5,0x3
    3386:	31e78793          	addi	a5,a5,798 # 66a0 <init_jk+0x18>
    338a:	4390                	lw	a2,0(a5)
    338c:	43d4                	lw	a3,4(a5)
    338e:	672010ef          	jal	ra,4a00 <__subdf3>
    3392:	864a                	mv	a2,s2
    3394:	86ce                	mv	a3,s3
    3396:	1b2010ef          	jal	ra,4548 <__muldf3>
    339a:	00003797          	auipc	a5,0x3
    339e:	30e78793          	addi	a5,a5,782 # 66a8 <init_jk+0x20>
    33a2:	4390                	lw	a2,0(a5)
    33a4:	43d4                	lw	a3,4(a5)
    33a6:	265d                	jal	374c <__adddf3>
    33a8:	864a                	mv	a2,s2
    33aa:	86ce                	mv	a3,s3
    33ac:	19c010ef          	jal	ra,4548 <__muldf3>
    33b0:	00003797          	auipc	a5,0x3
    33b4:	30078793          	addi	a5,a5,768 # 66b0 <init_jk+0x28>
    33b8:	4390                	lw	a2,0(a5)
    33ba:	43d4                	lw	a3,4(a5)
    33bc:	644010ef          	jal	ra,4a00 <__subdf3>
    33c0:	864a                	mv	a2,s2
    33c2:	86ce                	mv	a3,s3
    33c4:	184010ef          	jal	ra,4548 <__muldf3>
    33c8:	00003797          	auipc	a5,0x3
    33cc:	2f078793          	addi	a5,a5,752 # 66b8 <init_jk+0x30>
    33d0:	4390                	lw	a2,0(a5)
    33d2:	43d4                	lw	a3,4(a5)
    33d4:	2ea5                	jal	374c <__adddf3>
    33d6:	8d2a                	mv	s10,a0
    33d8:	8dae                	mv	s11,a1
    33da:	040c1a63          	bnez	s8,342e <__kernel_sin+0x11e>
    33de:	862a                	mv	a2,a0
    33e0:	86ae                	mv	a3,a1
    33e2:	854a                	mv	a0,s2
    33e4:	85ce                	mv	a1,s3
    33e6:	162010ef          	jal	ra,4548 <__muldf3>
    33ea:	00003797          	auipc	a5,0x3
    33ee:	2d678793          	addi	a5,a5,726 # 66c0 <init_jk+0x38>
    33f2:	4390                	lw	a2,0(a5)
    33f4:	43d4                	lw	a3,4(a5)
    33f6:	60a010ef          	jal	ra,4a00 <__subdf3>
    33fa:	865a                	mv	a2,s6
    33fc:	86de                	mv	a3,s7
    33fe:	14a010ef          	jal	ra,4548 <__muldf3>
    3402:	8626                	mv	a2,s1
    3404:	86a2                	mv	a3,s0
    3406:	2699                	jal	374c <__adddf3>
    3408:	872a                	mv	a4,a0
    340a:	87ae                	mv	a5,a1
    340c:	50f2                	lw	ra,60(sp)
    340e:	5462                	lw	s0,56(sp)
    3410:	54d2                	lw	s1,52(sp)
    3412:	5942                	lw	s2,48(sp)
    3414:	59b2                	lw	s3,44(sp)
    3416:	5a22                	lw	s4,40(sp)
    3418:	5a92                	lw	s5,36(sp)
    341a:	5b02                	lw	s6,32(sp)
    341c:	4bf2                	lw	s7,28(sp)
    341e:	4c62                	lw	s8,24(sp)
    3420:	4cd2                	lw	s9,20(sp)
    3422:	4d42                	lw	s10,16(sp)
    3424:	4db2                	lw	s11,12(sp)
    3426:	853a                	mv	a0,a4
    3428:	85be                	mv	a1,a5
    342a:	6121                	addi	sp,sp,64
    342c:	8082                	ret
    342e:	00003797          	auipc	a5,0x3
    3432:	01278793          	addi	a5,a5,18 # 6440 <original_vertices+0xe0>
    3436:	4390                	lw	a2,0(a5)
    3438:	43d4                	lw	a3,4(a5)
    343a:	8552                	mv	a0,s4
    343c:	85d6                	mv	a1,s5
    343e:	10a010ef          	jal	ra,4548 <__muldf3>
    3442:	8c2a                	mv	s8,a0
    3444:	8cae                	mv	s9,a1
    3446:	866a                	mv	a2,s10
    3448:	86ee                	mv	a3,s11
    344a:	855a                	mv	a0,s6
    344c:	85de                	mv	a1,s7
    344e:	0fa010ef          	jal	ra,4548 <__muldf3>
    3452:	862a                	mv	a2,a0
    3454:	86ae                	mv	a3,a1
    3456:	8562                	mv	a0,s8
    3458:	85e6                	mv	a1,s9
    345a:	5a6010ef          	jal	ra,4a00 <__subdf3>
    345e:	864a                	mv	a2,s2
    3460:	86ce                	mv	a3,s3
    3462:	0e6010ef          	jal	ra,4548 <__muldf3>
    3466:	8652                	mv	a2,s4
    3468:	86d6                	mv	a3,s5
    346a:	596010ef          	jal	ra,4a00 <__subdf3>
    346e:	00003797          	auipc	a5,0x3
    3472:	25278793          	addi	a5,a5,594 # 66c0 <init_jk+0x38>
    3476:	4390                	lw	a2,0(a5)
    3478:	43d4                	lw	a3,4(a5)
    347a:	892a                	mv	s2,a0
    347c:	89ae                	mv	s3,a1
    347e:	855a                	mv	a0,s6
    3480:	85de                	mv	a1,s7
    3482:	0c6010ef          	jal	ra,4548 <__muldf3>
    3486:	862a                	mv	a2,a0
    3488:	86ae                	mv	a3,a1
    348a:	854a                	mv	a0,s2
    348c:	85ce                	mv	a1,s3
    348e:	2c7d                	jal	374c <__adddf3>
    3490:	862a                	mv	a2,a0
    3492:	86ae                	mv	a3,a1
    3494:	8526                	mv	a0,s1
    3496:	85a2                	mv	a1,s0
    3498:	568010ef          	jal	ra,4a00 <__subdf3>
    349c:	872a                	mv	a4,a0
    349e:	87ae                	mv	a5,a1
    34a0:	b7b5                	j	340c <__kernel_sin+0xfc>

000034a2 <fabs>:
fabs():
    34a2:	0586                	slli	a1,a1,0x1
    34a4:	8185                	srli	a1,a1,0x1
    34a6:	8082                	ret

000034a8 <floor>:
floor():
    34a8:	4145d793          	srai	a5,a1,0x14
    34ac:	1101                	addi	sp,sp,-32
    34ae:	7ff7f793          	andi	a5,a5,2047
    34b2:	cc22                	sw	s0,24(sp)
    34b4:	ca26                	sw	s1,20(sp)
    34b6:	c84a                	sw	s2,16(sp)
    34b8:	c64e                	sw	s3,12(sp)
    34ba:	c452                	sw	s4,8(sp)
    34bc:	ce06                	sw	ra,28(sp)
    34be:	c256                	sw	s5,4(sp)
    34c0:	c05a                	sw	s6,0(sp)
    34c2:	c0178493          	addi	s1,a5,-1023
    34c6:	474d                	li	a4,19
    34c8:	842e                	mv	s0,a1
    34ca:	89aa                	mv	s3,a0
    34cc:	892e                	mv	s2,a1
    34ce:	8a2a                	mv	s4,a0
    34d0:	08974863          	blt	a4,s1,3560 <floor+0xb8>
    34d4:	0604c463          	bltz	s1,353c <floor+0x94>
    34d8:	00100b37          	lui	s6,0x100
    34dc:	fffb0a93          	addi	s5,s6,-1 # fffff <_data_lma+0xf9757>
    34e0:	409adab3          	sra	s5,s5,s1
    34e4:	00baf7b3          	and	a5,s5,a1
    34e8:	8fc9                	or	a5,a5,a0
    34ea:	86aa                	mv	a3,a0
    34ec:	872e                	mv	a4,a1
    34ee:	cb9d                	beqz	a5,3524 <floor+0x7c>
    34f0:	00003797          	auipc	a5,0x3
    34f4:	1d878793          	addi	a5,a5,472 # 66c8 <init_jk+0x40>
    34f8:	4390                	lw	a2,0(a5)
    34fa:	43d4                	lw	a3,4(a5)
    34fc:	2c81                	jal	374c <__adddf3>
    34fe:	4601                	li	a2,0
    3500:	4681                	li	a3,0
    3502:	799000ef          	jal	ra,449a <__gedf2>
    3506:	00a05d63          	blez	a0,3520 <floor+0x78>
    350a:	00045663          	bgez	s0,3516 <floor+0x6e>
    350e:	409b54b3          	sra	s1,s6,s1
    3512:	00848933          	add	s2,s1,s0
    3516:	fffaca93          	not	s5,s5
    351a:	01597933          	and	s2,s2,s5
    351e:	4a01                	li	s4,0
    3520:	86d2                	mv	a3,s4
    3522:	874a                	mv	a4,s2
    3524:	40f2                	lw	ra,28(sp)
    3526:	4462                	lw	s0,24(sp)
    3528:	44d2                	lw	s1,20(sp)
    352a:	4942                	lw	s2,16(sp)
    352c:	49b2                	lw	s3,12(sp)
    352e:	4a22                	lw	s4,8(sp)
    3530:	4a92                	lw	s5,4(sp)
    3532:	4b02                	lw	s6,0(sp)
    3534:	8536                	mv	a0,a3
    3536:	85ba                	mv	a1,a4
    3538:	6105                	addi	sp,sp,32
    353a:	8082                	ret
    353c:	00003797          	auipc	a5,0x3
    3540:	18c78793          	addi	a5,a5,396 # 66c8 <init_jk+0x40>
    3544:	4390                	lw	a2,0(a5)
    3546:	43d4                	lw	a3,4(a5)
    3548:	2411                	jal	374c <__adddf3>
    354a:	4601                	li	a2,0
    354c:	4681                	li	a3,0
    354e:	74d000ef          	jal	ra,449a <__gedf2>
    3552:	fca057e3          	blez	a0,3520 <floor+0x78>
    3556:	06044363          	bltz	s0,35bc <floor+0x114>
    355a:	4a01                	li	s4,0
    355c:	4901                	li	s2,0
    355e:	b7c9                	j	3520 <floor+0x78>
    3560:	03300713          	li	a4,51
    3564:	00975e63          	bge	a4,s1,3580 <floor+0xd8>
    3568:	40000793          	li	a5,1024
    356c:	86aa                	mv	a3,a0
    356e:	872e                	mv	a4,a1
    3570:	faf49ae3          	bne	s1,a5,3524 <floor+0x7c>
    3574:	86ae                	mv	a3,a1
    3576:	862a                	mv	a2,a0
    3578:	2ad1                	jal	374c <__adddf3>
    357a:	86aa                	mv	a3,a0
    357c:	872e                	mv	a4,a1
    357e:	b75d                	j	3524 <floor+0x7c>
    3580:	bed78793          	addi	a5,a5,-1043
    3584:	5afd                	li	s5,-1
    3586:	00fadab3          	srl	s5,s5,a5
    358a:	00aaf7b3          	and	a5,s5,a0
    358e:	86aa                	mv	a3,a0
    3590:	872e                	mv	a4,a1
    3592:	dbc9                	beqz	a5,3524 <floor+0x7c>
    3594:	00003797          	auipc	a5,0x3
    3598:	13478793          	addi	a5,a5,308 # 66c8 <init_jk+0x40>
    359c:	4390                	lw	a2,0(a5)
    359e:	43d4                	lw	a3,4(a5)
    35a0:	2275                	jal	374c <__adddf3>
    35a2:	4601                	li	a2,0
    35a4:	4681                	li	a3,0
    35a6:	6f5000ef          	jal	ra,449a <__gedf2>
    35aa:	f6a05be3          	blez	a0,3520 <floor+0x78>
    35ae:	02044063          	bltz	s0,35ce <floor+0x126>
    35b2:	fffac793          	not	a5,s5
    35b6:	00fa7a33          	and	s4,s4,a5
    35ba:	b79d                	j	3520 <floor+0x78>
    35bc:	0406                	slli	s0,s0,0x1
    35be:	8005                	srli	s0,s0,0x1
    35c0:	01346433          	or	s0,s0,s3
    35c4:	4a01                	li	s4,0
    35c6:	dc29                	beqz	s0,3520 <floor+0x78>
    35c8:	bff00937          	lui	s2,0xbff00
    35cc:	bf91                	j	3520 <floor+0x78>
    35ce:	47d1                	li	a5,20
    35d0:	00f48f63          	beq	s1,a5,35ee <floor+0x146>
    35d4:	03400793          	li	a5,52
    35d8:	8f85                	sub	a5,a5,s1
    35da:	4485                	li	s1,1
    35dc:	00f494b3          	sll	s1,s1,a5
    35e0:	99a6                	add	s3,s3,s1
    35e2:	0149f963          	bgeu	s3,s4,35f4 <floor+0x14c>
    35e6:	00140913          	addi	s2,s0,1
    35ea:	8a4e                	mv	s4,s3
    35ec:	b7d9                	j	35b2 <floor+0x10a>
    35ee:	00140913          	addi	s2,s0,1
    35f2:	b7c1                	j	35b2 <floor+0x10a>
    35f4:	8a4e                	mv	s4,s3
    35f6:	bf75                	j	35b2 <floor+0x10a>

000035f8 <scalbn>:
scalbn():
    35f8:	1141                	addi	sp,sp,-16
    35fa:	4145d793          	srai	a5,a1,0x14
    35fe:	c422                	sw	s0,8(sp)
    3600:	c606                	sw	ra,12(sp)
    3602:	c226                	sw	s1,4(sp)
    3604:	7ff7f793          	andi	a5,a5,2047
    3608:	872e                	mv	a4,a1
    360a:	86aa                	mv	a3,a0
    360c:	8432                	mv	s0,a2
    360e:	e7c1                	bnez	a5,3696 <scalbn+0x9e>
    3610:	00159793          	slli	a5,a1,0x1
    3614:	8385                	srli	a5,a5,0x1
    3616:	8fc9                	or	a5,a5,a0
    3618:	cba5                	beqz	a5,3688 <scalbn+0x90>
    361a:	00003797          	auipc	a5,0x3
    361e:	0b678793          	addi	a5,a5,182 # 66d0 <init_jk+0x48>
    3622:	43d4                	lw	a3,4(a5)
    3624:	4390                	lw	a2,0(a5)
    3626:	723000ef          	jal	ra,4548 <__muldf3>
    362a:	77d1                	lui	a5,0xffff4
    362c:	cb078793          	addi	a5,a5,-848 # ffff3cb0 <_eusrstack+0xdffed4b0>
    3630:	86aa                	mv	a3,a0
    3632:	872e                	mv	a4,a1
    3634:	0ef44063          	blt	s0,a5,3714 <scalbn+0x11c>
    3638:	4145d793          	srai	a5,a1,0x14
    363c:	7ff7f793          	andi	a5,a5,2047
    3640:	862e                	mv	a2,a1
    3642:	fca78793          	addi	a5,a5,-54
    3646:	97a2                	add	a5,a5,s0
    3648:	7fe00593          	li	a1,2046
    364c:	0af5c263          	blt	a1,a5,36f0 <scalbn+0xf8>
    3650:	0af04563          	bgtz	a5,36fa <scalbn+0x102>
    3654:	fcb00593          	li	a1,-53
    3658:	06b7d063          	bge	a5,a1,36b8 <scalbn+0xc0>
    365c:	67b1                	lui	a5,0xc
    365e:	35078793          	addi	a5,a5,848 # c350 <_data_lma+0x5aa8>
    3662:	0887c763          	blt	a5,s0,36f0 <scalbn+0xf8>
    3666:	00003797          	auipc	a5,0x3
    366a:	07278793          	addi	a5,a5,114 # 66d8 <init_jk+0x50>
    366e:	4380                	lw	s0,0(a5)
    3670:	43c4                	lw	s1,4(a5)
    3672:	8636                	mv	a2,a3
    3674:	8522                	mv	a0,s0
    3676:	86ba                	mv	a3,a4
    3678:	85a6                	mv	a1,s1
    367a:	2875                	jal	3736 <copysign>
    367c:	86a6                	mv	a3,s1
    367e:	8622                	mv	a2,s0
    3680:	6c9000ef          	jal	ra,4548 <__muldf3>
    3684:	86aa                	mv	a3,a0
    3686:	872e                	mv	a4,a1
    3688:	40b2                	lw	ra,12(sp)
    368a:	4422                	lw	s0,8(sp)
    368c:	4492                	lw	s1,4(sp)
    368e:	8536                	mv	a0,a3
    3690:	85ba                	mv	a1,a4
    3692:	0141                	addi	sp,sp,16
    3694:	8082                	ret
    3696:	7ff00813          	li	a6,2047
    369a:	862e                	mv	a2,a1
    369c:	fb0795e3          	bne	a5,a6,3646 <scalbn+0x4e>
    36a0:	86ae                	mv	a3,a1
    36a2:	862a                	mv	a2,a0
    36a4:	2065                	jal	374c <__adddf3>
    36a6:	40b2                	lw	ra,12(sp)
    36a8:	4422                	lw	s0,8(sp)
    36aa:	86aa                	mv	a3,a0
    36ac:	872e                	mv	a4,a1
    36ae:	4492                	lw	s1,4(sp)
    36b0:	8536                	mv	a0,a3
    36b2:	85ba                	mv	a1,a4
    36b4:	0141                	addi	sp,sp,16
    36b6:	8082                	ret
    36b8:	80100737          	lui	a4,0x80100
    36bc:	177d                	addi	a4,a4,-1
    36be:	03678793          	addi	a5,a5,54
    36c2:	8e79                	and	a2,a2,a4
    36c4:	07d2                	slli	a5,a5,0x14
    36c6:	00003717          	auipc	a4,0x3
    36ca:	01a70713          	addi	a4,a4,26 # 66e0 <init_jk+0x58>
    36ce:	85b6                	mv	a1,a3
    36d0:	8fd1                	or	a5,a5,a2
    36d2:	4354                	lw	a3,4(a4)
    36d4:	4310                	lw	a2,0(a4)
    36d6:	852e                	mv	a0,a1
    36d8:	85be                	mv	a1,a5
    36da:	66f000ef          	jal	ra,4548 <__muldf3>
    36de:	40b2                	lw	ra,12(sp)
    36e0:	4422                	lw	s0,8(sp)
    36e2:	86aa                	mv	a3,a0
    36e4:	872e                	mv	a4,a1
    36e6:	4492                	lw	s1,4(sp)
    36e8:	8536                	mv	a0,a3
    36ea:	85ba                	mv	a1,a4
    36ec:	0141                	addi	sp,sp,16
    36ee:	8082                	ret
    36f0:	00003797          	auipc	a5,0x3
    36f4:	fd878793          	addi	a5,a5,-40 # 66c8 <init_jk+0x40>
    36f8:	bf9d                	j	366e <scalbn+0x76>
    36fa:	80100737          	lui	a4,0x80100
    36fe:	40b2                	lw	ra,12(sp)
    3700:	4422                	lw	s0,8(sp)
    3702:	177d                	addi	a4,a4,-1
    3704:	8f71                	and	a4,a4,a2
    3706:	07d2                	slli	a5,a5,0x14
    3708:	8f5d                	or	a4,a4,a5
    370a:	4492                	lw	s1,4(sp)
    370c:	8536                	mv	a0,a3
    370e:	85ba                	mv	a1,a4
    3710:	0141                	addi	sp,sp,16
    3712:	8082                	ret
    3714:	00003797          	auipc	a5,0x3
    3718:	fc478793          	addi	a5,a5,-60 # 66d8 <init_jk+0x50>
    371c:	43d4                	lw	a3,4(a5)
    371e:	4390                	lw	a2,0(a5)
    3720:	629000ef          	jal	ra,4548 <__muldf3>
    3724:	40b2                	lw	ra,12(sp)
    3726:	4422                	lw	s0,8(sp)
    3728:	86aa                	mv	a3,a0
    372a:	872e                	mv	a4,a1
    372c:	4492                	lw	s1,4(sp)
    372e:	8536                	mv	a0,a3
    3730:	85ba                	mv	a1,a4
    3732:	0141                	addi	sp,sp,16
    3734:	8082                	ret

00003736 <copysign>:
copysign():
    3736:	80000737          	lui	a4,0x80000
    373a:	fff74793          	not	a5,a4
    373e:	8ef9                	and	a3,a3,a4
    3740:	8fed                	and	a5,a5,a1
    3742:	872a                	mv	a4,a0
    3744:	8fd5                	or	a5,a5,a3
    3746:	853a                	mv	a0,a4
    3748:	85be                	mv	a1,a5
    374a:	8082                	ret

0000374c <__adddf3>:
__adddf3():
    374c:	00100837          	lui	a6,0x100
    3750:	1101                	addi	sp,sp,-32
    3752:	187d                	addi	a6,a6,-1
    3754:	00b87733          	and	a4,a6,a1
    3758:	ca26                	sw	s1,20(sp)
    375a:	00d87833          	and	a6,a6,a3
    375e:	0145d493          	srli	s1,a1,0x14
    3762:	0146d313          	srli	t1,a3,0x14
    3766:	00371e13          	slli	t3,a4,0x3
    376a:	c64e                	sw	s3,12(sp)
    376c:	01d55713          	srli	a4,a0,0x1d
    3770:	080e                	slli	a6,a6,0x3
    3772:	01d65793          	srli	a5,a2,0x1d
    3776:	7ff4f493          	andi	s1,s1,2047
    377a:	7ff37313          	andi	t1,t1,2047
    377e:	ce06                	sw	ra,28(sp)
    3780:	cc22                	sw	s0,24(sp)
    3782:	c84a                	sw	s2,16(sp)
    3784:	01f5d993          	srli	s3,a1,0x1f
    3788:	01f6de93          	srli	t4,a3,0x1f
    378c:	01c76733          	or	a4,a4,t3
    3790:	00351f13          	slli	t5,a0,0x3
    3794:	0107e833          	or	a6,a5,a6
    3798:	00361f93          	slli	t6,a2,0x3
    379c:	40648e33          	sub	t3,s1,t1
    37a0:	19d98063          	beq	s3,t4,3920 <__adddf3+0x1d4>
    37a4:	13c05663          	blez	t3,38d0 <__adddf3+0x184>
    37a8:	1c030463          	beqz	t1,3970 <__adddf3+0x224>
    37ac:	008006b7          	lui	a3,0x800
    37b0:	7ff00793          	li	a5,2047
    37b4:	00d86833          	or	a6,a6,a3
    37b8:	36f48f63          	beq	s1,a5,3b36 <__adddf3+0x3ea>
    37bc:	03800793          	li	a5,56
    37c0:	35c7c063          	blt	a5,t3,3b00 <__adddf3+0x3b4>
    37c4:	47fd                	li	a5,31
    37c6:	47c7cd63          	blt	a5,t3,3c40 <__adddf3+0x4f4>
    37ca:	02000513          	li	a0,32
    37ce:	41c50533          	sub	a0,a0,t3
    37d2:	01cfd7b3          	srl	a5,t6,t3
    37d6:	00a816b3          	sll	a3,a6,a0
    37da:	00af9933          	sll	s2,t6,a0
    37de:	8edd                	or	a3,a3,a5
    37e0:	01203933          	snez	s2,s2
    37e4:	01c857b3          	srl	a5,a6,t3
    37e8:	0126e933          	or	s2,a3,s2
    37ec:	8f1d                	sub	a4,a4,a5
    37ee:	412f0933          	sub	s2,t5,s2
    37f2:	012f37b3          	sltu	a5,t5,s2
    37f6:	40f70633          	sub	a2,a4,a5
    37fa:	00861793          	slli	a5,a2,0x8
    37fe:	2407d463          	bgez	a5,3a46 <__adddf3+0x2fa>
    3802:	00800737          	lui	a4,0x800
    3806:	177d                	addi	a4,a4,-1
    3808:	00e67433          	and	s0,a2,a4
    380c:	2c040c63          	beqz	s0,3ae4 <__adddf3+0x398>
    3810:	8522                	mv	a0,s0
    3812:	7dc020ef          	jal	ra,5fee <__clzsi2>
    3816:	ff850713          	addi	a4,a0,-8 # e0ff8 <_data_lma+0xda750>
    381a:	02000793          	li	a5,32
    381e:	8f99                	sub	a5,a5,a4
    3820:	00f957b3          	srl	a5,s2,a5
    3824:	00e41633          	sll	a2,s0,a4
    3828:	8fd1                	or	a5,a5,a2
    382a:	00e91933          	sll	s2,s2,a4
    382e:	2a974163          	blt	a4,s1,3ad0 <__adddf3+0x384>
    3832:	40970533          	sub	a0,a4,s1
    3836:	00150613          	addi	a2,a0,1
    383a:	477d                	li	a4,31
    383c:	38c74d63          	blt	a4,a2,3bd6 <__adddf3+0x48a>
    3840:	02000713          	li	a4,32
    3844:	8f11                	sub	a4,a4,a2
    3846:	00c956b3          	srl	a3,s2,a2
    384a:	00e91933          	sll	s2,s2,a4
    384e:	00e79733          	sll	a4,a5,a4
    3852:	8f55                	or	a4,a4,a3
    3854:	01203933          	snez	s2,s2
    3858:	01276933          	or	s2,a4,s2
    385c:	00c7d633          	srl	a2,a5,a2
    3860:	4481                	li	s1,0
    3862:	00797793          	andi	a5,s2,7
    3866:	cf81                	beqz	a5,387e <__adddf3+0x132>
    3868:	00f97713          	andi	a4,s2,15
    386c:	4791                	li	a5,4
    386e:	00f70863          	beq	a4,a5,387e <__adddf3+0x132>
    3872:	00490713          	addi	a4,s2,4 # bff00004 <_eusrstack+0x9fef9804>
    3876:	01273933          	sltu	s2,a4,s2
    387a:	964a                	add	a2,a2,s2
    387c:	893a                	mv	s2,a4
    387e:	00861793          	slli	a5,a2,0x8
    3882:	1c07d663          	bgez	a5,3a4e <__adddf3+0x302>
    3886:	00148513          	addi	a0,s1,1
    388a:	7ff00793          	li	a5,2047
    388e:	85ce                	mv	a1,s3
    3890:	20f50463          	beq	a0,a5,3a98 <__adddf3+0x34c>
    3894:	ff8007b7          	lui	a5,0xff800
    3898:	17fd                	addi	a5,a5,-1
    389a:	8ff1                	and	a5,a5,a2
    389c:	01d79893          	slli	a7,a5,0x1d
    38a0:	00395913          	srli	s2,s2,0x3
    38a4:	07a6                	slli	a5,a5,0x9
    38a6:	0128e8b3          	or	a7,a7,s2
    38aa:	83b1                	srli	a5,a5,0xc
    38ac:	7ff57513          	andi	a0,a0,2047
    38b0:	00c79693          	slli	a3,a5,0xc
    38b4:	0552                	slli	a0,a0,0x14
    38b6:	40f2                	lw	ra,28(sp)
    38b8:	4462                	lw	s0,24(sp)
    38ba:	82b1                	srli	a3,a3,0xc
    38bc:	05fe                	slli	a1,a1,0x1f
    38be:	8ec9                	or	a3,a3,a0
    38c0:	8ecd                	or	a3,a3,a1
    38c2:	44d2                	lw	s1,20(sp)
    38c4:	4942                	lw	s2,16(sp)
    38c6:	49b2                	lw	s3,12(sp)
    38c8:	8546                	mv	a0,a7
    38ca:	85b6                	mv	a1,a3
    38cc:	6105                	addi	sp,sp,32
    38ce:	8082                	ret
    38d0:	0a0e1e63          	bnez	t3,398c <__adddf3+0x240>
    38d4:	00148313          	addi	t1,s1,1
    38d8:	7fe37313          	andi	t1,t1,2046
    38dc:	22031763          	bnez	t1,3b0a <__adddf3+0x3be>
    38e0:	01e767b3          	or	a5,a4,t5
    38e4:	01f868b3          	or	a7,a6,t6
    38e8:	1a049d63          	bnez	s1,3aa2 <__adddf3+0x356>
    38ec:	40078763          	beqz	a5,3cfa <__adddf3+0x5ae>
    38f0:	44088663          	beqz	a7,3d3c <__adddf3+0x5f0>
    38f4:	41ff0933          	sub	s2,t5,t6
    38f8:	410707b3          	sub	a5,a4,a6
    38fc:	012f3633          	sltu	a2,t5,s2
    3900:	40c78633          	sub	a2,a5,a2
    3904:	00861793          	slli	a5,a2,0x8
    3908:	4c07d663          	bgez	a5,3dd4 <__adddf3+0x688>
    390c:	41ef8933          	sub	s2,t6,t5
    3910:	40e807b3          	sub	a5,a6,a4
    3914:	012fb633          	sltu	a2,t6,s2
    3918:	40c78633          	sub	a2,a5,a2
    391c:	89f6                	mv	s3,t4
    391e:	b791                	j	3862 <__adddf3+0x116>
    3920:	0fc05063          	blez	t3,3a00 <__adddf3+0x2b4>
    3924:	0c030063          	beqz	t1,39e4 <__adddf3+0x298>
    3928:	008006b7          	lui	a3,0x800
    392c:	7ff00793          	li	a5,2047
    3930:	00d86833          	or	a6,a6,a3
    3934:	3af48a63          	beq	s1,a5,3ce8 <__adddf3+0x59c>
    3938:	03800793          	li	a5,56
    393c:	13c7cb63          	blt	a5,t3,3a72 <__adddf3+0x326>
    3940:	47fd                	li	a5,31
    3942:	35c7df63          	bge	a5,t3,3ca0 <__adddf3+0x554>
    3946:	fe0e0913          	addi	s2,t3,-32
    394a:	02000793          	li	a5,32
    394e:	012856b3          	srl	a3,a6,s2
    3952:	00fe0a63          	beq	t3,a5,3966 <__adddf3+0x21a>
    3956:	04000913          	li	s2,64
    395a:	41c90933          	sub	s2,s2,t3
    395e:	01281933          	sll	s2,a6,s2
    3962:	012fefb3          	or	t6,t6,s2
    3966:	01f03933          	snez	s2,t6
    396a:	00d96933          	or	s2,s2,a3
    396e:	a231                	j	3a7a <__adddf3+0x32e>
    3970:	01f867b3          	or	a5,a6,t6
    3974:	1c078a63          	beqz	a5,3b48 <__adddf3+0x3fc>
    3978:	fffe0793          	addi	a5,t3,-1
    397c:	38078c63          	beqz	a5,3d14 <__adddf3+0x5c8>
    3980:	7ff00693          	li	a3,2047
    3984:	1ade0963          	beq	t3,a3,3b36 <__adddf3+0x3ea>
    3988:	8e3e                	mv	t3,a5
    398a:	bd0d                	j	37bc <__adddf3+0x70>
    398c:	409305b3          	sub	a1,t1,s1
    3990:	22049163          	bnez	s1,3bb2 <__adddf3+0x466>
    3994:	01e767b3          	or	a5,a4,t5
    3998:	32078763          	beqz	a5,3cc6 <__adddf3+0x57a>
    399c:	fff58793          	addi	a5,a1,-1
    39a0:	44078163          	beqz	a5,3de2 <__adddf3+0x696>
    39a4:	7ff00693          	li	a3,2047
    39a8:	20d58c63          	beq	a1,a3,3bc0 <__adddf3+0x474>
    39ac:	85be                	mv	a1,a5
    39ae:	03800793          	li	a5,56
    39b2:	2ab7cc63          	blt	a5,a1,3c6a <__adddf3+0x51e>
    39b6:	47fd                	li	a5,31
    39b8:	3cb7cf63          	blt	a5,a1,3d96 <__adddf3+0x64a>
    39bc:	02000793          	li	a5,32
    39c0:	8f8d                	sub	a5,a5,a1
    39c2:	00f71933          	sll	s2,a4,a5
    39c6:	00bf56b3          	srl	a3,t5,a1
    39ca:	00ff17b3          	sll	a5,t5,a5
    39ce:	00d96933          	or	s2,s2,a3
    39d2:	00f037b3          	snez	a5,a5
    39d6:	00b75733          	srl	a4,a4,a1
    39da:	00f96933          	or	s2,s2,a5
    39de:	40e80833          	sub	a6,a6,a4
    39e2:	ac41                	j	3c72 <__adddf3+0x526>
    39e4:	01f867b3          	or	a5,a6,t6
    39e8:	34078063          	beqz	a5,3d28 <__adddf3+0x5dc>
    39ec:	fffe0793          	addi	a5,t3,-1
    39f0:	20078a63          	beqz	a5,3c04 <__adddf3+0x4b8>
    39f4:	7ff00693          	li	a3,2047
    39f8:	2ede0863          	beq	t3,a3,3ce8 <__adddf3+0x59c>
    39fc:	8e3e                	mv	t3,a5
    39fe:	bf2d                	j	3938 <__adddf3+0x1ec>
    3a00:	140e1e63          	bnez	t3,3b5c <__adddf3+0x410>
    3a04:	00148693          	addi	a3,s1,1
    3a08:	7fe6f793          	andi	a5,a3,2046
    3a0c:	34079163          	bnez	a5,3d4e <__adddf3+0x602>
    3a10:	01e767b3          	or	a5,a4,t5
    3a14:	2c049563          	bnez	s1,3cde <__adddf3+0x592>
    3a18:	3e078063          	beqz	a5,3df8 <__adddf3+0x6ac>
    3a1c:	01f867b3          	or	a5,a6,t6
    3a20:	30078e63          	beqz	a5,3d3c <__adddf3+0x5f0>
    3a24:	01ff0933          	add	s2,t5,t6
    3a28:	010707b3          	add	a5,a4,a6
    3a2c:	01e93f33          	sltu	t5,s2,t5
    3a30:	01e78633          	add	a2,a5,t5
    3a34:	00861793          	slli	a5,a2,0x8
    3a38:	0007d763          	bgez	a5,3a46 <__adddf3+0x2fa>
    3a3c:	ff8007b7          	lui	a5,0xff800
    3a40:	17fd                	addi	a5,a5,-1
    3a42:	8e7d                	and	a2,a2,a5
    3a44:	4485                	li	s1,1
    3a46:	00797793          	andi	a5,s2,7
    3a4a:	e0079fe3          	bnez	a5,3868 <__adddf3+0x11c>
    3a4e:	01d61793          	slli	a5,a2,0x1d
    3a52:	00395893          	srli	a7,s2,0x3
    3a56:	00f8e8b3          	or	a7,a7,a5
    3a5a:	00365793          	srli	a5,a2,0x3
    3a5e:	7ff00713          	li	a4,2047
    3a62:	04e48d63          	beq	s1,a4,3abc <__adddf3+0x370>
    3a66:	07b2                	slli	a5,a5,0xc
    3a68:	83b1                	srli	a5,a5,0xc
    3a6a:	7ff4f513          	andi	a0,s1,2047
    3a6e:	85ce                	mv	a1,s3
    3a70:	b581                	j	38b0 <__adddf3+0x164>
    3a72:	01f86933          	or	s2,a6,t6
    3a76:	01203933          	snez	s2,s2
    3a7a:	997a                	add	s2,s2,t5
    3a7c:	01e937b3          	sltu	a5,s2,t5
    3a80:	00e78633          	add	a2,a5,a4
    3a84:	00861793          	slli	a5,a2,0x8
    3a88:	fa07dfe3          	bgez	a5,3a46 <__adddf3+0x2fa>
    3a8c:	0485                	addi	s1,s1,1
    3a8e:	7ff00793          	li	a5,2047
    3a92:	18f49663          	bne	s1,a5,3c1e <__adddf3+0x4d2>
    3a96:	85ce                	mv	a1,s3
    3a98:	7ff00513          	li	a0,2047
    3a9c:	4781                	li	a5,0
    3a9e:	4881                	li	a7,0
    3aa0:	bd01                	j	38b0 <__adddf3+0x164>
    3aa2:	ebc1                	bnez	a5,3b32 <__adddf3+0x3e6>
    3aa4:	3a088463          	beqz	a7,3e4c <__adddf3+0x700>
    3aa8:	00361693          	slli	a3,a2,0x3
    3aac:	01d81793          	slli	a5,a6,0x1d
    3ab0:	828d                	srli	a3,a3,0x3
    3ab2:	00d7e8b3          	or	a7,a5,a3
    3ab6:	89f6                	mv	s3,t4
    3ab8:	00385793          	srli	a5,a6,0x3
    3abc:	00f8e7b3          	or	a5,a7,a5
    3ac0:	dbf9                	beqz	a5,3a96 <__adddf3+0x34a>
    3ac2:	4581                	li	a1,0
    3ac4:	7ff00513          	li	a0,2047
    3ac8:	000807b7          	lui	a5,0x80
    3acc:	4881                	li	a7,0
    3ace:	b3cd                	j	38b0 <__adddf3+0x164>
    3ad0:	ff800637          	lui	a2,0xff800
    3ad4:	167d                	addi	a2,a2,-1
    3ad6:	8e7d                	and	a2,a2,a5
    3ad8:	00797793          	andi	a5,s2,7
    3adc:	8c99                	sub	s1,s1,a4
    3ade:	d80795e3          	bnez	a5,3868 <__adddf3+0x11c>
    3ae2:	b7b5                	j	3a4e <__adddf3+0x302>
    3ae4:	854a                	mv	a0,s2
    3ae6:	508020ef          	jal	ra,5fee <__clzsi2>
    3aea:	01850713          	addi	a4,a0,24
    3aee:	47fd                	li	a5,31
    3af0:	d2e7d5e3          	bge	a5,a4,381a <__adddf3+0xce>
    3af4:	ff850613          	addi	a2,a0,-8
    3af8:	00c917b3          	sll	a5,s2,a2
    3afc:	4901                	li	s2,0
    3afe:	bb05                	j	382e <__adddf3+0xe2>
    3b00:	01f86933          	or	s2,a6,t6
    3b04:	01203933          	snez	s2,s2
    3b08:	b1dd                	j	37ee <__adddf3+0xa2>
    3b0a:	41ff0933          	sub	s2,t5,t6
    3b0e:	41070633          	sub	a2,a4,a6
    3b12:	012f3433          	sltu	s0,t5,s2
    3b16:	40860433          	sub	s0,a2,s0
    3b1a:	00841793          	slli	a5,s0,0x8
    3b1e:	2407cd63          	bltz	a5,3d78 <__adddf3+0x62c>
    3b22:	008968b3          	or	a7,s2,s0
    3b26:	ce0893e3          	bnez	a7,380c <__adddf3+0xc0>
    3b2a:	4781                	li	a5,0
    3b2c:	4981                	li	s3,0
    3b2e:	4481                	li	s1,0
    3b30:	bf1d                	j	3a66 <__adddf3+0x31a>
    3b32:	f80898e3          	bnez	a7,3ac2 <__adddf3+0x376>
    3b36:	050e                	slli	a0,a0,0x3
    3b38:	01d71793          	slli	a5,a4,0x1d
    3b3c:	810d                	srli	a0,a0,0x3
    3b3e:	00a7e8b3          	or	a7,a5,a0
    3b42:	00375793          	srli	a5,a4,0x3
    3b46:	bf9d                	j	3abc <__adddf3+0x370>
    3b48:	050e                	slli	a0,a0,0x3
    3b4a:	01d71793          	slli	a5,a4,0x1d
    3b4e:	810d                	srli	a0,a0,0x3
    3b50:	00a7e8b3          	or	a7,a5,a0
    3b54:	84f2                	mv	s1,t3
    3b56:	00375793          	srli	a5,a4,0x3
    3b5a:	b711                	j	3a5e <__adddf3+0x312>
    3b5c:	40930533          	sub	a0,t1,s1
    3b60:	12048263          	beqz	s1,3c84 <__adddf3+0x538>
    3b64:	008006b7          	lui	a3,0x800
    3b68:	7ff00793          	li	a5,2047
    3b6c:	8f55                	or	a4,a4,a3
    3b6e:	2ef30d63          	beq	t1,a5,3e68 <__adddf3+0x71c>
    3b72:	03800793          	li	a5,56
    3b76:	20a7cb63          	blt	a5,a0,3d8c <__adddf3+0x640>
    3b7a:	47fd                	li	a5,31
    3b7c:	2aa7c363          	blt	a5,a0,3e22 <__adddf3+0x6d6>
    3b80:	02000793          	li	a5,32
    3b84:	8f89                	sub	a5,a5,a0
    3b86:	00f71933          	sll	s2,a4,a5
    3b8a:	00af56b3          	srl	a3,t5,a0
    3b8e:	00ff17b3          	sll	a5,t5,a5
    3b92:	00d96933          	or	s2,s2,a3
    3b96:	00f037b3          	snez	a5,a5
    3b9a:	00a75733          	srl	a4,a4,a0
    3b9e:	00f96933          	or	s2,s2,a5
    3ba2:	983a                	add	a6,a6,a4
    3ba4:	997e                	add	s2,s2,t6
    3ba6:	01f937b3          	sltu	a5,s2,t6
    3baa:	01078633          	add	a2,a5,a6
    3bae:	849a                	mv	s1,t1
    3bb0:	bdd1                	j	3a84 <__adddf3+0x338>
    3bb2:	008006b7          	lui	a3,0x800
    3bb6:	7ff00793          	li	a5,2047
    3bba:	8f55                	or	a4,a4,a3
    3bbc:	def319e3          	bne	t1,a5,39ae <__adddf3+0x262>
    3bc0:	00361793          	slli	a5,a2,0x3
    3bc4:	838d                	srli	a5,a5,0x3
    3bc6:	01d81893          	slli	a7,a6,0x1d
    3bca:	0117e8b3          	or	a7,a5,a7
    3bce:	89f6                	mv	s3,t4
    3bd0:	00385793          	srli	a5,a6,0x3
    3bd4:	b5e5                	j	3abc <__adddf3+0x370>
    3bd6:	fe150713          	addi	a4,a0,-31
    3bda:	02000693          	li	a3,32
    3bde:	00e7d733          	srl	a4,a5,a4
    3be2:	00d60a63          	beq	a2,a3,3bf6 <__adddf3+0x4aa>
    3be6:	04000693          	li	a3,64
    3bea:	40c68633          	sub	a2,a3,a2
    3bee:	00c79633          	sll	a2,a5,a2
    3bf2:	00c96933          	or	s2,s2,a2
    3bf6:	01203933          	snez	s2,s2
    3bfa:	00e96933          	or	s2,s2,a4
    3bfe:	4601                	li	a2,0
    3c00:	4481                	li	s1,0
    3c02:	b591                	j	3a46 <__adddf3+0x2fa>
    3c04:	01ff0933          	add	s2,t5,t6
    3c08:	010707b3          	add	a5,a4,a6
    3c0c:	01e93633          	sltu	a2,s2,t5
    3c10:	963e                	add	a2,a2,a5
    3c12:	00861793          	slli	a5,a2,0x8
    3c16:	4485                	li	s1,1
    3c18:	e207d7e3          	bgez	a5,3a46 <__adddf3+0x2fa>
    3c1c:	4489                	li	s1,2
    3c1e:	ff8007b7          	lui	a5,0xff800
    3c22:	17fd                	addi	a5,a5,-1
    3c24:	8ff1                	and	a5,a5,a2
    3c26:	00195713          	srli	a4,s2,0x1
    3c2a:	00197913          	andi	s2,s2,1
    3c2e:	01276933          	or	s2,a4,s2
    3c32:	01f79893          	slli	a7,a5,0x1f
    3c36:	0128e933          	or	s2,a7,s2
    3c3a:	0017d613          	srli	a2,a5,0x1
    3c3e:	b115                	j	3862 <__adddf3+0x116>
    3c40:	fe0e0913          	addi	s2,t3,-32
    3c44:	02000793          	li	a5,32
    3c48:	012856b3          	srl	a3,a6,s2
    3c4c:	00fe0a63          	beq	t3,a5,3c60 <__adddf3+0x514>
    3c50:	04000913          	li	s2,64
    3c54:	41c90933          	sub	s2,s2,t3
    3c58:	01281933          	sll	s2,a6,s2
    3c5c:	012fefb3          	or	t6,t6,s2
    3c60:	01f03933          	snez	s2,t6
    3c64:	00d96933          	or	s2,s2,a3
    3c68:	b659                	j	37ee <__adddf3+0xa2>
    3c6a:	01e76933          	or	s2,a4,t5
    3c6e:	01203933          	snez	s2,s2
    3c72:	412f8933          	sub	s2,t6,s2
    3c76:	012fb7b3          	sltu	a5,t6,s2
    3c7a:	40f80633          	sub	a2,a6,a5
    3c7e:	849a                	mv	s1,t1
    3c80:	89f6                	mv	s3,t4
    3c82:	bea5                	j	37fa <__adddf3+0xae>
    3c84:	01e767b3          	or	a5,a4,t5
    3c88:	18078263          	beqz	a5,3e0c <__adddf3+0x6c0>
    3c8c:	fff50793          	addi	a5,a0,-1
    3c90:	1c078463          	beqz	a5,3e58 <__adddf3+0x70c>
    3c94:	7ff00693          	li	a3,2047
    3c98:	12d50463          	beq	a0,a3,3dc0 <__adddf3+0x674>
    3c9c:	853e                	mv	a0,a5
    3c9e:	bdd1                	j	3b72 <__adddf3+0x426>
    3ca0:	02000793          	li	a5,32
    3ca4:	41c787b3          	sub	a5,a5,t3
    3ca8:	00f816b3          	sll	a3,a6,a5
    3cac:	00ff9933          	sll	s2,t6,a5
    3cb0:	01cfd633          	srl	a2,t6,t3
    3cb4:	8ed1                	or	a3,a3,a2
    3cb6:	01203933          	snez	s2,s2
    3cba:	01c857b3          	srl	a5,a6,t3
    3cbe:	0126e933          	or	s2,a3,s2
    3cc2:	973e                	add	a4,a4,a5
    3cc4:	bb5d                	j	3a7a <__adddf3+0x32e>
    3cc6:	00361793          	slli	a5,a2,0x3
    3cca:	838d                	srli	a5,a5,0x3
    3ccc:	01d81893          	slli	a7,a6,0x1d
    3cd0:	0117e8b3          	or	a7,a5,a7
    3cd4:	84ae                	mv	s1,a1
    3cd6:	00385793          	srli	a5,a6,0x3
    3cda:	89f6                	mv	s3,t4
    3cdc:	b349                	j	3a5e <__adddf3+0x312>
    3cde:	c3ed                	beqz	a5,3dc0 <__adddf3+0x674>
    3ce0:	01f86933          	or	s2,a6,t6
    3ce4:	dc091fe3          	bnez	s2,3ac2 <__adddf3+0x376>
    3ce8:	050e                	slli	a0,a0,0x3
    3cea:	01d71793          	slli	a5,a4,0x1d
    3cee:	810d                	srli	a0,a0,0x3
    3cf0:	00f568b3          	or	a7,a0,a5
    3cf4:	00375793          	srli	a5,a4,0x3
    3cf8:	b3d1                	j	3abc <__adddf3+0x370>
    3cfa:	0e088163          	beqz	a7,3ddc <__adddf3+0x690>
    3cfe:	00361693          	slli	a3,a2,0x3
    3d02:	01d81793          	slli	a5,a6,0x1d
    3d06:	828d                	srli	a3,a3,0x3
    3d08:	00d7e8b3          	or	a7,a5,a3
    3d0c:	89f6                	mv	s3,t4
    3d0e:	00385793          	srli	a5,a6,0x3
    3d12:	bb91                	j	3a66 <__adddf3+0x31a>
    3d14:	41ff0933          	sub	s2,t5,t6
    3d18:	410707b3          	sub	a5,a4,a6
    3d1c:	012f3f33          	sltu	t5,t5,s2
    3d20:	41e78633          	sub	a2,a5,t5
    3d24:	4485                	li	s1,1
    3d26:	bcd1                	j	37fa <__adddf3+0xae>
    3d28:	050e                	slli	a0,a0,0x3
    3d2a:	01d71793          	slli	a5,a4,0x1d
    3d2e:	810d                	srli	a0,a0,0x3
    3d30:	00f568b3          	or	a7,a0,a5
    3d34:	84f2                	mv	s1,t3
    3d36:	00375793          	srli	a5,a4,0x3
    3d3a:	b315                	j	3a5e <__adddf3+0x312>
    3d3c:	050e                	slli	a0,a0,0x3
    3d3e:	01d71793          	slli	a5,a4,0x1d
    3d42:	810d                	srli	a0,a0,0x3
    3d44:	00a7e8b3          	or	a7,a5,a0
    3d48:	00375793          	srli	a5,a4,0x3
    3d4c:	bb29                	j	3a66 <__adddf3+0x31a>
    3d4e:	7ff00793          	li	a5,2047
    3d52:	d4f682e3          	beq	a3,a5,3a96 <__adddf3+0x34a>
    3d56:	01ff0933          	add	s2,t5,t6
    3d5a:	01e93633          	sltu	a2,s2,t5
    3d5e:	010707b3          	add	a5,a4,a6
    3d62:	97b2                	add	a5,a5,a2
    3d64:	01f79893          	slli	a7,a5,0x1f
    3d68:	00195913          	srli	s2,s2,0x1
    3d6c:	0128e933          	or	s2,a7,s2
    3d70:	0017d613          	srli	a2,a5,0x1
    3d74:	84b6                	mv	s1,a3
    3d76:	b9c1                	j	3a46 <__adddf3+0x2fa>
    3d78:	41ef8933          	sub	s2,t6,t5
    3d7c:	40e80733          	sub	a4,a6,a4
    3d80:	012fb633          	sltu	a2,t6,s2
    3d84:	40c70433          	sub	s0,a4,a2
    3d88:	89f6                	mv	s3,t4
    3d8a:	b449                	j	380c <__adddf3+0xc0>
    3d8c:	01e76933          	or	s2,a4,t5
    3d90:	01203933          	snez	s2,s2
    3d94:	bd01                	j	3ba4 <__adddf3+0x458>
    3d96:	fe058793          	addi	a5,a1,-32
    3d9a:	02000693          	li	a3,32
    3d9e:	00f757b3          	srl	a5,a4,a5
    3da2:	00d58a63          	beq	a1,a3,3db6 <__adddf3+0x66a>
    3da6:	04000693          	li	a3,64
    3daa:	40b685b3          	sub	a1,a3,a1
    3dae:	00b71733          	sll	a4,a4,a1
    3db2:	00ef6f33          	or	t5,t5,a4
    3db6:	01e03933          	snez	s2,t5
    3dba:	00f96933          	or	s2,s2,a5
    3dbe:	bd55                	j	3c72 <__adddf3+0x526>
    3dc0:	00361793          	slli	a5,a2,0x3
    3dc4:	838d                	srli	a5,a5,0x3
    3dc6:	01d81893          	slli	a7,a6,0x1d
    3dca:	0117e8b3          	or	a7,a5,a7
    3dce:	00385793          	srli	a5,a6,0x3
    3dd2:	b1ed                	j	3abc <__adddf3+0x370>
    3dd4:	00c968b3          	or	a7,s2,a2
    3dd8:	c60897e3          	bnez	a7,3a46 <__adddf3+0x2fa>
    3ddc:	4781                	li	a5,0
    3dde:	4981                	li	s3,0
    3de0:	b159                	j	3a66 <__adddf3+0x31a>
    3de2:	41ef8933          	sub	s2,t6,t5
    3de6:	40e807b3          	sub	a5,a6,a4
    3dea:	012fb633          	sltu	a2,t6,s2
    3dee:	40c78633          	sub	a2,a5,a2
    3df2:	89f6                	mv	s3,t4
    3df4:	4485                	li	s1,1
    3df6:	b411                	j	37fa <__adddf3+0xae>
    3df8:	00361693          	slli	a3,a2,0x3
    3dfc:	01d81793          	slli	a5,a6,0x1d
    3e00:	828d                	srli	a3,a3,0x3
    3e02:	00d7e8b3          	or	a7,a5,a3
    3e06:	00385793          	srli	a5,a6,0x3
    3e0a:	b9b1                	j	3a66 <__adddf3+0x31a>
    3e0c:	00361693          	slli	a3,a2,0x3
    3e10:	01d81793          	slli	a5,a6,0x1d
    3e14:	828d                	srli	a3,a3,0x3
    3e16:	00d7e8b3          	or	a7,a5,a3
    3e1a:	84aa                	mv	s1,a0
    3e1c:	00385793          	srli	a5,a6,0x3
    3e20:	b93d                	j	3a5e <__adddf3+0x312>
    3e22:	fe050793          	addi	a5,a0,-32
    3e26:	02000693          	li	a3,32
    3e2a:	00f757b3          	srl	a5,a4,a5
    3e2e:	00d50a63          	beq	a0,a3,3e42 <__adddf3+0x6f6>
    3e32:	04000693          	li	a3,64
    3e36:	40a68533          	sub	a0,a3,a0
    3e3a:	00a71733          	sll	a4,a4,a0
    3e3e:	00ef6f33          	or	t5,t5,a4
    3e42:	01e03933          	snez	s2,t5
    3e46:	00f96933          	or	s2,s2,a5
    3e4a:	bba9                	j	3ba4 <__adddf3+0x458>
    3e4c:	4581                	li	a1,0
    3e4e:	7ff00513          	li	a0,2047
    3e52:	000807b7          	lui	a5,0x80
    3e56:	bca9                	j	38b0 <__adddf3+0x164>
    3e58:	01ff0933          	add	s2,t5,t6
    3e5c:	010707b3          	add	a5,a4,a6
    3e60:	01f93633          	sltu	a2,s2,t6
    3e64:	963e                	add	a2,a2,a5
    3e66:	b375                	j	3c12 <__adddf3+0x4c6>
    3e68:	00361693          	slli	a3,a2,0x3
    3e6c:	01d81793          	slli	a5,a6,0x1d
    3e70:	828d                	srli	a3,a3,0x3
    3e72:	00d7e8b3          	or	a7,a5,a3
    3e76:	00385793          	srli	a5,a6,0x3
    3e7a:	b189                	j	3abc <__adddf3+0x370>

00003e7c <__divdf3>:
__divdf3():
    3e7c:	7139                	addi	sp,sp,-64
    3e7e:	0145d793          	srli	a5,a1,0x14
    3e82:	dc22                	sw	s0,56(sp)
    3e84:	d84a                	sw	s2,48(sp)
    3e86:	d256                	sw	s5,36(sp)
    3e88:	892a                	mv	s2,a0
    3e8a:	00c59413          	slli	s0,a1,0xc
    3e8e:	de06                	sw	ra,60(sp)
    3e90:	da26                	sw	s1,52(sp)
    3e92:	d64e                	sw	s3,44(sp)
    3e94:	d452                	sw	s4,40(sp)
    3e96:	d05a                	sw	s6,32(sp)
    3e98:	ce5e                	sw	s7,28(sp)
    3e9a:	7ff7f513          	andi	a0,a5,2047
    3e9e:	8031                	srli	s0,s0,0xc
    3ea0:	01f5da93          	srli	s5,a1,0x1f
    3ea4:	10050b63          	beqz	a0,3fba <__divdf3+0x13e>
    3ea8:	7ff00793          	li	a5,2047
    3eac:	14f50b63          	beq	a0,a5,4002 <__divdf3+0x186>
    3eb0:	01d95a13          	srli	s4,s2,0x1d
    3eb4:	040e                	slli	s0,s0,0x3
    3eb6:	008a6433          	or	s0,s4,s0
    3eba:	00800a37          	lui	s4,0x800
    3ebe:	01446a33          	or	s4,s0,s4
    3ec2:	00391b13          	slli	s6,s2,0x3
    3ec6:	c0150493          	addi	s1,a0,-1023
    3eca:	4401                	li	s0,0
    3ecc:	4b81                	li	s7,0
    3ece:	0146d813          	srli	a6,a3,0x14
    3ed2:	00c69913          	slli	s2,a3,0xc
    3ed6:	7ff87813          	andi	a6,a6,2047
    3eda:	88b2                	mv	a7,a2
    3edc:	00c95913          	srli	s2,s2,0xc
    3ee0:	01f6d993          	srli	s3,a3,0x1f
    3ee4:	08080e63          	beqz	a6,3f80 <__divdf3+0x104>
    3ee8:	7ff00793          	li	a5,2047
    3eec:	04f80063          	beq	a6,a5,3f2c <__divdf3+0xb0>
    3ef0:	01d65713          	srli	a4,a2,0x1d
    3ef4:	090e                	slli	s2,s2,0x3
    3ef6:	01276933          	or	s2,a4,s2
    3efa:	c0180813          	addi	a6,a6,-1023 # ffc01 <_data_lma+0xf9359>
    3efe:	008007b7          	lui	a5,0x800
    3f02:	00f96733          	or	a4,s2,a5
    3f06:	00361893          	slli	a7,a2,0x3
    3f0a:	410484b3          	sub	s1,s1,a6
    3f0e:	4581                	li	a1,0
    3f10:	47bd                	li	a5,15
    3f12:	013ac833          	xor	a6,s5,s3
    3f16:	1a87e463          	bltu	a5,s0,40be <__divdf3+0x242>
    3f1a:	00002797          	auipc	a5,0x2
    3f1e:	7ce78793          	addi	a5,a5,1998 # 66e8 <init_jk+0x60>
    3f22:	040a                	slli	s0,s0,0x2
    3f24:	943e                	add	s0,s0,a5
    3f26:	4010                	lw	a2,0(s0)
    3f28:	963e                	add	a2,a2,a5
    3f2a:	8602                	jr	a2
    3f2c:	00c96733          	or	a4,s2,a2
    3f30:	80148493          	addi	s1,s1,-2047
    3f34:	10071263          	bnez	a4,4038 <__divdf3+0x1bc>
    3f38:	00246413          	ori	s0,s0,2
    3f3c:	4881                	li	a7,0
    3f3e:	4589                	li	a1,2
    3f40:	bfc1                	j	3f10 <__divdf3+0x94>
    3f42:	7ff00613          	li	a2,2047
    3f46:	4781                	li	a5,0
    3f48:	4701                	li	a4,0
    3f4a:	07b2                	slli	a5,a5,0xc
    3f4c:	50f2                	lw	ra,60(sp)
    3f4e:	5462                	lw	s0,56(sp)
    3f50:	0652                	slli	a2,a2,0x14
    3f52:	83b1                	srli	a5,a5,0xc
    3f54:	087e                	slli	a6,a6,0x1f
    3f56:	8fd1                	or	a5,a5,a2
    3f58:	0107e7b3          	or	a5,a5,a6
    3f5c:	54d2                	lw	s1,52(sp)
    3f5e:	5942                	lw	s2,48(sp)
    3f60:	59b2                	lw	s3,44(sp)
    3f62:	5a22                	lw	s4,40(sp)
    3f64:	5a92                	lw	s5,36(sp)
    3f66:	5b02                	lw	s6,32(sp)
    3f68:	4bf2                	lw	s7,28(sp)
    3f6a:	853a                	mv	a0,a4
    3f6c:	85be                	mv	a1,a5
    3f6e:	6121                	addi	sp,sp,64
    3f70:	8082                	ret
    3f72:	4801                	li	a6,0
    3f74:	7ff00613          	li	a2,2047
    3f78:	000807b7          	lui	a5,0x80
    3f7c:	4701                	li	a4,0
    3f7e:	b7f1                	j	3f4a <__divdf3+0xce>
    3f80:	00c96733          	or	a4,s2,a2
    3f84:	c74d                	beqz	a4,402e <__divdf3+0x1b2>
    3f86:	30090863          	beqz	s2,4296 <__divdf3+0x41a>
    3f8a:	854a                	mv	a0,s2
    3f8c:	c432                	sw	a2,8(sp)
    3f8e:	060020ef          	jal	ra,5fee <__clzsi2>
    3f92:	4622                	lw	a2,8(sp)
    3f94:	ff550713          	addi	a4,a0,-11
    3f98:	47f5                	li	a5,29
    3f9a:	ff850693          	addi	a3,a0,-8
    3f9e:	8f99                	sub	a5,a5,a4
    3fa0:	00d91933          	sll	s2,s2,a3
    3fa4:	00f657b3          	srl	a5,a2,a5
    3fa8:	0127e733          	or	a4,a5,s2
    3fac:	00d618b3          	sll	a7,a2,a3
    3fb0:	9526                	add	a0,a0,s1
    3fb2:	3f350493          	addi	s1,a0,1011
    3fb6:	4581                	li	a1,0
    3fb8:	bfa1                	j	3f10 <__divdf3+0x94>
    3fba:	01246a33          	or	s4,s0,s2
    3fbe:	060a0363          	beqz	s4,4024 <__divdf3+0x1a8>
    3fc2:	c636                	sw	a3,12(sp)
    3fc4:	c432                	sw	a2,8(sp)
    3fc6:	2a040663          	beqz	s0,4272 <__divdf3+0x3f6>
    3fca:	8522                	mv	a0,s0
    3fcc:	022020ef          	jal	ra,5fee <__clzsi2>
    3fd0:	4622                	lw	a2,8(sp)
    3fd2:	46b2                	lw	a3,12(sp)
    3fd4:	84aa                	mv	s1,a0
    3fd6:	ff550713          	addi	a4,a0,-11
    3fda:	4a75                	li	s4,29
    3fdc:	ff848b13          	addi	s6,s1,-8
    3fe0:	40ea0a33          	sub	s4,s4,a4
    3fe4:	01641433          	sll	s0,s0,s6
    3fe8:	01495a33          	srl	s4,s2,s4
    3fec:	008a6a33          	or	s4,s4,s0
    3ff0:	01691b33          	sll	s6,s2,s6
    3ff4:	c0d00513          	li	a0,-1011
    3ff8:	409504b3          	sub	s1,a0,s1
    3ffc:	4401                	li	s0,0
    3ffe:	4b81                	li	s7,0
    4000:	b5f9                	j	3ece <__divdf3+0x52>
    4002:	01246a33          	or	s4,s0,s2
    4006:	000a1863          	bnez	s4,4016 <__divdf3+0x19a>
    400a:	4421                	li	s0,8
    400c:	4b01                	li	s6,0
    400e:	7ff00493          	li	s1,2047
    4012:	4b89                	li	s7,2
    4014:	bd6d                	j	3ece <__divdf3+0x52>
    4016:	8a22                	mv	s4,s0
    4018:	8b4a                	mv	s6,s2
    401a:	4431                	li	s0,12
    401c:	7ff00493          	li	s1,2047
    4020:	4b8d                	li	s7,3
    4022:	b575                	j	3ece <__divdf3+0x52>
    4024:	4411                	li	s0,4
    4026:	4b01                	li	s6,0
    4028:	4481                	li	s1,0
    402a:	4b85                	li	s7,1
    402c:	b54d                	j	3ece <__divdf3+0x52>
    402e:	00146413          	ori	s0,s0,1
    4032:	4881                	li	a7,0
    4034:	4585                	li	a1,1
    4036:	bde9                	j	3f10 <__divdf3+0x94>
    4038:	00346413          	ori	s0,s0,3
    403c:	874a                	mv	a4,s2
    403e:	458d                	li	a1,3
    4040:	bdc1                	j	3f10 <__divdf3+0x94>
    4042:	2e050a63          	beqz	a0,4336 <__divdf3+0x4ba>
    4046:	4785                	li	a5,1
    4048:	8f89                	sub	a5,a5,a0
    404a:	03800693          	li	a3,56
    404e:	32f6dd63          	bge	a3,a5,4388 <__divdf3+0x50c>
    4052:	4601                	li	a2,0
    4054:	4781                	li	a5,0
    4056:	4701                	li	a4,0
    4058:	bdcd                	j	3f4a <__divdf3+0xce>
    405a:	86ce                	mv	a3,s3
    405c:	4789                	li	a5,2
    405e:	3af58d63          	beq	a1,a5,4418 <__divdf3+0x59c>
    4062:	478d                	li	a5,3
    4064:	f0f587e3          	beq	a1,a5,3f72 <__divdf3+0xf6>
    4068:	4785                	li	a5,1
    406a:	8836                	mv	a6,a3
    406c:	fef583e3          	beq	a1,a5,4052 <__divdf3+0x1d6>
    4070:	3ff48513          	addi	a0,s1,1023
    4074:	fca057e3          	blez	a0,4042 <__divdf3+0x1c6>
    4078:	0078f793          	andi	a5,a7,7
    407c:	28079663          	bnez	a5,4308 <__divdf3+0x48c>
    4080:	0038d693          	srli	a3,a7,0x3
    4084:	00771793          	slli	a5,a4,0x7
    4088:	0007d863          	bgez	a5,4098 <__divdf3+0x21c>
    408c:	ff0007b7          	lui	a5,0xff000
    4090:	17fd                	addi	a5,a5,-1
    4092:	8f7d                	and	a4,a4,a5
    4094:	40048513          	addi	a0,s1,1024
    4098:	7fe00793          	li	a5,2046
    409c:	eaa7c3e3          	blt	a5,a0,3f42 <__divdf3+0xc6>
    40a0:	01d71613          	slli	a2,a4,0x1d
    40a4:	00971793          	slli	a5,a4,0x9
    40a8:	83b1                	srli	a5,a5,0xc
    40aa:	00d66733          	or	a4,a2,a3
    40ae:	7ff57613          	andi	a2,a0,2047
    40b2:	bd61                	j	3f4a <__divdf3+0xce>
    40b4:	86d6                	mv	a3,s5
    40b6:	8752                	mv	a4,s4
    40b8:	88da                	mv	a7,s6
    40ba:	85de                	mv	a1,s7
    40bc:	b745                	j	405c <__divdf3+0x1e0>
    40be:	23476163          	bltu	a4,s4,42e0 <__divdf3+0x464>
    40c2:	20ea0d63          	beq	s4,a4,42dc <__divdf3+0x460>
    40c6:	86da                	mv	a3,s6
    40c8:	14fd                	addi	s1,s1,-1
    40ca:	8452                	mv	s0,s4
    40cc:	4b01                	li	s6,0
    40ce:	00871793          	slli	a5,a4,0x8
    40d2:	0188d313          	srli	t1,a7,0x18
    40d6:	00f36333          	or	t1,t1,a5
    40da:	01035e93          	srli	t4,t1,0x10
    40de:	03d457b3          	divu	a5,s0,t4
    40e2:	01031f13          	slli	t5,t1,0x10
    40e6:	010f5f13          	srli	t5,t5,0x10
    40ea:	0106d593          	srli	a1,a3,0x10
    40ee:	00889e13          	slli	t3,a7,0x8
    40f2:	03d47433          	remu	s0,s0,t4
    40f6:	02ff0733          	mul	a4,t5,a5
    40fa:	0442                	slli	s0,s0,0x10
    40fc:	8dc1                	or	a1,a1,s0
    40fe:	00e5fb63          	bgeu	a1,a4,4114 <__divdf3+0x298>
    4102:	959a                	add	a1,a1,t1
    4104:	fff78613          	addi	a2,a5,-1 # feffffff <_eusrstack+0xdeff97ff>
    4108:	2665ee63          	bltu	a1,t1,4384 <__divdf3+0x508>
    410c:	26e5fc63          	bgeu	a1,a4,4384 <__divdf3+0x508>
    4110:	17f9                	addi	a5,a5,-2
    4112:	959a                	add	a1,a1,t1
    4114:	8d99                	sub	a1,a1,a4
    4116:	03d5d733          	divu	a4,a1,t4
    411a:	06c2                	slli	a3,a3,0x10
    411c:	82c1                	srli	a3,a3,0x10
    411e:	03d5f5b3          	remu	a1,a1,t4
    4122:	02ef0633          	mul	a2,t5,a4
    4126:	05c2                	slli	a1,a1,0x10
    4128:	8dd5                	or	a1,a1,a3
    412a:	00c5fb63          	bgeu	a1,a2,4140 <__divdf3+0x2c4>
    412e:	959a                	add	a1,a1,t1
    4130:	fff70693          	addi	a3,a4,-1 # 7fffff <_data_lma+0x7f9757>
    4134:	2465e663          	bltu	a1,t1,4380 <__divdf3+0x504>
    4138:	24c5f463          	bgeu	a1,a2,4380 <__divdf3+0x504>
    413c:	1779                	addi	a4,a4,-2
    413e:	959a                	add	a1,a1,t1
    4140:	07c2                	slli	a5,a5,0x10
    4142:	6441                	lui	s0,0x10
    4144:	8f5d                	or	a4,a4,a5
    4146:	fff40793          	addi	a5,s0,-1 # ffff <_data_lma+0x9757>
    414a:	00f77533          	and	a0,a4,a5
    414e:	01075893          	srli	a7,a4,0x10
    4152:	010e5f93          	srli	t6,t3,0x10
    4156:	00fe77b3          	and	a5,t3,a5
    415a:	02f502b3          	mul	t0,a0,a5
    415e:	40c586b3          	sub	a3,a1,a2
    4162:	02f883b3          	mul	t2,a7,a5
    4166:	0102d593          	srli	a1,t0,0x10
    416a:	02af8633          	mul	a2,t6,a0
    416e:	961e                	add	a2,a2,t2
    4170:	962e                	add	a2,a2,a1
    4172:	03f88533          	mul	a0,a7,t6
    4176:	00767363          	bgeu	a2,t2,417c <__divdf3+0x300>
    417a:	9522                	add	a0,a0,s0
    417c:	68c1                	lui	a7,0x10
    417e:	18fd                	addi	a7,a7,-1
    4180:	01065593          	srli	a1,a2,0x10
    4184:	01167633          	and	a2,a2,a7
    4188:	0642                	slli	a2,a2,0x10
    418a:	0112f8b3          	and	a7,t0,a7
    418e:	95aa                	add	a1,a1,a0
    4190:	9646                	add	a2,a2,a7
    4192:	12b6e663          	bltu	a3,a1,42be <__divdf3+0x442>
    4196:	12b68263          	beq	a3,a1,42ba <__divdf3+0x43e>
    419a:	40cb0633          	sub	a2,s6,a2
    419e:	8e8d                	sub	a3,a3,a1
    41a0:	00cb3b33          	sltu	s6,s6,a2
    41a4:	41668b33          	sub	s6,a3,s6
    41a8:	3ff48513          	addi	a0,s1,1023
    41ac:	17630c63          	beq	t1,s6,4324 <__divdf3+0x4a8>
    41b0:	03db58b3          	divu	a7,s6,t4
    41b4:	01065593          	srli	a1,a2,0x10
    41b8:	03db7b33          	remu	s6,s6,t4
    41bc:	031f06b3          	mul	a3,t5,a7
    41c0:	0b42                	slli	s6,s6,0x10
    41c2:	0165eb33          	or	s6,a1,s6
    41c6:	00db7b63          	bgeu	s6,a3,41dc <__divdf3+0x360>
    41ca:	9b1a                	add	s6,s6,t1
    41cc:	fff88593          	addi	a1,a7,-1 # ffff <_data_lma+0x9757>
    41d0:	206b6d63          	bltu	s6,t1,43ea <__divdf3+0x56e>
    41d4:	20db7b63          	bgeu	s6,a3,43ea <__divdf3+0x56e>
    41d8:	18f9                	addi	a7,a7,-2
    41da:	9b1a                	add	s6,s6,t1
    41dc:	40db0b33          	sub	s6,s6,a3
    41e0:	03db56b3          	divu	a3,s6,t4
    41e4:	0642                	slli	a2,a2,0x10
    41e6:	8241                	srli	a2,a2,0x10
    41e8:	03db7b33          	remu	s6,s6,t4
    41ec:	02df0f33          	mul	t5,t5,a3
    41f0:	0b42                	slli	s6,s6,0x10
    41f2:	01666633          	or	a2,a2,s6
    41f6:	01e67b63          	bgeu	a2,t5,420c <__divdf3+0x390>
    41fa:	961a                	add	a2,a2,t1
    41fc:	fff68593          	addi	a1,a3,-1 # 7fffff <_data_lma+0x7f9757>
    4200:	1e666763          	bltu	a2,t1,43ee <__divdf3+0x572>
    4204:	1fe67563          	bgeu	a2,t5,43ee <__divdf3+0x572>
    4208:	16f9                	addi	a3,a3,-2
    420a:	961a                	add	a2,a2,t1
    420c:	08c2                	slli	a7,a7,0x10
    420e:	00d8e8b3          	or	a7,a7,a3
    4212:	01089593          	slli	a1,a7,0x10
    4216:	0108d293          	srli	t0,a7,0x10
    421a:	81c1                	srli	a1,a1,0x10
    421c:	02f58eb3          	mul	t4,a1,a5
    4220:	41e60633          	sub	a2,a2,t5
    4224:	02bf85b3          	mul	a1,t6,a1
    4228:	010ed693          	srli	a3,t4,0x10
    422c:	02f287b3          	mul	a5,t0,a5
    4230:	95be                	add	a1,a1,a5
    4232:	96ae                	add	a3,a3,a1
    4234:	025f8fb3          	mul	t6,t6,t0
    4238:	00f6f463          	bgeu	a3,a5,4240 <__divdf3+0x3c4>
    423c:	67c1                	lui	a5,0x10
    423e:	9fbe                	add	t6,t6,a5
    4240:	65c1                	lui	a1,0x10
    4242:	15fd                	addi	a1,a1,-1
    4244:	0106d793          	srli	a5,a3,0x10
    4248:	8eed                	and	a3,a3,a1
    424a:	06c2                	slli	a3,a3,0x10
    424c:	00befeb3          	and	t4,t4,a1
    4250:	9fbe                	add	t6,t6,a5
    4252:	96f6                	add	a3,a3,t4
    4254:	09f67f63          	bgeu	a2,t6,42f2 <__divdf3+0x476>
    4258:	961a                	add	a2,a2,t1
    425a:	fff88793          	addi	a5,a7,-1
    425e:	1a666963          	bltu	a2,t1,4410 <__divdf3+0x594>
    4262:	19f66863          	bltu	a2,t6,43f2 <__divdf3+0x576>
    4266:	1bf60f63          	beq	a2,t6,4424 <__divdf3+0x5a8>
    426a:	88be                	mv	a7,a5
    426c:	0018e893          	ori	a7,a7,1
    4270:	b511                	j	4074 <__divdf3+0x1f8>
    4272:	854a                	mv	a0,s2
    4274:	57b010ef          	jal	ra,5fee <__clzsi2>
    4278:	01550713          	addi	a4,a0,21
    427c:	45f1                	li	a1,28
    427e:	02050493          	addi	s1,a0,32
    4282:	4622                	lw	a2,8(sp)
    4284:	46b2                	lw	a3,12(sp)
    4286:	d4e5dae3          	bge	a1,a4,3fda <__divdf3+0x15e>
    428a:	ff850413          	addi	s0,a0,-8
    428e:	00891a33          	sll	s4,s2,s0
    4292:	4b01                	li	s6,0
    4294:	b385                	j	3ff4 <__divdf3+0x178>
    4296:	8532                	mv	a0,a2
    4298:	c432                	sw	a2,8(sp)
    429a:	555010ef          	jal	ra,5fee <__clzsi2>
    429e:	01550713          	addi	a4,a0,21
    42a2:	46f1                	li	a3,28
    42a4:	87aa                	mv	a5,a0
    42a6:	4622                	lw	a2,8(sp)
    42a8:	02050513          	addi	a0,a0,32
    42ac:	cee6d6e3          	bge	a3,a4,3f98 <__divdf3+0x11c>
    42b0:	17e1                	addi	a5,a5,-8
    42b2:	00f61733          	sll	a4,a2,a5
    42b6:	4881                	li	a7,0
    42b8:	b9e5                	j	3fb0 <__divdf3+0x134>
    42ba:	eecb70e3          	bgeu	s6,a2,419a <__divdf3+0x31e>
    42be:	9b72                	add	s6,s6,t3
    42c0:	01cb3533          	sltu	a0,s6,t3
    42c4:	951a                	add	a0,a0,t1
    42c6:	96aa                	add	a3,a3,a0
    42c8:	fff70513          	addi	a0,a4,-1
    42cc:	02d37863          	bgeu	t1,a3,42fc <__divdf3+0x480>
    42d0:	10b6e663          	bltu	a3,a1,43dc <__divdf3+0x560>
    42d4:	10d58263          	beq	a1,a3,43d8 <__divdf3+0x55c>
    42d8:	872a                	mv	a4,a0
    42da:	b5c1                	j	419a <__divdf3+0x31e>
    42dc:	df1b65e3          	bltu	s6,a7,40c6 <__divdf3+0x24a>
    42e0:	001b5593          	srli	a1,s6,0x1
    42e4:	01fa1693          	slli	a3,s4,0x1f
    42e8:	001a5413          	srli	s0,s4,0x1
    42ec:	8ecd                	or	a3,a3,a1
    42ee:	0b7e                	slli	s6,s6,0x1f
    42f0:	bbf9                	j	40ce <__divdf3+0x252>
    42f2:	f7f61de3          	bne	a2,t6,426c <__divdf3+0x3f0>
    42f6:	d6068fe3          	beqz	a3,4074 <__divdf3+0x1f8>
    42fa:	bfb9                	j	4258 <__divdf3+0x3dc>
    42fc:	fcd31ee3          	bne	t1,a3,42d8 <__divdf3+0x45c>
    4300:	fdcb78e3          	bgeu	s6,t3,42d0 <__divdf3+0x454>
    4304:	872a                	mv	a4,a0
    4306:	bd51                	j	419a <__divdf3+0x31e>
    4308:	00f8f793          	andi	a5,a7,15
    430c:	4691                	li	a3,4
    430e:	d6d789e3          	beq	a5,a3,4080 <__divdf3+0x204>
    4312:	ffc8b793          	sltiu	a5,a7,-4
    4316:	00488693          	addi	a3,a7,4
    431a:	0017c793          	xori	a5,a5,1
    431e:	828d                	srli	a3,a3,0x3
    4320:	973e                	add	a4,a4,a5
    4322:	b38d                	j	4084 <__divdf3+0x208>
    4324:	4681                	li	a3,0
    4326:	4785                	li	a5,1
    4328:	fea04ce3          	bgtz	a0,4320 <__divdf3+0x4a4>
    432c:	58fd                	li	a7,-1
    432e:	d0051ce3          	bnez	a0,4046 <__divdf3+0x1ca>
    4332:	c0100493          	li	s1,-1023
    4336:	4785                	li	a5,1
    4338:	41e48513          	addi	a0,s1,1054
    433c:	00a716b3          	sll	a3,a4,a0
    4340:	00f8d633          	srl	a2,a7,a5
    4344:	00a89533          	sll	a0,a7,a0
    4348:	8ed1                	or	a3,a3,a2
    434a:	00a03533          	snez	a0,a0
    434e:	8ec9                	or	a3,a3,a0
    4350:	0076f613          	andi	a2,a3,7
    4354:	00f75733          	srl	a4,a4,a5
    4358:	ce01                	beqz	a2,4370 <__divdf3+0x4f4>
    435a:	00f6f793          	andi	a5,a3,15
    435e:	4611                	li	a2,4
    4360:	00c78863          	beq	a5,a2,4370 <__divdf3+0x4f4>
    4364:	00468793          	addi	a5,a3,4
    4368:	00d7b6b3          	sltu	a3,a5,a3
    436c:	9736                	add	a4,a4,a3
    436e:	86be                	mv	a3,a5
    4370:	00871793          	slli	a5,a4,0x8
    4374:	0407d863          	bgez	a5,43c4 <__divdf3+0x548>
    4378:	4605                	li	a2,1
    437a:	4781                	li	a5,0
    437c:	4701                	li	a4,0
    437e:	b6f1                	j	3f4a <__divdf3+0xce>
    4380:	8736                	mv	a4,a3
    4382:	bb7d                	j	4140 <__divdf3+0x2c4>
    4384:	87b2                	mv	a5,a2
    4386:	b379                	j	4114 <__divdf3+0x298>
    4388:	46fd                	li	a3,31
    438a:	faf6d7e3          	bge	a3,a5,4338 <__divdf3+0x4bc>
    438e:	5605                	li	a2,-31
    4390:	8e09                	sub	a2,a2,a0
    4392:	02000693          	li	a3,32
    4396:	00c75633          	srl	a2,a4,a2
    439a:	00d78863          	beq	a5,a3,43aa <__divdf3+0x52e>
    439e:	43e48793          	addi	a5,s1,1086
    43a2:	00f717b3          	sll	a5,a4,a5
    43a6:	00f8e8b3          	or	a7,a7,a5
    43aa:	011036b3          	snez	a3,a7
    43ae:	8ed1                	or	a3,a3,a2
    43b0:	0076f613          	andi	a2,a3,7
    43b4:	4781                	li	a5,0
    43b6:	ce01                	beqz	a2,43ce <__divdf3+0x552>
    43b8:	00f6f793          	andi	a5,a3,15
    43bc:	4611                	li	a2,4
    43be:	4701                	li	a4,0
    43c0:	fac792e3          	bne	a5,a2,4364 <__divdf3+0x4e8>
    43c4:	00971793          	slli	a5,a4,0x9
    43c8:	01d71613          	slli	a2,a4,0x1d
    43cc:	83b1                	srli	a5,a5,0xc
    43ce:	0036d713          	srli	a4,a3,0x3
    43d2:	8f51                	or	a4,a4,a2
    43d4:	4601                	li	a2,0
    43d6:	be95                	j	3f4a <__divdf3+0xce>
    43d8:	f0cb70e3          	bgeu	s6,a2,42d8 <__divdf3+0x45c>
    43dc:	9b72                	add	s6,s6,t3
    43de:	01cb3533          	sltu	a0,s6,t3
    43e2:	951a                	add	a0,a0,t1
    43e4:	1779                	addi	a4,a4,-2
    43e6:	96aa                	add	a3,a3,a0
    43e8:	bb4d                	j	419a <__divdf3+0x31e>
    43ea:	88ae                	mv	a7,a1
    43ec:	bbc5                	j	41dc <__divdf3+0x360>
    43ee:	86ae                	mv	a3,a1
    43f0:	bd31                	j	420c <__divdf3+0x390>
    43f2:	001e1793          	slli	a5,t3,0x1
    43f6:	01c7be33          	sltu	t3,a5,t3
    43fa:	9372                	add	t1,t1,t3
    43fc:	961a                	add	a2,a2,t1
    43fe:	18f9                	addi	a7,a7,-2
    4400:	8e3e                	mv	t3,a5
    4402:	e7f615e3          	bne	a2,t6,426c <__divdf3+0x3f0>
    4406:	c6de07e3          	beq	t3,a3,4074 <__divdf3+0x1f8>
    440a:	0018e893          	ori	a7,a7,1
    440e:	b19d                	j	4074 <__divdf3+0x1f8>
    4410:	88be                	mv	a7,a5
    4412:	fff60ae3          	beq	a2,t6,4406 <__divdf3+0x58a>
    4416:	bd99                	j	426c <__divdf3+0x3f0>
    4418:	8836                	mv	a6,a3
    441a:	7ff00613          	li	a2,2047
    441e:	4781                	li	a5,0
    4420:	4701                	li	a4,0
    4422:	b625                	j	3f4a <__divdf3+0xce>
    4424:	fcde67e3          	bltu	t3,a3,43f2 <__divdf3+0x576>
    4428:	88be                	mv	a7,a5
    442a:	fede10e3          	bne	t3,a3,440a <__divdf3+0x58e>
    442e:	b199                	j	4074 <__divdf3+0x1f8>

00004430 <__eqdf2>:
__eqdf2():
    4430:	0145d713          	srli	a4,a1,0x14
    4434:	001007b7          	lui	a5,0x100
    4438:	17fd                	addi	a5,a5,-1
    443a:	0146d813          	srli	a6,a3,0x14
    443e:	7ff77713          	andi	a4,a4,2047
    4442:	7ff00893          	li	a7,2047
    4446:	00b7fe33          	and	t3,a5,a1
    444a:	8eaa                	mv	t4,a0
    444c:	8ff5                	and	a5,a5,a3
    444e:	81fd                	srli	a1,a1,0x1f
    4450:	8f32                	mv	t5,a2
    4452:	7ff87813          	andi	a6,a6,2047
    4456:	82fd                	srli	a3,a3,0x1f
    4458:	01170b63          	beq	a4,a7,446e <__eqdf2+0x3e>
    445c:	4305                	li	t1,1
    445e:	01180663          	beq	a6,a7,446a <__eqdf2+0x3a>
    4462:	01071463          	bne	a4,a6,446a <__eqdf2+0x3a>
    4466:	00fe0d63          	beq	t3,a5,4480 <__eqdf2+0x50>
    446a:	851a                	mv	a0,t1
    446c:	8082                	ret
    446e:	00ae68b3          	or	a7,t3,a0
    4472:	4305                	li	t1,1
    4474:	fe089be3          	bnez	a7,446a <__eqdf2+0x3a>
    4478:	fee819e3          	bne	a6,a4,446a <__eqdf2+0x3a>
    447c:	8fd1                	or	a5,a5,a2
    447e:	f7f5                	bnez	a5,446a <__eqdf2+0x3a>
    4480:	4305                	li	t1,1
    4482:	ffee94e3          	bne	t4,t5,446a <__eqdf2+0x3a>
    4486:	4301                	li	t1,0
    4488:	fed581e3          	beq	a1,a3,446a <__eqdf2+0x3a>
    448c:	4305                	li	t1,1
    448e:	ff71                	bnez	a4,446a <__eqdf2+0x3a>
    4490:	00ae6533          	or	a0,t3,a0
    4494:	00a03333          	snez	t1,a0
    4498:	bfc9                	j	446a <__eqdf2+0x3a>

0000449a <__gedf2>:
__gtdf2():
    449a:	0145d713          	srli	a4,a1,0x14
    449e:	001007b7          	lui	a5,0x100
    44a2:	17fd                	addi	a5,a5,-1
    44a4:	0146d813          	srli	a6,a3,0x14
    44a8:	7ff77713          	andi	a4,a4,2047
    44ac:	7ff00893          	li	a7,2047
    44b0:	00b7f333          	and	t1,a5,a1
    44b4:	8e2a                	mv	t3,a0
    44b6:	8ff5                	and	a5,a5,a3
    44b8:	81fd                	srli	a1,a1,0x1f
    44ba:	8eb2                	mv	t4,a2
    44bc:	7ff87813          	andi	a6,a6,2047
    44c0:	82fd                	srli	a3,a3,0x1f
    44c2:	03170863          	beq	a4,a7,44f2 <__gedf2+0x58>
    44c6:	03180063          	beq	a6,a7,44e6 <__gedf2+0x4c>
    44ca:	eb0d                	bnez	a4,44fc <__gedf2+0x62>
    44cc:	00a368b3          	or	a7,t1,a0
    44d0:	00081463          	bnez	a6,44d8 <__gedf2+0x3e>
    44d4:	8e5d                	or	a2,a2,a5
    44d6:	ca29                	beqz	a2,4528 <__gedf2+0x8e>
    44d8:	04088563          	beqz	a7,4522 <__gedf2+0x88>
    44dc:	02d58863          	beq	a1,a3,450c <__gedf2+0x72>
    44e0:	4505                	li	a0,1
    44e2:	ed95                	bnez	a1,451e <__gedf2+0x84>
    44e4:	8082                	ret
    44e6:	00c7e8b3          	or	a7,a5,a2
    44ea:	fe0880e3          	beqz	a7,44ca <__gedf2+0x30>
    44ee:	5579                	li	a0,-2
    44f0:	8082                	ret
    44f2:	00a36533          	or	a0,t1,a0
    44f6:	fd65                	bnez	a0,44ee <__gedf2+0x54>
    44f8:	02e80c63          	beq	a6,a4,4530 <__gedf2+0x96>
    44fc:	00081463          	bnez	a6,4504 <__gedf2+0x6a>
    4500:	8e5d                	or	a2,a2,a5
    4502:	de79                	beqz	a2,44e0 <__gedf2+0x46>
    4504:	fcd59ee3          	bne	a1,a3,44e0 <__gedf2+0x46>
    4508:	fce84ce3          	blt	a6,a4,44e0 <__gedf2+0x46>
    450c:	01074863          	blt	a4,a6,451c <__gedf2+0x82>
    4510:	fc67e8e3          	bltu	a5,t1,44e0 <__gedf2+0x46>
    4514:	02f30363          	beq	t1,a5,453a <__gedf2+0xa0>
    4518:	00f37f63          	bgeu	t1,a5,4536 <__gedf2+0x9c>
    451c:	e581                	bnez	a1,4524 <__gedf2+0x8a>
    451e:	557d                	li	a0,-1
    4520:	8082                	ret
    4522:	def5                	beqz	a3,451e <__gedf2+0x84>
    4524:	4505                	li	a0,1
    4526:	8082                	ret
    4528:	4501                	li	a0,0
    452a:	fa089be3          	bnez	a7,44e0 <__gedf2+0x46>
    452e:	8082                	ret
    4530:	8e5d                	or	a2,a2,a5
    4532:	da69                	beqz	a2,4504 <__gedf2+0x6a>
    4534:	bf6d                	j	44ee <__gedf2+0x54>
    4536:	4501                	li	a0,0
    4538:	8082                	ret
    453a:	fbcee3e3          	bltu	t4,t3,44e0 <__gedf2+0x46>
    453e:	4501                	li	a0,0
    4540:	fbde72e3          	bgeu	t3,t4,44e4 <__gedf2+0x4a>
    4544:	f1e5                	bnez	a1,4524 <__gedf2+0x8a>
    4546:	bfe1                	j	451e <__gedf2+0x84>

00004548 <__muldf3>:
__muldf3():
    4548:	7139                	addi	sp,sp,-64
    454a:	d84a                	sw	s2,48(sp)
    454c:	0145d913          	srli	s2,a1,0x14
    4550:	d64e                	sw	s3,44(sp)
    4552:	d452                	sw	s4,40(sp)
    4554:	d256                	sw	s5,36(sp)
    4556:	00c59993          	slli	s3,a1,0xc
    455a:	de06                	sw	ra,60(sp)
    455c:	dc22                	sw	s0,56(sp)
    455e:	da26                	sw	s1,52(sp)
    4560:	d05a                	sw	s6,32(sp)
    4562:	ce5e                	sw	s7,28(sp)
    4564:	7ff97913          	andi	s2,s2,2047
    4568:	8a2a                	mv	s4,a0
    456a:	00c9d993          	srli	s3,s3,0xc
    456e:	01f5da93          	srli	s5,a1,0x1f
    4572:	0e090d63          	beqz	s2,466c <__muldf3+0x124>
    4576:	7ff00793          	li	a5,2047
    457a:	18f90663          	beq	s2,a5,4706 <__muldf3+0x1be>
    457e:	01d55413          	srli	s0,a0,0x1d
    4582:	098e                	slli	s3,s3,0x3
    4584:	013469b3          	or	s3,s0,s3
    4588:	00800437          	lui	s0,0x800
    458c:	0089e433          	or	s0,s3,s0
    4590:	00351493          	slli	s1,a0,0x3
    4594:	c0190913          	addi	s2,s2,-1023
    4598:	4981                	li	s3,0
    459a:	4b81                	li	s7,0
    459c:	0146d713          	srli	a4,a3,0x14
    45a0:	00c69a13          	slli	s4,a3,0xc
    45a4:	7ff77713          	andi	a4,a4,2047
    45a8:	85b2                	mv	a1,a2
    45aa:	00ca5a13          	srli	s4,s4,0xc
    45ae:	01f6db13          	srli	s6,a3,0x1f
    45b2:	10070b63          	beqz	a4,46c8 <__muldf3+0x180>
    45b6:	7ff00793          	li	a5,2047
    45ba:	04f70363          	beq	a4,a5,4600 <__muldf3+0xb8>
    45be:	01d65793          	srli	a5,a2,0x1d
    45c2:	0a0e                	slli	s4,s4,0x3
    45c4:	0147ea33          	or	s4,a5,s4
    45c8:	c0170713          	addi	a4,a4,-1023
    45cc:	008007b7          	lui	a5,0x800
    45d0:	00fa67b3          	or	a5,s4,a5
    45d4:	00361593          	slli	a1,a2,0x3
    45d8:	993a                	add	s2,s2,a4
    45da:	4881                	li	a7,0
    45dc:	016ac733          	xor	a4,s5,s6
    45e0:	46bd                	li	a3,15
    45e2:	853a                	mv	a0,a4
    45e4:	00190813          	addi	a6,s2,1
    45e8:	1736e863          	bltu	a3,s3,4758 <__muldf3+0x210>
    45ec:	00002617          	auipc	a2,0x2
    45f0:	13c60613          	addi	a2,a2,316 # 6728 <init_jk+0xa0>
    45f4:	098a                	slli	s3,s3,0x2
    45f6:	99b2                	add	s3,s3,a2
    45f8:	0009a683          	lw	a3,0(s3)
    45fc:	96b2                	add	a3,a3,a2
    45fe:	8682                	jr	a3
    4600:	00ca67b3          	or	a5,s4,a2
    4604:	7ff90913          	addi	s2,s2,2047
    4608:	12079963          	bnez	a5,473a <__muldf3+0x1f2>
    460c:	0029e993          	ori	s3,s3,2
    4610:	4581                	li	a1,0
    4612:	4889                	li	a7,2
    4614:	b7e1                	j	45dc <__muldf3+0x94>
    4616:	4701                	li	a4,0
    4618:	7ff00793          	li	a5,2047
    461c:	00080437          	lui	s0,0x80
    4620:	4481                	li	s1,0
    4622:	0432                	slli	s0,s0,0xc
    4624:	07d2                	slli	a5,a5,0x14
    4626:	8031                	srli	s0,s0,0xc
    4628:	077e                	slli	a4,a4,0x1f
    462a:	8c5d                	or	s0,s0,a5
    462c:	8c59                	or	s0,s0,a4
    462e:	85a2                	mv	a1,s0
    4630:	50f2                	lw	ra,60(sp)
    4632:	5462                	lw	s0,56(sp)
    4634:	8526                	mv	a0,s1
    4636:	5942                	lw	s2,48(sp)
    4638:	54d2                	lw	s1,52(sp)
    463a:	59b2                	lw	s3,44(sp)
    463c:	5a22                	lw	s4,40(sp)
    463e:	5a92                	lw	s5,36(sp)
    4640:	5b02                	lw	s6,32(sp)
    4642:	4bf2                	lw	s7,28(sp)
    4644:	6121                	addi	sp,sp,64
    4646:	8082                	ret
    4648:	855a                	mv	a0,s6
    464a:	843e                	mv	s0,a5
    464c:	84ae                	mv	s1,a1
    464e:	8bc6                	mv	s7,a7
    4650:	4789                	li	a5,2
    4652:	0efb8d63          	beq	s7,a5,474c <__muldf3+0x204>
    4656:	478d                	li	a5,3
    4658:	fafb8fe3          	beq	s7,a5,4616 <__muldf3+0xce>
    465c:	4785                	li	a5,1
    465e:	872a                	mv	a4,a0
    4660:	38fb9e63          	bne	s7,a5,49fc <__muldf3+0x4b4>
    4664:	4781                	li	a5,0
    4666:	4401                	li	s0,0
    4668:	4481                	li	s1,0
    466a:	bf65                	j	4622 <__muldf3+0xda>
    466c:	00a9e433          	or	s0,s3,a0
    4670:	c061                	beqz	s0,4730 <__muldf3+0x1e8>
    4672:	c636                	sw	a3,12(sp)
    4674:	c432                	sw	a2,8(sp)
    4676:	2a098c63          	beqz	s3,492e <__muldf3+0x3e6>
    467a:	854e                	mv	a0,s3
    467c:	173010ef          	jal	ra,5fee <__clzsi2>
    4680:	4622                	lw	a2,8(sp)
    4682:	46b2                	lw	a3,12(sp)
    4684:	87aa                	mv	a5,a0
    4686:	ff550713          	addi	a4,a0,-11
    468a:	4475                	li	s0,29
    468c:	ff878493          	addi	s1,a5,-8 # 7ffff8 <_data_lma+0x7f9750>
    4690:	8c19                	sub	s0,s0,a4
    4692:	009999b3          	sll	s3,s3,s1
    4696:	008a5433          	srl	s0,s4,s0
    469a:	01346433          	or	s0,s0,s3
    469e:	009a14b3          	sll	s1,s4,s1
    46a2:	0146d713          	srli	a4,a3,0x14
    46a6:	c0d00913          	li	s2,-1011
    46aa:	00c69a13          	slli	s4,a3,0xc
    46ae:	7ff77713          	andi	a4,a4,2047
    46b2:	40f90933          	sub	s2,s2,a5
    46b6:	4981                	li	s3,0
    46b8:	4b81                	li	s7,0
    46ba:	85b2                	mv	a1,a2
    46bc:	00ca5a13          	srli	s4,s4,0xc
    46c0:	01f6db13          	srli	s6,a3,0x1f
    46c4:	ee0719e3          	bnez	a4,45b6 <__muldf3+0x6e>
    46c8:	00ca67b3          	or	a5,s4,a2
    46cc:	c7b1                	beqz	a5,4718 <__muldf3+0x1d0>
    46ce:	220a0f63          	beqz	s4,490c <__muldf3+0x3c4>
    46d2:	8552                	mv	a0,s4
    46d4:	c432                	sw	a2,8(sp)
    46d6:	119010ef          	jal	ra,5fee <__clzsi2>
    46da:	4622                	lw	a2,8(sp)
    46dc:	872a                	mv	a4,a0
    46de:	ff550693          	addi	a3,a0,-11
    46e2:	47f5                	li	a5,29
    46e4:	ff870593          	addi	a1,a4,-8
    46e8:	8f95                	sub	a5,a5,a3
    46ea:	00ba1a33          	sll	s4,s4,a1
    46ee:	00f657b3          	srl	a5,a2,a5
    46f2:	0147e7b3          	or	a5,a5,s4
    46f6:	00b615b3          	sll	a1,a2,a1
    46fa:	40e90933          	sub	s2,s2,a4
    46fe:	c0d90913          	addi	s2,s2,-1011
    4702:	4881                	li	a7,0
    4704:	bde1                	j	45dc <__muldf3+0x94>
    4706:	00a9e433          	or	s0,s3,a0
    470a:	ec01                	bnez	s0,4722 <__muldf3+0x1da>
    470c:	49a1                	li	s3,8
    470e:	4481                	li	s1,0
    4710:	7ff00913          	li	s2,2047
    4714:	4b89                	li	s7,2
    4716:	b559                	j	459c <__muldf3+0x54>
    4718:	0019e993          	ori	s3,s3,1
    471c:	4581                	li	a1,0
    471e:	4885                	li	a7,1
    4720:	bd75                	j	45dc <__muldf3+0x94>
    4722:	844e                	mv	s0,s3
    4724:	84aa                	mv	s1,a0
    4726:	49b1                	li	s3,12
    4728:	7ff00913          	li	s2,2047
    472c:	4b8d                	li	s7,3
    472e:	b5bd                	j	459c <__muldf3+0x54>
    4730:	4991                	li	s3,4
    4732:	4481                	li	s1,0
    4734:	4901                	li	s2,0
    4736:	4b85                	li	s7,1
    4738:	b595                	j	459c <__muldf3+0x54>
    473a:	0039e993          	ori	s3,s3,3
    473e:	87d2                	mv	a5,s4
    4740:	488d                	li	a7,3
    4742:	bd69                	j	45dc <__muldf3+0x94>
    4744:	4789                	li	a5,2
    4746:	8556                	mv	a0,s5
    4748:	f0fb97e3          	bne	s7,a5,4656 <__muldf3+0x10e>
    474c:	872a                	mv	a4,a0
    474e:	7ff00793          	li	a5,2047
    4752:	4401                	li	s0,0
    4754:	4481                	li	s1,0
    4756:	b5f1                	j	4622 <__muldf3+0xda>
    4758:	6ec1                	lui	t4,0x10
    475a:	fffe8613          	addi	a2,t4,-1 # ffff <_data_lma+0x9757>
    475e:	0104d693          	srli	a3,s1,0x10
    4762:	0105de13          	srli	t3,a1,0x10
    4766:	8cf1                	and	s1,s1,a2
    4768:	8df1                	and	a1,a1,a2
    476a:	02958633          	mul	a2,a1,s1
    476e:	02b68333          	mul	t1,a3,a1
    4772:	01065893          	srli	a7,a2,0x10
    4776:	029e0533          	mul	a0,t3,s1
    477a:	951a                	add	a0,a0,t1
    477c:	98aa                	add	a7,a7,a0
    477e:	03c682b3          	mul	t0,a3,t3
    4782:	0068f363          	bgeu	a7,t1,4788 <__muldf3+0x240>
    4786:	92f6                	add	t0,t0,t4
    4788:	6fc1                	lui	t6,0x10
    478a:	ffff8313          	addi	t1,t6,-1 # ffff <_data_lma+0x9757>
    478e:	0067f533          	and	a0,a5,t1
    4792:	0107d393          	srli	t2,a5,0x10
    4796:	0068f7b3          	and	a5,a7,t1
    479a:	07c2                	slli	a5,a5,0x10
    479c:	00667333          	and	t1,a2,t1
    47a0:	933e                	add	t1,t1,a5
    47a2:	02950633          	mul	a2,a0,s1
    47a6:	0108d893          	srli	a7,a7,0x10
    47aa:	02a687b3          	mul	a5,a3,a0
    47ae:	01065f13          	srli	t5,a2,0x10
    47b2:	029384b3          	mul	s1,t2,s1
    47b6:	94be                	add	s1,s1,a5
    47b8:	94fa                	add	s1,s1,t5
    47ba:	02768eb3          	mul	t4,a3,t2
    47be:	00f4f363          	bgeu	s1,a5,47c4 <__muldf3+0x27c>
    47c2:	9efe                	add	t4,t4,t6
    47c4:	6a41                	lui	s4,0x10
    47c6:	fffa0793          	addi	a5,s4,-1 # ffff <_data_lma+0x9757>
    47ca:	01045f93          	srli	t6,s0,0x10
    47ce:	00f476b3          	and	a3,s0,a5
    47d2:	00f4f9b3          	and	s3,s1,a5
    47d6:	8e7d                	and	a2,a2,a5
    47d8:	80c1                	srli	s1,s1,0x10
    47da:	02d58433          	mul	s0,a1,a3
    47de:	09c2                	slli	s3,s3,0x10
    47e0:	01d48f33          	add	t5,s1,t4
    47e4:	99b2                	add	s3,s3,a2
    47e6:	98ce                	add	a7,a7,s3
    47e8:	02de07b3          	mul	a5,t3,a3
    47ec:	01045e93          	srli	t4,s0,0x10
    47f0:	02bf85b3          	mul	a1,t6,a1
    47f4:	97ae                	add	a5,a5,a1
    47f6:	9ebe                	add	t4,t4,a5
    47f8:	03fe0e33          	mul	t3,t3,t6
    47fc:	00bef363          	bgeu	t4,a1,4802 <__muldf3+0x2ba>
    4800:	9e52                	add	t3,t3,s4
    4802:	67c1                	lui	a5,0x10
    4804:	fff78593          	addi	a1,a5,-1 # ffff <_data_lma+0x9757>
    4808:	00bef633          	and	a2,t4,a1
    480c:	8c6d                	and	s0,s0,a1
    480e:	0642                	slli	a2,a2,0x10
    4810:	9622                	add	a2,a2,s0
    4812:	010ede93          	srli	t4,t4,0x10
    4816:	02d505b3          	mul	a1,a0,a3
    481a:	9e76                	add	t3,t3,t4
    481c:	02af8533          	mul	a0,t6,a0
    4820:	0105d413          	srli	s0,a1,0x10
    4824:	02d386b3          	mul	a3,t2,a3
    4828:	96aa                	add	a3,a3,a0
    482a:	96a2                	add	a3,a3,s0
    482c:	03f38fb3          	mul	t6,t2,t6
    4830:	00a6f363          	bgeu	a3,a0,4836 <__muldf3+0x2ee>
    4834:	9fbe                	add	t6,t6,a5
    4836:	6541                	lui	a0,0x10
    4838:	157d                	addi	a0,a0,-1
    483a:	00a6f7b3          	and	a5,a3,a0
    483e:	07c2                	slli	a5,a5,0x10
    4840:	8d6d                	and	a0,a0,a1
    4842:	97aa                	add	a5,a5,a0
    4844:	005885b3          	add	a1,a7,t0
    4848:	0135b9b3          	sltu	s3,a1,s3
    484c:	97fa                	add	a5,a5,t5
    484e:	95b2                	add	a1,a1,a2
    4850:	01378433          	add	s0,a5,s3
    4854:	00c5b633          	sltu	a2,a1,a2
    4858:	01c40eb3          	add	t4,s0,t3
    485c:	00ce8533          	add	a0,t4,a2
    4860:	01343433          	sltu	s0,s0,s3
    4864:	01e7b7b3          	sltu	a5,a5,t5
    4868:	8fc1                	or	a5,a5,s0
    486a:	01cebe33          	sltu	t3,t4,t3
    486e:	0106d413          	srli	s0,a3,0x10
    4872:	00c53633          	sltu	a2,a0,a2
    4876:	943e                	add	s0,s0,a5
    4878:	00ce6633          	or	a2,t3,a2
    487c:	00959493          	slli	s1,a1,0x9
    4880:	9432                	add	s0,s0,a2
    4882:	947e                	add	s0,s0,t6
    4884:	0064e4b3          	or	s1,s1,t1
    4888:	0426                	slli	s0,s0,0x9
    488a:	01755693          	srli	a3,a0,0x17
    488e:	009034b3          	snez	s1,s1
    4892:	81dd                	srli	a1,a1,0x17
    4894:	00951793          	slli	a5,a0,0x9
    4898:	8ccd                	or	s1,s1,a1
    489a:	8c55                	or	s0,s0,a3
    489c:	8cdd                	or	s1,s1,a5
    489e:	00741793          	slli	a5,s0,0x7
    48a2:	0007db63          	bgez	a5,48b8 <__muldf3+0x370>
    48a6:	0014d793          	srli	a5,s1,0x1
    48aa:	8885                	andi	s1,s1,1
    48ac:	01f41693          	slli	a3,s0,0x1f
    48b0:	8cdd                	or	s1,s1,a5
    48b2:	8cd5                	or	s1,s1,a3
    48b4:	8005                	srli	s0,s0,0x1
    48b6:	8942                	mv	s2,a6
    48b8:	3ff90793          	addi	a5,s2,1023
    48bc:	08f05963          	blez	a5,494e <__muldf3+0x406>
    48c0:	0074f693          	andi	a3,s1,7
    48c4:	ce81                	beqz	a3,48dc <__muldf3+0x394>
    48c6:	00f4f693          	andi	a3,s1,15
    48ca:	4611                	li	a2,4
    48cc:	00c68863          	beq	a3,a2,48dc <__muldf3+0x394>
    48d0:	00448693          	addi	a3,s1,4
    48d4:	0096b4b3          	sltu	s1,a3,s1
    48d8:	9426                	add	s0,s0,s1
    48da:	84b6                	mv	s1,a3
    48dc:	00741693          	slli	a3,s0,0x7
    48e0:	0006d863          	bgez	a3,48f0 <__muldf3+0x3a8>
    48e4:	ff0007b7          	lui	a5,0xff000
    48e8:	17fd                	addi	a5,a5,-1
    48ea:	8c7d                	and	s0,s0,a5
    48ec:	40090793          	addi	a5,s2,1024
    48f0:	7fe00693          	li	a3,2046
    48f4:	0ef6cf63          	blt	a3,a5,49f2 <__muldf3+0x4aa>
    48f8:	0034d693          	srli	a3,s1,0x3
    48fc:	01d41493          	slli	s1,s0,0x1d
    4900:	0426                	slli	s0,s0,0x9
    4902:	8cd5                	or	s1,s1,a3
    4904:	8031                	srli	s0,s0,0xc
    4906:	7ff7f793          	andi	a5,a5,2047
    490a:	bb21                	j	4622 <__muldf3+0xda>
    490c:	8532                	mv	a0,a2
    490e:	c432                	sw	a2,8(sp)
    4910:	6de010ef          	jal	ra,5fee <__clzsi2>
    4914:	01550693          	addi	a3,a0,21 # 10015 <_data_lma+0x976d>
    4918:	47f1                	li	a5,28
    491a:	02050713          	addi	a4,a0,32
    491e:	4622                	lw	a2,8(sp)
    4920:	dcd7d1e3          	bge	a5,a3,46e2 <__muldf3+0x19a>
    4924:	1561                	addi	a0,a0,-8
    4926:	00a617b3          	sll	a5,a2,a0
    492a:	4581                	li	a1,0
    492c:	b3f9                	j	46fa <__muldf3+0x1b2>
    492e:	6c0010ef          	jal	ra,5fee <__clzsi2>
    4932:	01550713          	addi	a4,a0,21
    4936:	45f1                	li	a1,28
    4938:	02050793          	addi	a5,a0,32
    493c:	4622                	lw	a2,8(sp)
    493e:	46b2                	lw	a3,12(sp)
    4940:	d4e5d5e3          	bge	a1,a4,468a <__muldf3+0x142>
    4944:	1561                	addi	a0,a0,-8
    4946:	00aa1433          	sll	s0,s4,a0
    494a:	4481                	li	s1,0
    494c:	bb99                	j	46a2 <__muldf3+0x15a>
    494e:	4685                	li	a3,1
    4950:	8e9d                	sub	a3,a3,a5
    4952:	e7b1                	bnez	a5,499e <__muldf3+0x456>
    4954:	41e90913          	addi	s2,s2,1054
    4958:	012497b3          	sll	a5,s1,s2
    495c:	00d4d4b3          	srl	s1,s1,a3
    4960:	01241933          	sll	s2,s0,s2
    4964:	00f037b3          	snez	a5,a5
    4968:	009964b3          	or	s1,s2,s1
    496c:	8cdd                	or	s1,s1,a5
    496e:	0074f793          	andi	a5,s1,7
    4972:	00d456b3          	srl	a3,s0,a3
    4976:	cf81                	beqz	a5,498e <__muldf3+0x446>
    4978:	00f4f793          	andi	a5,s1,15
    497c:	4611                	li	a2,4
    497e:	00c78863          	beq	a5,a2,498e <__muldf3+0x446>
    4982:	00448793          	addi	a5,s1,4
    4986:	0097b4b3          	sltu	s1,a5,s1
    498a:	96a6                	add	a3,a3,s1
    498c:	84be                	mv	s1,a5
    498e:	00869793          	slli	a5,a3,0x8
    4992:	0407d863          	bgez	a5,49e2 <__muldf3+0x49a>
    4996:	4785                	li	a5,1
    4998:	4401                	li	s0,0
    499a:	4481                	li	s1,0
    499c:	b159                	j	4622 <__muldf3+0xda>
    499e:	03800613          	li	a2,56
    49a2:	ccd641e3          	blt	a2,a3,4664 <__muldf3+0x11c>
    49a6:	467d                	li	a2,31
    49a8:	fad656e3          	bge	a2,a3,4954 <__muldf3+0x40c>
    49ac:	5605                	li	a2,-31
    49ae:	40f607b3          	sub	a5,a2,a5
    49b2:	02000593          	li	a1,32
    49b6:	00f45633          	srl	a2,s0,a5
    49ba:	00b68763          	beq	a3,a1,49c8 <__muldf3+0x480>
    49be:	43e90913          	addi	s2,s2,1086
    49c2:	012417b3          	sll	a5,s0,s2
    49c6:	8cdd                	or	s1,s1,a5
    49c8:	009034b3          	snez	s1,s1
    49cc:	8cd1                	or	s1,s1,a2
    49ce:	0074f693          	andi	a3,s1,7
    49d2:	4401                	li	s0,0
    49d4:	ca99                	beqz	a3,49ea <__muldf3+0x4a2>
    49d6:	00f4f793          	andi	a5,s1,15
    49da:	4611                	li	a2,4
    49dc:	4681                	li	a3,0
    49de:	fac792e3          	bne	a5,a2,4982 <__muldf3+0x43a>
    49e2:	00969413          	slli	s0,a3,0x9
    49e6:	8031                	srli	s0,s0,0xc
    49e8:	06f6                	slli	a3,a3,0x1d
    49ea:	808d                	srli	s1,s1,0x3
    49ec:	8cd5                	or	s1,s1,a3
    49ee:	4781                	li	a5,0
    49f0:	b90d                	j	4622 <__muldf3+0xda>
    49f2:	7ff00793          	li	a5,2047
    49f6:	4401                	li	s0,0
    49f8:	4481                	li	s1,0
    49fa:	b125                	j	4622 <__muldf3+0xda>
    49fc:	8942                	mv	s2,a6
    49fe:	bd6d                	j	48b8 <__muldf3+0x370>

00004a00 <__subdf3>:
__subdf3():
    4a00:	00100737          	lui	a4,0x100
    4a04:	177d                	addi	a4,a4,-1
    4a06:	1101                	addi	sp,sp,-32
    4a08:	00b77333          	and	t1,a4,a1
    4a0c:	0146d893          	srli	a7,a3,0x14
    4a10:	8f75                	and	a4,a4,a3
    4a12:	01d65e93          	srli	t4,a2,0x1d
    4a16:	cc22                	sw	s0,24(sp)
    4a18:	ca26                	sw	s1,20(sp)
    4a1a:	030e                	slli	t1,t1,0x3
    4a1c:	0145d493          	srli	s1,a1,0x14
    4a20:	01d55793          	srli	a5,a0,0x1d
    4a24:	070e                	slli	a4,a4,0x3
    4a26:	ce06                	sw	ra,28(sp)
    4a28:	c84a                	sw	s2,16(sp)
    4a2a:	c64e                	sw	s3,12(sp)
    4a2c:	7ff8f893          	andi	a7,a7,2047
    4a30:	7ff00e13          	li	t3,2047
    4a34:	00eee733          	or	a4,t4,a4
    4a38:	7ff4f493          	andi	s1,s1,2047
    4a3c:	01f5d413          	srli	s0,a1,0x1f
    4a40:	0067e333          	or	t1,a5,t1
    4a44:	00351f13          	slli	t5,a0,0x3
    4a48:	82fd                	srli	a3,a3,0x1f
    4a4a:	00361e93          	slli	t4,a2,0x3
    4a4e:	19c88063          	beq	a7,t3,4bce <__subdf3+0x1ce>
    4a52:	0016c693          	xori	a3,a3,1
    4a56:	411485b3          	sub	a1,s1,a7
    4a5a:	12d40563          	beq	s0,a3,4b84 <__subdf3+0x184>
    4a5e:	18b05163          	blez	a1,4be0 <__subdf3+0x1e0>
    4a62:	1a088b63          	beqz	a7,4c18 <__subdf3+0x218>
    4a66:	008007b7          	lui	a5,0x800
    4a6a:	8f5d                	or	a4,a4,a5
    4a6c:	59c48163          	beq	s1,t3,4fee <__subdf3+0x5ee>
    4a70:	03800793          	li	a5,56
    4a74:	34b7c463          	blt	a5,a1,4dbc <__subdf3+0x3bc>
    4a78:	47fd                	li	a5,31
    4a7a:	48b7c563          	blt	a5,a1,4f04 <__subdf3+0x504>
    4a7e:	02000793          	li	a5,32
    4a82:	8f8d                	sub	a5,a5,a1
    4a84:	00bed9b3          	srl	s3,t4,a1
    4a88:	00f71833          	sll	a6,a4,a5
    4a8c:	00fe9eb3          	sll	t4,t4,a5
    4a90:	01386833          	or	a6,a6,s3
    4a94:	00b75733          	srl	a4,a4,a1
    4a98:	01d039b3          	snez	s3,t4
    4a9c:	01386833          	or	a6,a6,s3
    4aa0:	40e30333          	sub	t1,t1,a4
    4aa4:	410f09b3          	sub	s3,t5,a6
    4aa8:	013f37b3          	sltu	a5,t5,s3
    4aac:	40f30633          	sub	a2,t1,a5
    4ab0:	00861793          	slli	a5,a2,0x8
    4ab4:	2407d363          	bgez	a5,4cfa <__subdf3+0x2fa>
    4ab8:	00800937          	lui	s2,0x800
    4abc:	197d                	addi	s2,s2,-1
    4abe:	01267933          	and	s2,a2,s2
    4ac2:	2c090f63          	beqz	s2,4da0 <__subdf3+0x3a0>
    4ac6:	854a                	mv	a0,s2
    4ac8:	526010ef          	jal	ra,5fee <__clzsi2>
    4acc:	ff850713          	addi	a4,a0,-8
    4ad0:	02000793          	li	a5,32
    4ad4:	8f99                	sub	a5,a5,a4
    4ad6:	00f9d7b3          	srl	a5,s3,a5
    4ada:	00e91633          	sll	a2,s2,a4
    4ade:	8fd1                	or	a5,a5,a2
    4ae0:	00e999b3          	sll	s3,s3,a4
    4ae4:	2a974463          	blt	a4,s1,4d8c <__subdf3+0x38c>
    4ae8:	8f05                	sub	a4,a4,s1
    4aea:	00170613          	addi	a2,a4,1 # 100001 <_data_lma+0xf9759>
    4aee:	46fd                	li	a3,31
    4af0:	3ac6c563          	blt	a3,a2,4e9a <__subdf3+0x49a>
    4af4:	02000713          	li	a4,32
    4af8:	8f11                	sub	a4,a4,a2
    4afa:	00c9d6b3          	srl	a3,s3,a2
    4afe:	00e99833          	sll	a6,s3,a4
    4b02:	00e79733          	sll	a4,a5,a4
    4b06:	8f55                	or	a4,a4,a3
    4b08:	01003833          	snez	a6,a6
    4b0c:	010769b3          	or	s3,a4,a6
    4b10:	00c7d633          	srl	a2,a5,a2
    4b14:	4481                	li	s1,0
    4b16:	0079f793          	andi	a5,s3,7
    4b1a:	cf81                	beqz	a5,4b32 <__subdf3+0x132>
    4b1c:	00f9f693          	andi	a3,s3,15
    4b20:	4791                	li	a5,4
    4b22:	00f68863          	beq	a3,a5,4b32 <__subdf3+0x132>
    4b26:	00498693          	addi	a3,s3,4
    4b2a:	0136b833          	sltu	a6,a3,s3
    4b2e:	9642                	add	a2,a2,a6
    4b30:	89b6                	mv	s3,a3
    4b32:	00861793          	slli	a5,a2,0x8
    4b36:	1c07d663          	bgez	a5,4d02 <__subdf3+0x302>
    4b3a:	00148713          	addi	a4,s1,1
    4b3e:	7ff00793          	li	a5,2047
    4b42:	8805                	andi	s0,s0,1
    4b44:	20f70663          	beq	a4,a5,4d50 <__subdf3+0x350>
    4b48:	ff8007b7          	lui	a5,0xff800
    4b4c:	17fd                	addi	a5,a5,-1
    4b4e:	8ff1                	and	a5,a5,a2
    4b50:	01d79813          	slli	a6,a5,0x1d
    4b54:	0039d993          	srli	s3,s3,0x3
    4b58:	07a6                	slli	a5,a5,0x9
    4b5a:	01386833          	or	a6,a6,s3
    4b5e:	83b1                	srli	a5,a5,0xc
    4b60:	7ff77713          	andi	a4,a4,2047
    4b64:	00c79693          	slli	a3,a5,0xc
    4b68:	0752                	slli	a4,a4,0x14
    4b6a:	82b1                	srli	a3,a3,0xc
    4b6c:	047e                	slli	s0,s0,0x1f
    4b6e:	8ed9                	or	a3,a3,a4
    4b70:	8ec1                	or	a3,a3,s0
    4b72:	40f2                	lw	ra,28(sp)
    4b74:	4462                	lw	s0,24(sp)
    4b76:	44d2                	lw	s1,20(sp)
    4b78:	4942                	lw	s2,16(sp)
    4b7a:	49b2                	lw	s3,12(sp)
    4b7c:	8542                	mv	a0,a6
    4b7e:	85b6                	mv	a1,a3
    4b80:	6105                	addi	sp,sp,32
    4b82:	8082                	ret
    4b84:	0ab05663          	blez	a1,4c30 <__subdf3+0x230>
    4b88:	12088a63          	beqz	a7,4cbc <__subdf3+0x2bc>
    4b8c:	008007b7          	lui	a5,0x800
    4b90:	8f5d                	or	a4,a4,a5
    4b92:	2dc48763          	beq	s1,t3,4e60 <__subdf3+0x460>
    4b96:	03800793          	li	a5,56
    4b9a:	18b7c763          	blt	a5,a1,4d28 <__subdf3+0x328>
    4b9e:	47fd                	li	a5,31
    4ba0:	3cb7d263          	bge	a5,a1,4f64 <__subdf3+0x564>
    4ba4:	fe058813          	addi	a6,a1,-32 # ffe0 <_data_lma+0x9738>
    4ba8:	02000793          	li	a5,32
    4bac:	010759b3          	srl	s3,a4,a6
    4bb0:	00f58a63          	beq	a1,a5,4bc4 <__subdf3+0x1c4>
    4bb4:	04000793          	li	a5,64
    4bb8:	40b785b3          	sub	a1,a5,a1
    4bbc:	00b71733          	sll	a4,a4,a1
    4bc0:	00eeeeb3          	or	t4,t4,a4
    4bc4:	01d03833          	snez	a6,t4
    4bc8:	01386833          	or	a6,a6,s3
    4bcc:	a295                	j	4d30 <__subdf3+0x330>
    4bce:	01d767b3          	or	a5,a4,t4
    4bd2:	80148593          	addi	a1,s1,-2047
    4bd6:	e399                	bnez	a5,4bdc <__subdf3+0x1dc>
    4bd8:	0016c693          	xori	a3,a3,1
    4bdc:	04d40a63          	beq	s0,a3,4c30 <__subdf3+0x230>
    4be0:	e1d1                	bnez	a1,4c64 <__subdf3+0x264>
    4be2:	00148793          	addi	a5,s1,1
    4be6:	7fe7f793          	andi	a5,a5,2046
    4bea:	1e079963          	bnez	a5,4ddc <__subdf3+0x3dc>
    4bee:	01e367b3          	or	a5,t1,t5
    4bf2:	01d76833          	or	a6,a4,t4
    4bf6:	16049263          	bnez	s1,4d5a <__subdf3+0x35a>
    4bfa:	3c078263          	beqz	a5,4fbe <__subdf3+0x5be>
    4bfe:	42081663          	bnez	a6,502a <__subdf3+0x62a>
    4c02:	00351813          	slli	a6,a0,0x3
    4c06:	01d31693          	slli	a3,t1,0x1d
    4c0a:	00385813          	srli	a6,a6,0x3
    4c0e:	0106e833          	or	a6,a3,a6
    4c12:	00335793          	srli	a5,t1,0x3
    4c16:	a219                	j	4d1c <__subdf3+0x31c>
    4c18:	01d767b3          	or	a5,a4,t4
    4c1c:	1a078563          	beqz	a5,4dc6 <__subdf3+0x3c6>
    4c20:	fff58793          	addi	a5,a1,-1
    4c24:	3a078b63          	beqz	a5,4fda <__subdf3+0x5da>
    4c28:	23c58c63          	beq	a1,t3,4e60 <__subdf3+0x460>
    4c2c:	85be                	mv	a1,a5
    4c2e:	b589                	j	4a70 <__subdf3+0x70>
    4c30:	1c059963          	bnez	a1,4e02 <__subdf3+0x402>
    4c34:	00148693          	addi	a3,s1,1
    4c38:	7fe6f793          	andi	a5,a3,2046
    4c3c:	efc1                	bnez	a5,4cd4 <__subdf3+0x2d4>
    4c3e:	01e367b3          	or	a5,t1,t5
    4c42:	36049063          	bnez	s1,4fa2 <__subdf3+0x5a2>
    4c46:	44078d63          	beqz	a5,50a0 <__subdf3+0x6a0>
    4c4a:	01d767b3          	or	a5,a4,t4
    4c4e:	46079463          	bnez	a5,50b6 <__subdf3+0x6b6>
    4c52:	050e                	slli	a0,a0,0x3
    4c54:	01d31813          	slli	a6,t1,0x1d
    4c58:	810d                	srli	a0,a0,0x3
    4c5a:	00a86833          	or	a6,a6,a0
    4c5e:	00335793          	srli	a5,t1,0x3
    4c62:	a86d                	j	4d1c <__subdf3+0x31c>
    4c64:	409885b3          	sub	a1,a7,s1
    4c68:	20049763          	bnez	s1,4e76 <__subdf3+0x476>
    4c6c:	01e367b3          	or	a5,t1,t5
    4c70:	30078d63          	beqz	a5,4f8a <__subdf3+0x58a>
    4c74:	fff58793          	addi	a5,a1,-1
    4c78:	40078963          	beqz	a5,508a <__subdf3+0x68a>
    4c7c:	7ff00513          	li	a0,2047
    4c80:	20a58363          	beq	a1,a0,4e86 <__subdf3+0x486>
    4c84:	85be                	mv	a1,a5
    4c86:	03800793          	li	a5,56
    4c8a:	2ab7c263          	blt	a5,a1,4f2e <__subdf3+0x52e>
    4c8e:	47fd                	li	a5,31
    4c90:	3cb7c863          	blt	a5,a1,5060 <__subdf3+0x660>
    4c94:	02000793          	li	a5,32
    4c98:	8f8d                	sub	a5,a5,a1
    4c9a:	00f31833          	sll	a6,t1,a5
    4c9e:	00bf5633          	srl	a2,t5,a1
    4ca2:	00ff17b3          	sll	a5,t5,a5
    4ca6:	00c86833          	or	a6,a6,a2
    4caa:	00f039b3          	snez	s3,a5
    4cae:	00b35333          	srl	t1,t1,a1
    4cb2:	01386833          	or	a6,a6,s3
    4cb6:	40670733          	sub	a4,a4,t1
    4cba:	acb5                	j	4f36 <__subdf3+0x536>
    4cbc:	01d767b3          	or	a5,a4,t4
    4cc0:	10078363          	beqz	a5,4dc6 <__subdf3+0x3c6>
    4cc4:	fff58793          	addi	a5,a1,-1
    4cc8:	1e078f63          	beqz	a5,4ec6 <__subdf3+0x4c6>
    4ccc:	2fc58063          	beq	a1,t3,4fac <__subdf3+0x5ac>
    4cd0:	85be                	mv	a1,a5
    4cd2:	b5d1                	j	4b96 <__subdf3+0x196>
    4cd4:	7ff00793          	li	a5,2047
    4cd8:	06f68b63          	beq	a3,a5,4d4e <__subdf3+0x34e>
    4cdc:	9efa                	add	t4,t4,t5
    4cde:	01eeb633          	sltu	a2,t4,t5
    4ce2:	00e307b3          	add	a5,t1,a4
    4ce6:	97b2                	add	a5,a5,a2
    4ce8:	01f79813          	slli	a6,a5,0x1f
    4cec:	001ede93          	srli	t4,t4,0x1
    4cf0:	01d869b3          	or	s3,a6,t4
    4cf4:	0017d613          	srli	a2,a5,0x1
    4cf8:	84b6                	mv	s1,a3
    4cfa:	0079f793          	andi	a5,s3,7
    4cfe:	e0079fe3          	bnez	a5,4b1c <__subdf3+0x11c>
    4d02:	01d61793          	slli	a5,a2,0x1d
    4d06:	0039d813          	srli	a6,s3,0x3
    4d0a:	00f86833          	or	a6,a6,a5
    4d0e:	85a6                	mv	a1,s1
    4d10:	00365793          	srli	a5,a2,0x3
    4d14:	7ff00713          	li	a4,2047
    4d18:	06e58063          	beq	a1,a4,4d78 <__subdf3+0x378>
    4d1c:	07b2                	slli	a5,a5,0xc
    4d1e:	83b1                	srli	a5,a5,0xc
    4d20:	7ff5f713          	andi	a4,a1,2047
    4d24:	8805                	andi	s0,s0,1
    4d26:	bd3d                	j	4b64 <__subdf3+0x164>
    4d28:	01d76733          	or	a4,a4,t4
    4d2c:	00e03833          	snez	a6,a4
    4d30:	01e809b3          	add	s3,a6,t5
    4d34:	01e9b7b3          	sltu	a5,s3,t5
    4d38:	00678633          	add	a2,a5,t1
    4d3c:	00861793          	slli	a5,a2,0x8
    4d40:	fa07dde3          	bgez	a5,4cfa <__subdf3+0x2fa>
    4d44:	0485                	addi	s1,s1,1
    4d46:	7ff00793          	li	a5,2047
    4d4a:	18f49c63          	bne	s1,a5,4ee2 <__subdf3+0x4e2>
    4d4e:	8805                	andi	s0,s0,1
    4d50:	7ff00713          	li	a4,2047
    4d54:	4781                	li	a5,0
    4d56:	4801                	li	a6,0
    4d58:	b531                	j	4b64 <__subdf3+0x164>
    4d5a:	10079163          	bnez	a5,4e5c <__subdf3+0x45c>
    4d5e:	3c080163          	beqz	a6,5120 <__subdf3+0x720>
    4d62:	00361813          	slli	a6,a2,0x3
    4d66:	01d71793          	slli	a5,a4,0x1d
    4d6a:	00385813          	srli	a6,a6,0x3
    4d6e:	00f86833          	or	a6,a6,a5
    4d72:	8436                	mv	s0,a3
    4d74:	00375793          	srli	a5,a4,0x3
    4d78:	00f867b3          	or	a5,a6,a5
    4d7c:	dbe9                	beqz	a5,4d4e <__subdf3+0x34e>
    4d7e:	4401                	li	s0,0
    4d80:	7ff00713          	li	a4,2047
    4d84:	000807b7          	lui	a5,0x80
    4d88:	4801                	li	a6,0
    4d8a:	bbe9                	j	4b64 <__subdf3+0x164>
    4d8c:	ff800637          	lui	a2,0xff800
    4d90:	167d                	addi	a2,a2,-1
    4d92:	8e7d                	and	a2,a2,a5
    4d94:	0079f793          	andi	a5,s3,7
    4d98:	8c99                	sub	s1,s1,a4
    4d9a:	d80791e3          	bnez	a5,4b1c <__subdf3+0x11c>
    4d9e:	b795                	j	4d02 <__subdf3+0x302>
    4da0:	854e                	mv	a0,s3
    4da2:	24c010ef          	jal	ra,5fee <__clzsi2>
    4da6:	01850713          	addi	a4,a0,24
    4daa:	47fd                	li	a5,31
    4dac:	d2e7d2e3          	bge	a5,a4,4ad0 <__subdf3+0xd0>
    4db0:	ff850613          	addi	a2,a0,-8
    4db4:	00c997b3          	sll	a5,s3,a2
    4db8:	4981                	li	s3,0
    4dba:	b32d                	j	4ae4 <__subdf3+0xe4>
    4dbc:	01d76833          	or	a6,a4,t4
    4dc0:	01003833          	snez	a6,a6
    4dc4:	b1c5                	j	4aa4 <__subdf3+0xa4>
    4dc6:	00351813          	slli	a6,a0,0x3
    4dca:	01d31793          	slli	a5,t1,0x1d
    4dce:	00385813          	srli	a6,a6,0x3
    4dd2:	00f86833          	or	a6,a6,a5
    4dd6:	00335793          	srli	a5,t1,0x3
    4dda:	bf2d                	j	4d14 <__subdf3+0x314>
    4ddc:	41df09b3          	sub	s3,t5,t4
    4de0:	40e30933          	sub	s2,t1,a4
    4de4:	013f3633          	sltu	a2,t5,s3
    4de8:	40c90933          	sub	s2,s2,a2
    4dec:	00891793          	slli	a5,s2,0x8
    4df0:	2007ca63          	bltz	a5,5004 <__subdf3+0x604>
    4df4:	0129e833          	or	a6,s3,s2
    4df8:	cc0815e3          	bnez	a6,4ac2 <__subdf3+0xc2>
    4dfc:	4781                	li	a5,0
    4dfe:	4401                	li	s0,0
    4e00:	bf31                	j	4d1c <__subdf3+0x31c>
    4e02:	409885b3          	sub	a1,a7,s1
    4e06:	14048163          	beqz	s1,4f48 <__subdf3+0x548>
    4e0a:	008006b7          	lui	a3,0x800
    4e0e:	7ff00793          	li	a5,2047
    4e12:	00d36333          	or	t1,t1,a3
    4e16:	20f88163          	beq	a7,a5,5018 <__subdf3+0x618>
    4e1a:	03800793          	li	a5,56
    4e1e:	22b7cc63          	blt	a5,a1,5056 <__subdf3+0x656>
    4e22:	47fd                	li	a5,31
    4e24:	2cb7c963          	blt	a5,a1,50f6 <__subdf3+0x6f6>
    4e28:	02000793          	li	a5,32
    4e2c:	8f8d                	sub	a5,a5,a1
    4e2e:	00f31833          	sll	a6,t1,a5
    4e32:	00bf56b3          	srl	a3,t5,a1
    4e36:	00ff17b3          	sll	a5,t5,a5
    4e3a:	00d86833          	or	a6,a6,a3
    4e3e:	00f039b3          	snez	s3,a5
    4e42:	00b35333          	srl	t1,t1,a1
    4e46:	01386833          	or	a6,a6,s3
    4e4a:	971a                	add	a4,a4,t1
    4e4c:	01d809b3          	add	s3,a6,t4
    4e50:	01d9b7b3          	sltu	a5,s3,t4
    4e54:	00e78633          	add	a2,a5,a4
    4e58:	84c6                	mv	s1,a7
    4e5a:	b5cd                	j	4d3c <__subdf3+0x33c>
    4e5c:	f20811e3          	bnez	a6,4d7e <__subdf3+0x37e>
    4e60:	00351813          	slli	a6,a0,0x3
    4e64:	01d31793          	slli	a5,t1,0x1d
    4e68:	00385813          	srli	a6,a6,0x3
    4e6c:	00f86833          	or	a6,a6,a5
    4e70:	00335793          	srli	a5,t1,0x3
    4e74:	b711                	j	4d78 <__subdf3+0x378>
    4e76:	00800537          	lui	a0,0x800
    4e7a:	7ff00793          	li	a5,2047
    4e7e:	00a36333          	or	t1,t1,a0
    4e82:	e0f892e3          	bne	a7,a5,4c86 <__subdf3+0x286>
    4e86:	060e                	slli	a2,a2,0x3
    4e88:	01d71813          	slli	a6,a4,0x1d
    4e8c:	820d                	srli	a2,a2,0x3
    4e8e:	00c86833          	or	a6,a6,a2
    4e92:	00375793          	srli	a5,a4,0x3
    4e96:	8436                	mv	s0,a3
    4e98:	b5c5                	j	4d78 <__subdf3+0x378>
    4e9a:	1705                	addi	a4,a4,-31
    4e9c:	02000693          	li	a3,32
    4ea0:	00e7d733          	srl	a4,a5,a4
    4ea4:	00d60a63          	beq	a2,a3,4eb8 <__subdf3+0x4b8>
    4ea8:	04000693          	li	a3,64
    4eac:	40c68633          	sub	a2,a3,a2
    4eb0:	00c79633          	sll	a2,a5,a2
    4eb4:	00c9e9b3          	or	s3,s3,a2
    4eb8:	01303833          	snez	a6,s3
    4ebc:	00e869b3          	or	s3,a6,a4
    4ec0:	4601                	li	a2,0
    4ec2:	4481                	li	s1,0
    4ec4:	bd1d                	j	4cfa <__subdf3+0x2fa>
    4ec6:	01df09b3          	add	s3,t5,t4
    4eca:	00e307b3          	add	a5,t1,a4
    4ece:	01e9bf33          	sltu	t5,s3,t5
    4ed2:	01e78633          	add	a2,a5,t5
    4ed6:	00861793          	slli	a5,a2,0x8
    4eda:	4485                	li	s1,1
    4edc:	e007dfe3          	bgez	a5,4cfa <__subdf3+0x2fa>
    4ee0:	4489                	li	s1,2
    4ee2:	ff8007b7          	lui	a5,0xff800
    4ee6:	17fd                	addi	a5,a5,-1
    4ee8:	8ff1                	and	a5,a5,a2
    4eea:	0019d713          	srli	a4,s3,0x1
    4eee:	0019f813          	andi	a6,s3,1
    4ef2:	01076833          	or	a6,a4,a6
    4ef6:	01f79993          	slli	s3,a5,0x1f
    4efa:	0109e9b3          	or	s3,s3,a6
    4efe:	0017d613          	srli	a2,a5,0x1
    4f02:	b911                	j	4b16 <__subdf3+0x116>
    4f04:	fe058813          	addi	a6,a1,-32
    4f08:	02000793          	li	a5,32
    4f0c:	010759b3          	srl	s3,a4,a6
    4f10:	00f58a63          	beq	a1,a5,4f24 <__subdf3+0x524>
    4f14:	04000793          	li	a5,64
    4f18:	40b785b3          	sub	a1,a5,a1
    4f1c:	00b71733          	sll	a4,a4,a1
    4f20:	00eeeeb3          	or	t4,t4,a4
    4f24:	01d03833          	snez	a6,t4
    4f28:	01386833          	or	a6,a6,s3
    4f2c:	bea5                	j	4aa4 <__subdf3+0xa4>
    4f2e:	01e36333          	or	t1,t1,t5
    4f32:	00603833          	snez	a6,t1
    4f36:	410e89b3          	sub	s3,t4,a6
    4f3a:	013eb7b3          	sltu	a5,t4,s3
    4f3e:	40f70633          	sub	a2,a4,a5
    4f42:	84c6                	mv	s1,a7
    4f44:	8436                	mv	s0,a3
    4f46:	b6ad                	j	4ab0 <__subdf3+0xb0>
    4f48:	01e367b3          	or	a5,t1,t5
    4f4c:	18078763          	beqz	a5,50da <__subdf3+0x6da>
    4f50:	fff58793          	addi	a5,a1,-1
    4f54:	1c078c63          	beqz	a5,512c <__subdf3+0x72c>
    4f58:	7ff00693          	li	a3,2047
    4f5c:	0ad58e63          	beq	a1,a3,5018 <__subdf3+0x618>
    4f60:	85be                	mv	a1,a5
    4f62:	bd65                	j	4e1a <__subdf3+0x41a>
    4f64:	02000793          	li	a5,32
    4f68:	8f8d                	sub	a5,a5,a1
    4f6a:	00bed9b3          	srl	s3,t4,a1
    4f6e:	00f71833          	sll	a6,a4,a5
    4f72:	00fe9eb3          	sll	t4,t4,a5
    4f76:	01386833          	or	a6,a6,s3
    4f7a:	00b75733          	srl	a4,a4,a1
    4f7e:	01d039b3          	snez	s3,t4
    4f82:	01386833          	or	a6,a6,s3
    4f86:	933a                	add	t1,t1,a4
    4f88:	b365                	j	4d30 <__subdf3+0x330>
    4f8a:	00361813          	slli	a6,a2,0x3
    4f8e:	01d71793          	slli	a5,a4,0x1d
    4f92:	00385813          	srli	a6,a6,0x3
    4f96:	0107e833          	or	a6,a5,a6
    4f9a:	8436                	mv	s0,a3
    4f9c:	00375793          	srli	a5,a4,0x3
    4fa0:	bb95                	j	4d14 <__subdf3+0x314>
    4fa2:	cbbd                	beqz	a5,5018 <__subdf3+0x618>
    4fa4:	01d76733          	or	a4,a4,t4
    4fa8:	dc071be3          	bnez	a4,4d7e <__subdf3+0x37e>
    4fac:	050e                	slli	a0,a0,0x3
    4fae:	01d31813          	slli	a6,t1,0x1d
    4fb2:	810d                	srli	a0,a0,0x3
    4fb4:	00a86833          	or	a6,a6,a0
    4fb8:	00335793          	srli	a5,t1,0x3
    4fbc:	bb75                	j	4d78 <__subdf3+0x378>
    4fbe:	e2080fe3          	beqz	a6,4dfc <__subdf3+0x3fc>
    4fc2:	00361813          	slli	a6,a2,0x3
    4fc6:	01d71793          	slli	a5,a4,0x1d
    4fca:	00385813          	srli	a6,a6,0x3
    4fce:	00f86833          	or	a6,a6,a5
    4fd2:	8436                	mv	s0,a3
    4fd4:	00375793          	srli	a5,a4,0x3
    4fd8:	b391                	j	4d1c <__subdf3+0x31c>
    4fda:	41df09b3          	sub	s3,t5,t4
    4fde:	40e307b3          	sub	a5,t1,a4
    4fe2:	013f3f33          	sltu	t5,t5,s3
    4fe6:	41e78633          	sub	a2,a5,t5
    4fea:	4485                	li	s1,1
    4fec:	b4d1                	j	4ab0 <__subdf3+0xb0>
    4fee:	00351813          	slli	a6,a0,0x3
    4ff2:	01d31693          	slli	a3,t1,0x1d
    4ff6:	00385813          	srli	a6,a6,0x3
    4ffa:	0106e833          	or	a6,a3,a6
    4ffe:	00335793          	srli	a5,t1,0x3
    5002:	bb9d                	j	4d78 <__subdf3+0x378>
    5004:	41ee89b3          	sub	s3,t4,t5
    5008:	40670633          	sub	a2,a4,t1
    500c:	013eb933          	sltu	s2,t4,s3
    5010:	41260933          	sub	s2,a2,s2
    5014:	8436                	mv	s0,a3
    5016:	b475                	j	4ac2 <__subdf3+0xc2>
    5018:	060e                	slli	a2,a2,0x3
    501a:	01d71813          	slli	a6,a4,0x1d
    501e:	820d                	srli	a2,a2,0x3
    5020:	00c86833          	or	a6,a6,a2
    5024:	00375793          	srli	a5,a4,0x3
    5028:	bb81                	j	4d78 <__subdf3+0x378>
    502a:	41df09b3          	sub	s3,t5,t4
    502e:	40e307b3          	sub	a5,t1,a4
    5032:	013f3633          	sltu	a2,t5,s3
    5036:	40c78633          	sub	a2,a5,a2
    503a:	00861793          	slli	a5,a2,0x8
    503e:	0a07d763          	bgez	a5,50ec <__subdf3+0x6ec>
    5042:	41ee89b3          	sub	s3,t4,t5
    5046:	406707b3          	sub	a5,a4,t1
    504a:	013ebeb3          	sltu	t4,t4,s3
    504e:	41d78633          	sub	a2,a5,t4
    5052:	8436                	mv	s0,a3
    5054:	b4c9                	j	4b16 <__subdf3+0x116>
    5056:	01e36333          	or	t1,t1,t5
    505a:	00603833          	snez	a6,t1
    505e:	b3fd                	j	4e4c <__subdf3+0x44c>
    5060:	fe058813          	addi	a6,a1,-32
    5064:	02000793          	li	a5,32
    5068:	010359b3          	srl	s3,t1,a6
    506c:	00f58a63          	beq	a1,a5,5080 <__subdf3+0x680>
    5070:	04000793          	li	a5,64
    5074:	40b785b3          	sub	a1,a5,a1
    5078:	00b31333          	sll	t1,t1,a1
    507c:	006f6f33          	or	t5,t5,t1
    5080:	01e03833          	snez	a6,t5
    5084:	01386833          	or	a6,a6,s3
    5088:	b57d                	j	4f36 <__subdf3+0x536>
    508a:	41ee89b3          	sub	s3,t4,t5
    508e:	406707b3          	sub	a5,a4,t1
    5092:	013ebeb3          	sltu	t4,t4,s3
    5096:	41d78633          	sub	a2,a5,t4
    509a:	8436                	mv	s0,a3
    509c:	4485                	li	s1,1
    509e:	bc09                	j	4ab0 <__subdf3+0xb0>
    50a0:	00361813          	slli	a6,a2,0x3
    50a4:	01d71793          	slli	a5,a4,0x1d
    50a8:	00385813          	srli	a6,a6,0x3
    50ac:	00f86833          	or	a6,a6,a5
    50b0:	00375793          	srli	a5,a4,0x3
    50b4:	b1a5                	j	4d1c <__subdf3+0x31c>
    50b6:	01df09b3          	add	s3,t5,t4
    50ba:	00e307b3          	add	a5,t1,a4
    50be:	01e9bf33          	sltu	t5,s3,t5
    50c2:	01e78633          	add	a2,a5,t5
    50c6:	00861793          	slli	a5,a2,0x8
    50ca:	c207d8e3          	bgez	a5,4cfa <__subdf3+0x2fa>
    50ce:	ff8007b7          	lui	a5,0xff800
    50d2:	17fd                	addi	a5,a5,-1
    50d4:	8e7d                	and	a2,a2,a5
    50d6:	4485                	li	s1,1
    50d8:	b10d                	j	4cfa <__subdf3+0x2fa>
    50da:	060e                	slli	a2,a2,0x3
    50dc:	01d71813          	slli	a6,a4,0x1d
    50e0:	820d                	srli	a2,a2,0x3
    50e2:	00c86833          	or	a6,a6,a2
    50e6:	00375793          	srli	a5,a4,0x3
    50ea:	b12d                	j	4d14 <__subdf3+0x314>
    50ec:	00c9e833          	or	a6,s3,a2
    50f0:	d00806e3          	beqz	a6,4dfc <__subdf3+0x3fc>
    50f4:	b119                	j	4cfa <__subdf3+0x2fa>
    50f6:	fe058813          	addi	a6,a1,-32
    50fa:	02000793          	li	a5,32
    50fe:	010359b3          	srl	s3,t1,a6
    5102:	00f58a63          	beq	a1,a5,5116 <__subdf3+0x716>
    5106:	04000793          	li	a5,64
    510a:	40b785b3          	sub	a1,a5,a1
    510e:	00b31333          	sll	t1,t1,a1
    5112:	006f6f33          	or	t5,t5,t1
    5116:	01e03833          	snez	a6,t5
    511a:	01386833          	or	a6,a6,s3
    511e:	b33d                	j	4e4c <__subdf3+0x44c>
    5120:	4401                	li	s0,0
    5122:	7ff00713          	li	a4,2047
    5126:	000807b7          	lui	a5,0x80
    512a:	bc2d                	j	4b64 <__subdf3+0x164>
    512c:	01df09b3          	add	s3,t5,t4
    5130:	00e307b3          	add	a5,t1,a4
    5134:	01d9beb3          	sltu	t4,s3,t4
    5138:	01d78633          	add	a2,a5,t4
    513c:	bb69                	j	4ed6 <__subdf3+0x4d6>

0000513e <__fixdfsi>:
__fixdfsi():
    513e:	0145d793          	srli	a5,a1,0x14
    5142:	001006b7          	lui	a3,0x100
    5146:	fff68713          	addi	a4,a3,-1 # fffff <_data_lma+0xf9757>
    514a:	7ff7f793          	andi	a5,a5,2047
    514e:	3fe00613          	li	a2,1022
    5152:	8f6d                	and	a4,a4,a1
    5154:	81fd                	srli	a1,a1,0x1f
    5156:	00f65c63          	bge	a2,a5,516e <__fixdfsi+0x30>
    515a:	41d00613          	li	a2,1053
    515e:	00f65a63          	bge	a2,a5,5172 <__fixdfsi+0x34>
    5162:	80000537          	lui	a0,0x80000
    5166:	fff54513          	not	a0,a0
    516a:	952e                	add	a0,a0,a1
    516c:	8082                	ret
    516e:	4501                	li	a0,0
    5170:	8082                	ret
    5172:	43300613          	li	a2,1075
    5176:	8e1d                	sub	a2,a2,a5
    5178:	487d                	li	a6,31
    517a:	8f55                	or	a4,a4,a3
    517c:	00c85d63          	bge	a6,a2,5196 <__fixdfsi+0x58>
    5180:	41300693          	li	a3,1043
    5184:	40f687b3          	sub	a5,a3,a5
    5188:	00f757b3          	srl	a5,a4,a5
    518c:	40f00533          	neg	a0,a5
    5190:	f1e5                	bnez	a1,5170 <__fixdfsi+0x32>
    5192:	853e                	mv	a0,a5
    5194:	8082                	ret
    5196:	bed78793          	addi	a5,a5,-1043 # 7fbed <_data_lma+0x79345>
    519a:	00f717b3          	sll	a5,a4,a5
    519e:	00c55533          	srl	a0,a0,a2
    51a2:	8fc9                	or	a5,a5,a0
    51a4:	b7e5                	j	518c <__fixdfsi+0x4e>

000051a6 <__floatsidf>:
__floatsidf():
    51a6:	1141                	addi	sp,sp,-16
    51a8:	c606                	sw	ra,12(sp)
    51aa:	c422                	sw	s0,8(sp)
    51ac:	c226                	sw	s1,4(sp)
    51ae:	cd0d                	beqz	a0,51e8 <__floatsidf+0x42>
    51b0:	41f55793          	srai	a5,a0,0x1f
    51b4:	00a7c4b3          	xor	s1,a5,a0
    51b8:	8c9d                	sub	s1,s1,a5
    51ba:	842a                	mv	s0,a0
    51bc:	8526                	mv	a0,s1
    51be:	631000ef          	jal	ra,5fee <__clzsi2>
    51c2:	41e00693          	li	a3,1054
    51c6:	8e89                	sub	a3,a3,a0
    51c8:	47a9                	li	a5,10
    51ca:	807d                	srli	s0,s0,0x1f
    51cc:	7ff6f693          	andi	a3,a3,2047
    51d0:	02a7cd63          	blt	a5,a0,520a <__floatsidf+0x64>
    51d4:	472d                	li	a4,11
    51d6:	8f09                	sub	a4,a4,a0
    51d8:	00e4d7b3          	srl	a5,s1,a4
    51dc:	0555                	addi	a0,a0,21
    51de:	07b2                	slli	a5,a5,0xc
    51e0:	00a494b3          	sll	s1,s1,a0
    51e4:	83b1                	srli	a5,a5,0xc
    51e6:	a029                	j	51f0 <__floatsidf+0x4a>
    51e8:	4401                	li	s0,0
    51ea:	4681                	li	a3,0
    51ec:	4781                	li	a5,0
    51ee:	4481                	li	s1,0
    51f0:	07b2                	slli	a5,a5,0xc
    51f2:	06d2                	slli	a3,a3,0x14
    51f4:	83b1                	srli	a5,a5,0xc
    51f6:	047e                	slli	s0,s0,0x1f
    51f8:	8fd5                	or	a5,a5,a3
    51fa:	8fc1                	or	a5,a5,s0
    51fc:	40b2                	lw	ra,12(sp)
    51fe:	4422                	lw	s0,8(sp)
    5200:	8526                	mv	a0,s1
    5202:	85be                	mv	a1,a5
    5204:	4492                	lw	s1,4(sp)
    5206:	0141                	addi	sp,sp,16
    5208:	8082                	ret
    520a:	1555                	addi	a0,a0,-11
    520c:	00a497b3          	sll	a5,s1,a0
    5210:	07b2                	slli	a5,a5,0xc
    5212:	83b1                	srli	a5,a5,0xc
    5214:	4481                	li	s1,0
    5216:	bfe9                	j	51f0 <__floatsidf+0x4a>

00005218 <__addsf3>:
__addsf3():
    5218:	1141                	addi	sp,sp,-16
    521a:	00800737          	lui	a4,0x800
    521e:	177d                	addi	a4,a4,-1
    5220:	0175d813          	srli	a6,a1,0x17
    5224:	c226                	sw	s1,4(sp)
    5226:	01755493          	srli	s1,a0,0x17
    522a:	00a77333          	and	t1,a4,a0
    522e:	0ff4f493          	andi	s1,s1,255
    5232:	00b776b3          	and	a3,a4,a1
    5236:	c04a                	sw	s2,0(sp)
    5238:	0ff87813          	andi	a6,a6,255
    523c:	01f55913          	srli	s2,a0,0x1f
    5240:	c606                	sw	ra,12(sp)
    5242:	c422                	sw	s0,8(sp)
    5244:	81fd                	srli	a1,a1,0x1f
    5246:	879a                	mv	a5,t1
    5248:	8526                	mv	a0,s1
    524a:	864a                	mv	a2,s2
    524c:	00331e13          	slli	t3,t1,0x3
    5250:	00369e93          	slli	t4,a3,0x3
    5254:	410488b3          	sub	a7,s1,a6
    5258:	0eb90a63          	beq	s2,a1,534c <__addsf3+0x134>
    525c:	0d105063          	blez	a7,531c <__addsf3+0x104>
    5260:	14080463          	beqz	a6,53a8 <__addsf3+0x190>
    5264:	0ff00793          	li	a5,255
    5268:	14f48b63          	beq	s1,a5,53be <__addsf3+0x1a6>
    526c:	040007b7          	lui	a5,0x4000
    5270:	00feeeb3          	or	t4,t4,a5
    5274:	47ed                	li	a5,27
    5276:	2917c163          	blt	a5,a7,54f8 <__addsf3+0x2e0>
    527a:	02000793          	li	a5,32
    527e:	411787b3          	sub	a5,a5,a7
    5282:	00fe97b3          	sll	a5,t4,a5
    5286:	011ed8b3          	srl	a7,t4,a7
    528a:	00f037b3          	snez	a5,a5
    528e:	00f8e7b3          	or	a5,a7,a5
    5292:	40fe07b3          	sub	a5,t3,a5
    5296:	00579713          	slli	a4,a5,0x5
    529a:	18075e63          	bgez	a4,5436 <__addsf3+0x21e>
    529e:	04000437          	lui	s0,0x4000
    52a2:	147d                	addi	s0,s0,-1
    52a4:	8c7d                	and	s0,s0,a5
    52a6:	8522                	mv	a0,s0
    52a8:	547000ef          	jal	ra,5fee <__clzsi2>
    52ac:	156d                	addi	a0,a0,-5
    52ae:	00a417b3          	sll	a5,s0,a0
    52b2:	1a954863          	blt	a0,s1,5462 <__addsf3+0x24a>
    52b6:	8d05                	sub	a0,a0,s1
    52b8:	00150413          	addi	s0,a0,1 # 80000001 <_eusrstack+0x5fff9801>
    52bc:	02000713          	li	a4,32
    52c0:	8f01                	sub	a4,a4,s0
    52c2:	00e79733          	sll	a4,a5,a4
    52c6:	00e03733          	snez	a4,a4
    52ca:	0087d7b3          	srl	a5,a5,s0
    52ce:	8fd9                	or	a5,a5,a4
    52d0:	4481                	li	s1,0
    52d2:	0077f713          	andi	a4,a5,7
    52d6:	c719                	beqz	a4,52e4 <__addsf3+0xcc>
    52d8:	00f7f713          	andi	a4,a5,15
    52dc:	4691                	li	a3,4
    52de:	00d70363          	beq	a4,a3,52e4 <__addsf3+0xcc>
    52e2:	0791                	addi	a5,a5,4
    52e4:	00579713          	slli	a4,a5,0x5
    52e8:	14075b63          	bgez	a4,543e <__addsf3+0x226>
    52ec:	0485                	addi	s1,s1,1
    52ee:	0ff00713          	li	a4,255
    52f2:	864a                	mv	a2,s2
    52f4:	16e48363          	beq	s1,a4,545a <__addsf3+0x242>
    52f8:	079a                	slli	a5,a5,0x6
    52fa:	83a5                	srli	a5,a5,0x9
    52fc:	0ff4f513          	andi	a0,s1,255
    5300:	40b2                	lw	ra,12(sp)
    5302:	4422                	lw	s0,8(sp)
    5304:	07a6                	slli	a5,a5,0x9
    5306:	01751493          	slli	s1,a0,0x17
    530a:	0097d513          	srli	a0,a5,0x9
    530e:	8d45                	or	a0,a0,s1
    5310:	067e                	slli	a2,a2,0x1f
    5312:	4492                	lw	s1,4(sp)
    5314:	4902                	lw	s2,0(sp)
    5316:	8d51                	or	a0,a0,a2
    5318:	0141                	addi	sp,sp,16
    531a:	8082                	ret
    531c:	0a089963          	bnez	a7,53ce <__addsf3+0x1b6>
    5320:	00148713          	addi	a4,s1,1
    5324:	0fe77713          	andi	a4,a4,254
    5328:	14071763          	bnez	a4,5476 <__addsf3+0x25e>
    532c:	22049063          	bnez	s1,554c <__addsf3+0x334>
    5330:	1e0e0d63          	beqz	t3,552a <__addsf3+0x312>
    5334:	fc0e86e3          	beqz	t4,5300 <__addsf3+0xe8>
    5338:	41de07b3          	sub	a5,t3,t4
    533c:	00579713          	slli	a4,a5,0x5
    5340:	22075063          	bgez	a4,5560 <__addsf3+0x348>
    5344:	41ce87b3          	sub	a5,t4,t3
    5348:	892e                	mv	s2,a1
    534a:	b761                	j	52d2 <__addsf3+0xba>
    534c:	0b105c63          	blez	a7,5404 <__addsf3+0x1ec>
    5350:	08080e63          	beqz	a6,53ec <__addsf3+0x1d4>
    5354:	0ff00793          	li	a5,255
    5358:	06f48363          	beq	s1,a5,53be <__addsf3+0x1a6>
    535c:	040007b7          	lui	a5,0x4000
    5360:	00feeeb3          	or	t4,t4,a5
    5364:	47ed                	li	a5,27
    5366:	1f17c963          	blt	a5,a7,5558 <__addsf3+0x340>
    536a:	02000793          	li	a5,32
    536e:	411787b3          	sub	a5,a5,a7
    5372:	00fe97b3          	sll	a5,t4,a5
    5376:	011ed8b3          	srl	a7,t4,a7
    537a:	00f037b3          	snez	a5,a5
    537e:	00f8e7b3          	or	a5,a7,a5
    5382:	97f2                	add	a5,a5,t3
    5384:	00579713          	slli	a4,a5,0x5
    5388:	0a075763          	bgez	a4,5436 <__addsf3+0x21e>
    538c:	0485                	addi	s1,s1,1
    538e:	0ff00713          	li	a4,255
    5392:	0ce48463          	beq	s1,a4,545a <__addsf3+0x242>
    5396:	7e0006b7          	lui	a3,0x7e000
    539a:	0017d713          	srli	a4,a5,0x1
    539e:	16fd                	addi	a3,a3,-1
    53a0:	8b85                	andi	a5,a5,1
    53a2:	8f75                	and	a4,a4,a3
    53a4:	8fd9                	or	a5,a5,a4
    53a6:	b735                	j	52d2 <__addsf3+0xba>
    53a8:	080e8d63          	beqz	t4,5442 <__addsf3+0x22a>
    53ac:	18fd                	addi	a7,a7,-1
    53ae:	41de07b3          	sub	a5,t3,t4
    53b2:	ee0882e3          	beqz	a7,5296 <__addsf3+0x7e>
    53b6:	0ff00793          	li	a5,255
    53ba:	eaf49de3          	bne	s1,a5,5274 <__addsf3+0x5c>
    53be:	08030d63          	beqz	t1,5458 <__addsf3+0x240>
    53c2:	4601                	li	a2,0
    53c4:	0ff00513          	li	a0,255
    53c8:	004007b7          	lui	a5,0x400
    53cc:	bf15                	j	5300 <__addsf3+0xe8>
    53ce:	40980733          	sub	a4,a6,s1
    53d2:	e8ed                	bnez	s1,54c4 <__addsf3+0x2ac>
    53d4:	140e0263          	beqz	t3,5518 <__addsf3+0x300>
    53d8:	177d                	addi	a4,a4,-1
    53da:	18070863          	beqz	a4,556a <__addsf3+0x352>
    53de:	0ff00793          	li	a5,255
    53e2:	0ef81963          	bne	a6,a5,54d4 <__addsf3+0x2bc>
    53e6:	892e                	mv	s2,a1
    53e8:	8336                	mv	t1,a3
    53ea:	bfd1                	j	53be <__addsf3+0x1a6>
    53ec:	040e8b63          	beqz	t4,5442 <__addsf3+0x22a>
    53f0:	18fd                	addi	a7,a7,-1
    53f2:	01de07b3          	add	a5,t3,t4
    53f6:	f80887e3          	beqz	a7,5384 <__addsf3+0x16c>
    53fa:	0ff00793          	li	a5,255
    53fe:	f6f493e3          	bne	s1,a5,5364 <__addsf3+0x14c>
    5402:	bf75                	j	53be <__addsf3+0x1a6>
    5404:	08089563          	bnez	a7,548e <__addsf3+0x276>
    5408:	0485                	addi	s1,s1,1
    540a:	0fe4f713          	andi	a4,s1,254
    540e:	12071363          	bnez	a4,5534 <__addsf3+0x31c>
    5412:	10051763          	bnez	a0,5520 <__addsf3+0x308>
    5416:	140e0f63          	beqz	t3,5574 <__addsf3+0x35c>
    541a:	ee0e83e3          	beqz	t4,5300 <__addsf3+0xe8>
    541e:	01de07b3          	add	a5,t3,t4
    5422:	00579713          	slli	a4,a5,0x5
    5426:	4481                	li	s1,0
    5428:	00075763          	bgez	a4,5436 <__addsf3+0x21e>
    542c:	fc000737          	lui	a4,0xfc000
    5430:	177d                	addi	a4,a4,-1
    5432:	8ff9                	and	a5,a5,a4
    5434:	4485                	li	s1,1
    5436:	0077f713          	andi	a4,a5,7
    543a:	e8071fe3          	bnez	a4,52d8 <__addsf3+0xc0>
    543e:	0037d313          	srli	t1,a5,0x3
    5442:	0ff00793          	li	a5,255
    5446:	f6f48ce3          	beq	s1,a5,53be <__addsf3+0x1a6>
    544a:	00931793          	slli	a5,t1,0x9
    544e:	83a5                	srli	a5,a5,0x9
    5450:	0ff4f513          	andi	a0,s1,255
    5454:	864a                	mv	a2,s2
    5456:	b56d                	j	5300 <__addsf3+0xe8>
    5458:	864a                	mv	a2,s2
    545a:	0ff00513          	li	a0,255
    545e:	4781                	li	a5,0
    5460:	b545                	j	5300 <__addsf3+0xe8>
    5462:	fc000737          	lui	a4,0xfc000
    5466:	177d                	addi	a4,a4,-1
    5468:	8ff9                	and	a5,a5,a4
    546a:	0077f713          	andi	a4,a5,7
    546e:	8c89                	sub	s1,s1,a0
    5470:	e60714e3          	bnez	a4,52d8 <__addsf3+0xc0>
    5474:	b7e9                	j	543e <__addsf3+0x226>
    5476:	41de0433          	sub	s0,t3,t4
    547a:	00541793          	slli	a5,s0,0x5
    547e:	0c07c363          	bltz	a5,5544 <__addsf3+0x32c>
    5482:	e20412e3          	bnez	s0,52a6 <__addsf3+0x8e>
    5486:	4601                	li	a2,0
    5488:	4501                	li	a0,0
    548a:	4781                	li	a5,0
    548c:	bd95                	j	5300 <__addsf3+0xe8>
    548e:	40980733          	sub	a4,a6,s1
    5492:	c4ad                	beqz	s1,54fc <__addsf3+0x2e4>
    5494:	0ff00793          	li	a5,255
    5498:	f4f808e3          	beq	a6,a5,53e8 <__addsf3+0x1d0>
    549c:	040007b7          	lui	a5,0x4000
    54a0:	00fe6e33          	or	t3,t3,a5
    54a4:	47ed                	li	a5,27
    54a6:	0ce7cc63          	blt	a5,a4,557e <__addsf3+0x366>
    54aa:	02000793          	li	a5,32
    54ae:	8f99                	sub	a5,a5,a4
    54b0:	00fe17b3          	sll	a5,t3,a5
    54b4:	00ee5733          	srl	a4,t3,a4
    54b8:	00f037b3          	snez	a5,a5
    54bc:	8fd9                	or	a5,a5,a4
    54be:	97f6                	add	a5,a5,t4
    54c0:	84c2                	mv	s1,a6
    54c2:	b5c9                	j	5384 <__addsf3+0x16c>
    54c4:	0ff00793          	li	a5,255
    54c8:	f0f80fe3          	beq	a6,a5,53e6 <__addsf3+0x1ce>
    54cc:	040007b7          	lui	a5,0x4000
    54d0:	00fe6e33          	or	t3,t3,a5
    54d4:	47ed                	li	a5,27
    54d6:	08e7c363          	blt	a5,a4,555c <__addsf3+0x344>
    54da:	02000693          	li	a3,32
    54de:	8e99                	sub	a3,a3,a4
    54e0:	00de16b3          	sll	a3,t3,a3
    54e4:	00ee57b3          	srl	a5,t3,a4
    54e8:	00d03733          	snez	a4,a3
    54ec:	8fd9                	or	a5,a5,a4
    54ee:	40fe87b3          	sub	a5,t4,a5
    54f2:	84c2                	mv	s1,a6
    54f4:	892e                	mv	s2,a1
    54f6:	b345                	j	5296 <__addsf3+0x7e>
    54f8:	4785                	li	a5,1
    54fa:	bb61                	j	5292 <__addsf3+0x7a>
    54fc:	060e0e63          	beqz	t3,5578 <__addsf3+0x360>
    5500:	177d                	addi	a4,a4,-1
    5502:	01de07b3          	add	a5,t3,t4
    5506:	84c2                	mv	s1,a6
    5508:	e6070ee3          	beqz	a4,5384 <__addsf3+0x16c>
    550c:	0ff00793          	li	a5,255
    5510:	f8f81ae3          	bne	a6,a5,54a4 <__addsf3+0x28c>
    5514:	8336                	mv	t1,a3
    5516:	b565                	j	53be <__addsf3+0x1a6>
    5518:	8336                	mv	t1,a3
    551a:	84c2                	mv	s1,a6
    551c:	892e                	mv	s2,a1
    551e:	b715                	j	5442 <__addsf3+0x22a>
    5520:	ec0e04e3          	beqz	t3,53e8 <__addsf3+0x1d0>
    5524:	e80e8de3          	beqz	t4,53be <__addsf3+0x1a6>
    5528:	bd69                	j	53c2 <__addsf3+0x1aa>
    552a:	020e8d63          	beqz	t4,5564 <__addsf3+0x34c>
    552e:	862e                	mv	a2,a1
    5530:	87b6                	mv	a5,a3
    5532:	b3f9                	j	5300 <__addsf3+0xe8>
    5534:	0ff00793          	li	a5,255
    5538:	f2f481e3          	beq	s1,a5,545a <__addsf3+0x242>
    553c:	01de07b3          	add	a5,t3,t4
    5540:	8385                	srli	a5,a5,0x1
    5542:	bdd5                	j	5436 <__addsf3+0x21e>
    5544:	41ce8433          	sub	s0,t4,t3
    5548:	892e                	mv	s2,a1
    554a:	bbb1                	j	52a6 <__addsf3+0x8e>
    554c:	fc0e1ce3          	bnez	t3,5524 <__addsf3+0x30c>
    5550:	e60e89e3          	beqz	t4,53c2 <__addsf3+0x1aa>
    5554:	892e                	mv	s2,a1
    5556:	bd49                	j	53e8 <__addsf3+0x1d0>
    5558:	4785                	li	a5,1
    555a:	b525                	j	5382 <__addsf3+0x16a>
    555c:	4785                	li	a5,1
    555e:	bf41                	j	54ee <__addsf3+0x2d6>
    5560:	ec079be3          	bnez	a5,5436 <__addsf3+0x21e>
    5564:	4601                	li	a2,0
    5566:	4781                	li	a5,0
    5568:	bb61                	j	5300 <__addsf3+0xe8>
    556a:	41ce87b3          	sub	a5,t4,t3
    556e:	84c2                	mv	s1,a6
    5570:	892e                	mv	s2,a1
    5572:	b315                	j	5296 <__addsf3+0x7e>
    5574:	87b6                	mv	a5,a3
    5576:	b369                	j	5300 <__addsf3+0xe8>
    5578:	8336                	mv	t1,a3
    557a:	84c2                	mv	s1,a6
    557c:	b5d9                	j	5442 <__addsf3+0x22a>
    557e:	4785                	li	a5,1
    5580:	bf3d                	j	54be <__addsf3+0x2a6>

00005582 <__gesf2>:
__gtsf2():
    5582:	01755693          	srli	a3,a0,0x17
    5586:	008007b7          	lui	a5,0x800
    558a:	17fd                	addi	a5,a5,-1
    558c:	0175d613          	srli	a2,a1,0x17
    5590:	0ff6f693          	andi	a3,a3,255
    5594:	0ff00813          	li	a6,255
    5598:	00a7f8b3          	and	a7,a5,a0
    559c:	01f55713          	srli	a4,a0,0x1f
    55a0:	8fed                	and	a5,a5,a1
    55a2:	0ff67613          	andi	a2,a2,255
    55a6:	81fd                	srli	a1,a1,0x1f
    55a8:	03068163          	beq	a3,a6,55ca <__gesf2+0x48>
    55ac:	01060c63          	beq	a2,a6,55c4 <__gesf2+0x42>
    55b0:	e28d                	bnez	a3,55d2 <__gesf2+0x50>
    55b2:	e211                	bnez	a2,55b6 <__gesf2+0x34>
    55b4:	c3b1                	beqz	a5,55f8 <__gesf2+0x76>
    55b6:	02088e63          	beqz	a7,55f2 <__gesf2+0x70>
    55ba:	04b70563          	beq	a4,a1,5604 <__gesf2+0x82>
    55be:	4505                	li	a0,1
    55c0:	e71d                	bnez	a4,55ee <__gesf2+0x6c>
    55c2:	8082                	ret
    55c4:	d7f5                	beqz	a5,55b0 <__gesf2+0x2e>
    55c6:	5579                	li	a0,-2
    55c8:	8082                	ret
    55ca:	fe089ee3          	bnez	a7,55c6 <__gesf2+0x44>
    55ce:	02d60963          	beq	a2,a3,5600 <__gesf2+0x7e>
    55d2:	e211                	bnez	a2,55d6 <__gesf2+0x54>
    55d4:	d7ed                	beqz	a5,55be <__gesf2+0x3c>
    55d6:	feb714e3          	bne	a4,a1,55be <__gesf2+0x3c>
    55da:	fed642e3          	blt	a2,a3,55be <__gesf2+0x3c>
    55de:	00c6c763          	blt	a3,a2,55ec <__gesf2+0x6a>
    55e2:	fd17eee3          	bltu	a5,a7,55be <__gesf2+0x3c>
    55e6:	4501                	li	a0,0
    55e8:	fcf8fde3          	bgeu	a7,a5,55c2 <__gesf2+0x40>
    55ec:	e701                	bnez	a4,55f4 <__gesf2+0x72>
    55ee:	557d                	li	a0,-1
    55f0:	8082                	ret
    55f2:	ddf5                	beqz	a1,55ee <__gesf2+0x6c>
    55f4:	4505                	li	a0,1
    55f6:	8082                	ret
    55f8:	4501                	li	a0,0
    55fa:	fc0892e3          	bnez	a7,55be <__gesf2+0x3c>
    55fe:	8082                	ret
    5600:	dbf9                	beqz	a5,55d6 <__gesf2+0x54>
    5602:	b7d1                	j	55c6 <__gesf2+0x44>
    5604:	4681                	li	a3,0
    5606:	bfe1                	j	55de <__gesf2+0x5c>

00005608 <__lesf2>:
__lesf2():
    5608:	01755693          	srli	a3,a0,0x17
    560c:	008007b7          	lui	a5,0x800
    5610:	17fd                	addi	a5,a5,-1
    5612:	0175d613          	srli	a2,a1,0x17
    5616:	0ff6f693          	andi	a3,a3,255
    561a:	0ff00813          	li	a6,255
    561e:	00a7f8b3          	and	a7,a5,a0
    5622:	01f55713          	srli	a4,a0,0x1f
    5626:	8fed                	and	a5,a5,a1
    5628:	0ff67613          	andi	a2,a2,255
    562c:	81fd                	srli	a1,a1,0x1f
    562e:	03068763          	beq	a3,a6,565c <__lesf2+0x54>
    5632:	01060963          	beq	a2,a6,5644 <__lesf2+0x3c>
    5636:	ea85                	bnez	a3,5666 <__lesf2+0x5e>
    5638:	ea11                	bnez	a2,564c <__lesf2+0x44>
    563a:	eb89                	bnez	a5,564c <__lesf2+0x44>
    563c:	4501                	li	a0,0
    563e:	00089b63          	bnez	a7,5654 <__lesf2+0x4c>
    5642:	8082                	ret
    5644:	4509                	li	a0,2
    5646:	fff5                	bnez	a5,5642 <__lesf2+0x3a>
    5648:	dae5                	beqz	a3,5638 <__lesf2+0x30>
    564a:	a831                	j	5666 <__lesf2+0x5e>
    564c:	02088c63          	beqz	a7,5684 <__lesf2+0x7c>
    5650:	04b70063          	beq	a4,a1,5690 <__lesf2+0x88>
    5654:	4505                	li	a0,1
    5656:	d775                	beqz	a4,5642 <__lesf2+0x3a>
    5658:	557d                	li	a0,-1
    565a:	8082                	ret
    565c:	4509                	li	a0,2
    565e:	02089863          	bnez	a7,568e <__lesf2+0x86>
    5662:	02d60463          	beq	a2,a3,568a <__lesf2+0x82>
    5666:	e211                	bnez	a2,566a <__lesf2+0x62>
    5668:	d7f5                	beqz	a5,5654 <__lesf2+0x4c>
    566a:	feb715e3          	bne	a4,a1,5654 <__lesf2+0x4c>
    566e:	fed643e3          	blt	a2,a3,5654 <__lesf2+0x4c>
    5672:	00c6c763          	blt	a3,a2,5680 <__lesf2+0x78>
    5676:	fd17efe3          	bltu	a5,a7,5654 <__lesf2+0x4c>
    567a:	4501                	li	a0,0
    567c:	fcf8f3e3          	bgeu	a7,a5,5642 <__lesf2+0x3a>
    5680:	e319                	bnez	a4,5686 <__lesf2+0x7e>
    5682:	bfd9                	j	5658 <__lesf2+0x50>
    5684:	d9f1                	beqz	a1,5658 <__lesf2+0x50>
    5686:	4505                	li	a0,1
    5688:	8082                	ret
    568a:	d3e5                	beqz	a5,566a <__lesf2+0x62>
    568c:	8082                	ret
    568e:	8082                	ret
    5690:	4681                	li	a3,0
    5692:	b7c5                	j	5672 <__lesf2+0x6a>

00005694 <__mulsf3>:
__mulsf3():
    5694:	7179                	addi	sp,sp,-48
    5696:	d422                	sw	s0,40(sp)
    5698:	01755413          	srli	s0,a0,0x17
    569c:	ce4e                	sw	s3,28(sp)
    569e:	cc52                	sw	s4,24(sp)
    56a0:	00951993          	slli	s3,a0,0x9
    56a4:	d606                	sw	ra,44(sp)
    56a6:	d226                	sw	s1,36(sp)
    56a8:	d04a                	sw	s2,32(sp)
    56aa:	ca56                	sw	s5,20(sp)
    56ac:	c85a                	sw	s6,16(sp)
    56ae:	0ff47413          	andi	s0,s0,255
    56b2:	0099d993          	srli	s3,s3,0x9
    56b6:	01f55a13          	srli	s4,a0,0x1f
    56ba:	c469                	beqz	s0,5784 <__mulsf3+0xf0>
    56bc:	0ff00793          	li	a5,255
    56c0:	0ef40863          	beq	s0,a5,57b0 <__mulsf3+0x11c>
    56c4:	00399793          	slli	a5,s3,0x3
    56c8:	04000737          	lui	a4,0x4000
    56cc:	00e7e9b3          	or	s3,a5,a4
    56d0:	f8140413          	addi	s0,s0,-127 # 3ffff81 <_data_lma+0x3ff96d9>
    56d4:	4481                	li	s1,0
    56d6:	4b01                	li	s6,0
    56d8:	0175d713          	srli	a4,a1,0x17
    56dc:	00959a93          	slli	s5,a1,0x9
    56e0:	0ff77713          	andi	a4,a4,255
    56e4:	009ada93          	srli	s5,s5,0x9
    56e8:	01f5d913          	srli	s2,a1,0x1f
    56ec:	cf45                	beqz	a4,57a4 <__mulsf3+0x110>
    56ee:	0ff00793          	li	a5,255
    56f2:	02f70c63          	beq	a4,a5,572a <__mulsf3+0x96>
    56f6:	0a8e                	slli	s5,s5,0x3
    56f8:	f8170713          	addi	a4,a4,-127 # 3ffff81 <_data_lma+0x3ff96d9>
    56fc:	040007b7          	lui	a5,0x4000
    5700:	00faeab3          	or	s5,s5,a5
    5704:	943a                	add	s0,s0,a4
    5706:	4601                	li	a2,0
    5708:	012a4533          	xor	a0,s4,s2
    570c:	47bd                	li	a5,15
    570e:	86aa                	mv	a3,a0
    5710:	00140593          	addi	a1,s0,1
    5714:	1097e263          	bltu	a5,s1,5818 <__mulsf3+0x184>
    5718:	00001717          	auipc	a4,0x1
    571c:	05070713          	addi	a4,a4,80 # 6768 <init_jk+0xe0>
    5720:	048a                	slli	s1,s1,0x2
    5722:	94ba                	add	s1,s1,a4
    5724:	409c                	lw	a5,0(s1)
    5726:	97ba                	add	a5,a5,a4
    5728:	8782                	jr	a5
    572a:	0ff40413          	addi	s0,s0,255
    572e:	0c0a9863          	bnez	s5,57fe <__mulsf3+0x16a>
    5732:	0024e493          	ori	s1,s1,2
    5736:	4609                	li	a2,2
    5738:	bfc1                	j	5708 <__mulsf3+0x74>
    573a:	4501                	li	a0,0
    573c:	0ff00713          	li	a4,255
    5740:	004007b7          	lui	a5,0x400
    5744:	50b2                	lw	ra,44(sp)
    5746:	5422                	lw	s0,40(sp)
    5748:	07a6                	slli	a5,a5,0x9
    574a:	075e                	slli	a4,a4,0x17
    574c:	83a5                	srli	a5,a5,0x9
    574e:	057e                	slli	a0,a0,0x1f
    5750:	8fd9                	or	a5,a5,a4
    5752:	5492                	lw	s1,36(sp)
    5754:	5902                	lw	s2,32(sp)
    5756:	49f2                	lw	s3,28(sp)
    5758:	4a62                	lw	s4,24(sp)
    575a:	4ad2                	lw	s5,20(sp)
    575c:	4b42                	lw	s6,16(sp)
    575e:	8d5d                	or	a0,a0,a5
    5760:	6145                	addi	sp,sp,48
    5762:	8082                	ret
    5764:	86ca                	mv	a3,s2
    5766:	89d6                	mv	s3,s5
    5768:	8b32                	mv	s6,a2
    576a:	4789                	li	a5,2
    576c:	0afb0163          	beq	s6,a5,580e <__mulsf3+0x17a>
    5770:	478d                	li	a5,3
    5772:	fcfb04e3          	beq	s6,a5,573a <__mulsf3+0xa6>
    5776:	4785                	li	a5,1
    5778:	8536                	mv	a0,a3
    577a:	1afb1263          	bne	s6,a5,591e <__mulsf3+0x28a>
    577e:	4701                	li	a4,0
    5780:	4781                	li	a5,0
    5782:	b7c9                	j	5744 <__mulsf3+0xb0>
    5784:	04099e63          	bnez	s3,57e0 <__mulsf3+0x14c>
    5788:	0175d713          	srli	a4,a1,0x17
    578c:	00959a93          	slli	s5,a1,0x9
    5790:	0ff77713          	andi	a4,a4,255
    5794:	4491                	li	s1,4
    5796:	4401                	li	s0,0
    5798:	4b05                	li	s6,1
    579a:	009ada93          	srli	s5,s5,0x9
    579e:	01f5d913          	srli	s2,a1,0x1f
    57a2:	f731                	bnez	a4,56ee <__mulsf3+0x5a>
    57a4:	000a9d63          	bnez	s5,57be <__mulsf3+0x12a>
    57a8:	0014e493          	ori	s1,s1,1
    57ac:	4605                	li	a2,1
    57ae:	bfa9                	j	5708 <__mulsf3+0x74>
    57b0:	02099363          	bnez	s3,57d6 <__mulsf3+0x142>
    57b4:	44a1                	li	s1,8
    57b6:	0ff00413          	li	s0,255
    57ba:	4b09                	li	s6,2
    57bc:	bf31                	j	56d8 <__mulsf3+0x44>
    57be:	8556                	mv	a0,s5
    57c0:	02f000ef          	jal	ra,5fee <__clzsi2>
    57c4:	ffb50793          	addi	a5,a0,-5
    57c8:	8c09                	sub	s0,s0,a0
    57ca:	00fa9ab3          	sll	s5,s5,a5
    57ce:	f8a40413          	addi	s0,s0,-118
    57d2:	4601                	li	a2,0
    57d4:	bf15                	j	5708 <__mulsf3+0x74>
    57d6:	44b1                	li	s1,12
    57d8:	0ff00413          	li	s0,255
    57dc:	4b0d                	li	s6,3
    57de:	bded                	j	56d8 <__mulsf3+0x44>
    57e0:	854e                	mv	a0,s3
    57e2:	c62e                	sw	a1,12(sp)
    57e4:	00b000ef          	jal	ra,5fee <__clzsi2>
    57e8:	ffb50793          	addi	a5,a0,-5
    57ec:	f8a00413          	li	s0,-118
    57f0:	00f999b3          	sll	s3,s3,a5
    57f4:	8c09                	sub	s0,s0,a0
    57f6:	4481                	li	s1,0
    57f8:	4b01                	li	s6,0
    57fa:	45b2                	lw	a1,12(sp)
    57fc:	bdf1                	j	56d8 <__mulsf3+0x44>
    57fe:	0034e493          	ori	s1,s1,3
    5802:	460d                	li	a2,3
    5804:	b711                	j	5708 <__mulsf3+0x74>
    5806:	4789                	li	a5,2
    5808:	86d2                	mv	a3,s4
    580a:	f6fb13e3          	bne	s6,a5,5770 <__mulsf3+0xdc>
    580e:	8536                	mv	a0,a3
    5810:	0ff00713          	li	a4,255
    5814:	4781                	li	a5,0
    5816:	b73d                	j	5744 <__mulsf3+0xb0>
    5818:	6341                	lui	t1,0x10
    581a:	fff30693          	addi	a3,t1,-1 # ffff <_data_lma+0x9757>
    581e:	0109d613          	srli	a2,s3,0x10
    5822:	010ad893          	srli	a7,s5,0x10
    5826:	00d9f7b3          	and	a5,s3,a3
    582a:	00dafab3          	and	s5,s5,a3
    582e:	03578833          	mul	a6,a5,s5
    5832:	02f889b3          	mul	s3,a7,a5
    5836:	01085713          	srli	a4,a6,0x10
    583a:	03560ab3          	mul	s5,a2,s5
    583e:	99d6                	add	s3,s3,s5
    5840:	974e                	add	a4,a4,s3
    5842:	03160633          	mul	a2,a2,a7
    5846:	01577363          	bgeu	a4,s5,584c <__mulsf3+0x1b8>
    584a:	961a                	add	a2,a2,t1
    584c:	67c1                	lui	a5,0x10
    584e:	17fd                	addi	a5,a5,-1
    5850:	00f776b3          	and	a3,a4,a5
    5854:	00f87833          	and	a6,a6,a5
    5858:	06c2                	slli	a3,a3,0x10
    585a:	96c2                	add	a3,a3,a6
    585c:	00669993          	slli	s3,a3,0x6
    5860:	01075793          	srli	a5,a4,0x10
    5864:	013039b3          	snez	s3,s3
    5868:	82e9                	srli	a3,a3,0x1a
    586a:	97b2                	add	a5,a5,a2
    586c:	079a                	slli	a5,a5,0x6
    586e:	00d9e6b3          	or	a3,s3,a3
    5872:	00d7e9b3          	or	s3,a5,a3
    5876:	00499793          	slli	a5,s3,0x4
    587a:	0007d963          	bgez	a5,588c <__mulsf3+0x1f8>
    587e:	0019d713          	srli	a4,s3,0x1
    5882:	0019f793          	andi	a5,s3,1
    5886:	00f769b3          	or	s3,a4,a5
    588a:	842e                	mv	s0,a1
    588c:	07f40713          	addi	a4,s0,127
    5890:	04e05063          	blez	a4,58d0 <__mulsf3+0x23c>
    5894:	0079f793          	andi	a5,s3,7
    5898:	c799                	beqz	a5,58a6 <__mulsf3+0x212>
    589a:	00f9f793          	andi	a5,s3,15
    589e:	4691                	li	a3,4
    58a0:	00d78363          	beq	a5,a3,58a6 <__mulsf3+0x212>
    58a4:	0991                	addi	s3,s3,4
    58a6:	00499793          	slli	a5,s3,0x4
    58aa:	0007d963          	bgez	a5,58bc <__mulsf3+0x228>
    58ae:	f80007b7          	lui	a5,0xf8000
    58b2:	17fd                	addi	a5,a5,-1
    58b4:	00f9f9b3          	and	s3,s3,a5
    58b8:	08040713          	addi	a4,s0,128
    58bc:	0fe00793          	li	a5,254
    58c0:	04e7cb63          	blt	a5,a4,5916 <__mulsf3+0x282>
    58c4:	00699793          	slli	a5,s3,0x6
    58c8:	83a5                	srli	a5,a5,0x9
    58ca:	0ff77713          	andi	a4,a4,255
    58ce:	bd9d                	j	5744 <__mulsf3+0xb0>
    58d0:	4785                	li	a5,1
    58d2:	40e786b3          	sub	a3,a5,a4
    58d6:	c711                	beqz	a4,58e2 <__mulsf3+0x24e>
    58d8:	466d                	li	a2,27
    58da:	4701                	li	a4,0
    58dc:	4781                	li	a5,0
    58de:	e6d643e3          	blt	a2,a3,5744 <__mulsf3+0xb0>
    58e2:	09e40713          	addi	a4,s0,158
    58e6:	00e99733          	sll	a4,s3,a4
    58ea:	00e03733          	snez	a4,a4
    58ee:	00d9d7b3          	srl	a5,s3,a3
    58f2:	8fd9                	or	a5,a5,a4
    58f4:	0077f713          	andi	a4,a5,7
    58f8:	c719                	beqz	a4,5906 <__mulsf3+0x272>
    58fa:	00f7f713          	andi	a4,a5,15
    58fe:	4691                	li	a3,4
    5900:	00d70363          	beq	a4,a3,5906 <__mulsf3+0x272>
    5904:	0791                	addi	a5,a5,4
    5906:	00579713          	slli	a4,a5,0x5
    590a:	00074c63          	bltz	a4,5922 <__mulsf3+0x28e>
    590e:	079a                	slli	a5,a5,0x6
    5910:	83a5                	srli	a5,a5,0x9
    5912:	4701                	li	a4,0
    5914:	bd05                	j	5744 <__mulsf3+0xb0>
    5916:	0ff00713          	li	a4,255
    591a:	4781                	li	a5,0
    591c:	b525                	j	5744 <__mulsf3+0xb0>
    591e:	842e                	mv	s0,a1
    5920:	b7b5                	j	588c <__mulsf3+0x1f8>
    5922:	4705                	li	a4,1
    5924:	4781                	li	a5,0
    5926:	bd39                	j	5744 <__mulsf3+0xb0>

00005928 <__subsf3>:
__subsf3():
    5928:	00800737          	lui	a4,0x800
    592c:	1141                	addi	sp,sp,-16
    592e:	177d                	addi	a4,a4,-1
    5930:	01755693          	srli	a3,a0,0x17
    5934:	0175d813          	srli	a6,a1,0x17
    5938:	00a777b3          	and	a5,a4,a0
    593c:	0ff6f693          	andi	a3,a3,255
    5940:	01f55e93          	srli	t4,a0,0x1f
    5944:	00b77633          	and	a2,a4,a1
    5948:	c226                	sw	s1,4(sp)
    594a:	c04a                	sw	s2,0(sp)
    594c:	0ff87813          	andi	a6,a6,255
    5950:	c606                	sw	ra,12(sp)
    5952:	c422                	sw	s0,8(sp)
    5954:	0ff00313          	li	t1,255
    5958:	8e3e                	mv	t3,a5
    595a:	8936                	mv	s2,a3
    595c:	84f6                	mv	s1,t4
    595e:	00379f13          	slli	t5,a5,0x3
    5962:	81fd                	srli	a1,a1,0x1f
    5964:	00361513          	slli	a0,a2,0x3
    5968:	410688b3          	sub	a7,a3,a6
    596c:	10680263          	beq	a6,t1,5a70 <__subsf3+0x148>
    5970:	0015c593          	xori	a1,a1,1
    5974:	10be8c63          	beq	t4,a1,5a8c <__subsf3+0x164>
    5978:	0d105463          	blez	a7,5a40 <__subsf3+0x118>
    597c:	10081063          	bnez	a6,5a7c <__subsf3+0x154>
    5980:	1e050463          	beqz	a0,5b68 <__subsf3+0x240>
    5984:	18fd                	addi	a7,a7,-1
    5986:	40af07b3          	sub	a5,t5,a0
    598a:	02088663          	beqz	a7,59b6 <__subsf3+0x8e>
    598e:	0ff00793          	li	a5,255
    5992:	16f68863          	beq	a3,a5,5b02 <__subsf3+0x1da>
    5996:	47ed                	li	a5,27
    5998:	2917c763          	blt	a5,a7,5c26 <__subsf3+0x2fe>
    599c:	02000713          	li	a4,32
    59a0:	41170733          	sub	a4,a4,a7
    59a4:	00e51733          	sll	a4,a0,a4
    59a8:	011557b3          	srl	a5,a0,a7
    59ac:	00e03733          	snez	a4,a4
    59b0:	8fd9                	or	a5,a5,a4
    59b2:	40ff07b3          	sub	a5,t5,a5
    59b6:	00579713          	slli	a4,a5,0x5
    59ba:	1a075163          	bgez	a4,5b5c <__subsf3+0x234>
    59be:	04000437          	lui	s0,0x4000
    59c2:	147d                	addi	s0,s0,-1
    59c4:	8c7d                	and	s0,s0,a5
    59c6:	8522                	mv	a0,s0
    59c8:	251d                	jal	5fee <__clzsi2>
    59ca:	156d                	addi	a0,a0,-5
    59cc:	00a417b3          	sll	a5,s0,a0
    59d0:	1b254e63          	blt	a0,s2,5b8c <__subsf3+0x264>
    59d4:	41250533          	sub	a0,a0,s2
    59d8:	00150413          	addi	s0,a0,1
    59dc:	02000713          	li	a4,32
    59e0:	8f01                	sub	a4,a4,s0
    59e2:	00e79733          	sll	a4,a5,a4
    59e6:	00e03733          	snez	a4,a4
    59ea:	0087d7b3          	srl	a5,a5,s0
    59ee:	8fd9                	or	a5,a5,a4
    59f0:	4901                	li	s2,0
    59f2:	0077f713          	andi	a4,a5,7
    59f6:	c719                	beqz	a4,5a04 <__subsf3+0xdc>
    59f8:	00f7f713          	andi	a4,a5,15
    59fc:	4691                	li	a3,4
    59fe:	00d70363          	beq	a4,a3,5a04 <__subsf3+0xdc>
    5a02:	0791                	addi	a5,a5,4
    5a04:	00579713          	slli	a4,a5,0x5
    5a08:	14075e63          	bgez	a4,5b64 <__subsf3+0x23c>
    5a0c:	00190693          	addi	a3,s2,1 # 800001 <_data_lma+0x7f9759>
    5a10:	0ff00713          	li	a4,255
    5a14:	0014fe93          	andi	t4,s1,1
    5a18:	16e68663          	beq	a3,a4,5b84 <__subsf3+0x25c>
    5a1c:	079a                	slli	a5,a5,0x6
    5a1e:	83a5                	srli	a5,a5,0x9
    5a20:	0ff6f693          	andi	a3,a3,255
    5a24:	07a6                	slli	a5,a5,0x9
    5a26:	40b2                	lw	ra,12(sp)
    5a28:	4422                	lw	s0,8(sp)
    5a2a:	0097d513          	srli	a0,a5,0x9
    5a2e:	06de                	slli	a3,a3,0x17
    5a30:	01fe9793          	slli	a5,t4,0x1f
    5a34:	8d55                	or	a0,a0,a3
    5a36:	4492                	lw	s1,4(sp)
    5a38:	4902                	lw	s2,0(sp)
    5a3a:	8d5d                	or	a0,a0,a5
    5a3c:	0141                	addi	sp,sp,16
    5a3e:	8082                	ret
    5a40:	0a089263          	bnez	a7,5ae4 <__subsf3+0x1bc>
    5a44:	00168713          	addi	a4,a3,1 # 7e000001 <_eusrstack+0x5dff9801>
    5a48:	0fe77713          	andi	a4,a4,254
    5a4c:	14071b63          	bnez	a4,5ba2 <__subsf3+0x27a>
    5a50:	22069463          	bnez	a3,5c78 <__subsf3+0x350>
    5a54:	200f0263          	beqz	t5,5c58 <__subsf3+0x330>
    5a58:	d571                	beqz	a0,5a24 <__subsf3+0xfc>
    5a5a:	40af07b3          	sub	a5,t5,a0
    5a5e:	00579713          	slli	a4,a5,0x5
    5a62:	22075563          	bgez	a4,5c8c <__subsf3+0x364>
    5a66:	41e507b3          	sub	a5,a0,t5
    5a6a:	4901                	li	s2,0
    5a6c:	84ae                	mv	s1,a1
    5a6e:	b751                	j	59f2 <__subsf3+0xca>
    5a70:	f00500e3          	beqz	a0,5970 <__subsf3+0x48>
    5a74:	0abe8a63          	beq	t4,a1,5b28 <__subsf3+0x200>
    5a78:	fd1054e3          	blez	a7,5a40 <__subsf3+0x118>
    5a7c:	0ff00793          	li	a5,255
    5a80:	08f68163          	beq	a3,a5,5b02 <__subsf3+0x1da>
    5a84:	040007b7          	lui	a5,0x4000
    5a88:	8d5d                	or	a0,a0,a5
    5a8a:	b731                	j	5996 <__subsf3+0x6e>
    5a8c:	09105e63          	blez	a7,5b28 <__subsf3+0x200>
    5a90:	08080163          	beqz	a6,5b12 <__subsf3+0x1ea>
    5a94:	0ff00793          	li	a5,255
    5a98:	06f68563          	beq	a3,a5,5b02 <__subsf3+0x1da>
    5a9c:	040007b7          	lui	a5,0x4000
    5aa0:	8d5d                	or	a0,a0,a5
    5aa2:	47ed                	li	a5,27
    5aa4:	1f17c063          	blt	a5,a7,5c84 <__subsf3+0x35c>
    5aa8:	02000713          	li	a4,32
    5aac:	41170733          	sub	a4,a4,a7
    5ab0:	00e51733          	sll	a4,a0,a4
    5ab4:	011557b3          	srl	a5,a0,a7
    5ab8:	00e03733          	snez	a4,a4
    5abc:	8fd9                	or	a5,a5,a4
    5abe:	97fa                	add	a5,a5,t5
    5ac0:	00579713          	slli	a4,a5,0x5
    5ac4:	08075c63          	bgez	a4,5b5c <__subsf3+0x234>
    5ac8:	0905                	addi	s2,s2,1
    5aca:	0ff00713          	li	a4,255
    5ace:	0ae90b63          	beq	s2,a4,5b84 <__subsf3+0x25c>
    5ad2:	7e0006b7          	lui	a3,0x7e000
    5ad6:	0017d713          	srli	a4,a5,0x1
    5ada:	16fd                	addi	a3,a3,-1
    5adc:	8b85                	andi	a5,a5,1
    5ade:	8f75                	and	a4,a4,a3
    5ae0:	8fd9                	or	a5,a5,a4
    5ae2:	bf01                	j	59f2 <__subsf3+0xca>
    5ae4:	40d80733          	sub	a4,a6,a3
    5ae8:	10069563          	bnez	a3,5bf2 <__subsf3+0x2ca>
    5aec:	140f0d63          	beqz	t5,5c46 <__subsf3+0x31e>
    5af0:	177d                	addi	a4,a4,-1
    5af2:	1a070363          	beqz	a4,5c98 <__subsf3+0x370>
    5af6:	0ff00793          	li	a5,255
    5afa:	10f81463          	bne	a6,a5,5c02 <__subsf3+0x2da>
    5afe:	84ae                	mv	s1,a1
    5b00:	8e32                	mv	t3,a2
    5b02:	060e0f63          	beqz	t3,5b80 <__subsf3+0x258>
    5b06:	4e81                	li	t4,0
    5b08:	0ff00693          	li	a3,255
    5b0c:	004007b7          	lui	a5,0x400
    5b10:	bf11                	j	5a24 <__subsf3+0xfc>
    5b12:	c939                	beqz	a0,5b68 <__subsf3+0x240>
    5b14:	18fd                	addi	a7,a7,-1
    5b16:	00af07b3          	add	a5,t5,a0
    5b1a:	fa0883e3          	beqz	a7,5ac0 <__subsf3+0x198>
    5b1e:	0ff00793          	li	a5,255
    5b22:	f8f690e3          	bne	a3,a5,5aa2 <__subsf3+0x17a>
    5b26:	bff1                	j	5b02 <__subsf3+0x1da>
    5b28:	08089963          	bnez	a7,5bba <__subsf3+0x292>
    5b2c:	00168913          	addi	s2,a3,1 # 7e000001 <_eusrstack+0x5dff9801>
    5b30:	0fe97713          	andi	a4,s2,254
    5b34:	12071663          	bnez	a4,5c60 <__subsf3+0x338>
    5b38:	10069b63          	bnez	a3,5c4e <__subsf3+0x326>
    5b3c:	160f0363          	beqz	t5,5ca2 <__subsf3+0x37a>
    5b40:	ee0502e3          	beqz	a0,5a24 <__subsf3+0xfc>
    5b44:	00af07b3          	add	a5,t5,a0
    5b48:	00579713          	slli	a4,a5,0x5
    5b4c:	4901                	li	s2,0
    5b4e:	00075763          	bgez	a4,5b5c <__subsf3+0x234>
    5b52:	fc000737          	lui	a4,0xfc000
    5b56:	177d                	addi	a4,a4,-1
    5b58:	8ff9                	and	a5,a5,a4
    5b5a:	4905                	li	s2,1
    5b5c:	0077f713          	andi	a4,a5,7
    5b60:	e8071ce3          	bnez	a4,59f8 <__subsf3+0xd0>
    5b64:	0037de13          	srli	t3,a5,0x3
    5b68:	0ff00793          	li	a5,255
    5b6c:	f8f90be3          	beq	s2,a5,5b02 <__subsf3+0x1da>
    5b70:	009e1793          	slli	a5,t3,0x9
    5b74:	83a5                	srli	a5,a5,0x9
    5b76:	0ff97693          	andi	a3,s2,255
    5b7a:	0014fe93          	andi	t4,s1,1
    5b7e:	b55d                	j	5a24 <__subsf3+0xfc>
    5b80:	0014fe93          	andi	t4,s1,1
    5b84:	0ff00693          	li	a3,255
    5b88:	4781                	li	a5,0
    5b8a:	bd69                	j	5a24 <__subsf3+0xfc>
    5b8c:	fc000737          	lui	a4,0xfc000
    5b90:	177d                	addi	a4,a4,-1
    5b92:	8ff9                	and	a5,a5,a4
    5b94:	0077f713          	andi	a4,a5,7
    5b98:	40a90933          	sub	s2,s2,a0
    5b9c:	e4071ee3          	bnez	a4,59f8 <__subsf3+0xd0>
    5ba0:	b7d1                	j	5b64 <__subsf3+0x23c>
    5ba2:	40af0433          	sub	s0,t5,a0
    5ba6:	00541793          	slli	a5,s0,0x5
    5baa:	0c07c363          	bltz	a5,5c70 <__subsf3+0x348>
    5bae:	e0041ce3          	bnez	s0,59c6 <__subsf3+0x9e>
    5bb2:	4e81                	li	t4,0
    5bb4:	4681                	li	a3,0
    5bb6:	4781                	li	a5,0
    5bb8:	b5b5                	j	5a24 <__subsf3+0xfc>
    5bba:	40d80733          	sub	a4,a6,a3
    5bbe:	c6b5                	beqz	a3,5c2a <__subsf3+0x302>
    5bc0:	0ff00793          	li	a5,255
    5bc4:	f2f80ee3          	beq	a6,a5,5b00 <__subsf3+0x1d8>
    5bc8:	040007b7          	lui	a5,0x4000
    5bcc:	00ff6f33          	or	t5,t5,a5
    5bd0:	47ed                	li	a5,27
    5bd2:	0ce7cd63          	blt	a5,a4,5cac <__subsf3+0x384>
    5bd6:	02000793          	li	a5,32
    5bda:	8f99                	sub	a5,a5,a4
    5bdc:	00ff17b3          	sll	a5,t5,a5
    5be0:	00ef5733          	srl	a4,t5,a4
    5be4:	00f037b3          	snez	a5,a5
    5be8:	8f5d                	or	a4,a4,a5
    5bea:	00a707b3          	add	a5,a4,a0
    5bee:	8942                	mv	s2,a6
    5bf0:	bdc1                	j	5ac0 <__subsf3+0x198>
    5bf2:	0ff00793          	li	a5,255
    5bf6:	f0f804e3          	beq	a6,a5,5afe <__subsf3+0x1d6>
    5bfa:	040007b7          	lui	a5,0x4000
    5bfe:	00ff6f33          	or	t5,t5,a5
    5c02:	47ed                	li	a5,27
    5c04:	08e7c263          	blt	a5,a4,5c88 <__subsf3+0x360>
    5c08:	02000793          	li	a5,32
    5c0c:	8f99                	sub	a5,a5,a4
    5c0e:	00ff17b3          	sll	a5,t5,a5
    5c12:	00ef5733          	srl	a4,t5,a4
    5c16:	00f037b3          	snez	a5,a5
    5c1a:	8fd9                	or	a5,a5,a4
    5c1c:	40f507b3          	sub	a5,a0,a5
    5c20:	8942                	mv	s2,a6
    5c22:	84ae                	mv	s1,a1
    5c24:	bb49                	j	59b6 <__subsf3+0x8e>
    5c26:	4785                	li	a5,1
    5c28:	b369                	j	59b2 <__subsf3+0x8a>
    5c2a:	060f0e63          	beqz	t5,5ca6 <__subsf3+0x37e>
    5c2e:	177d                	addi	a4,a4,-1
    5c30:	00af07b3          	add	a5,t5,a0
    5c34:	8942                	mv	s2,a6
    5c36:	e80705e3          	beqz	a4,5ac0 <__subsf3+0x198>
    5c3a:	0ff00793          	li	a5,255
    5c3e:	f8f819e3          	bne	a6,a5,5bd0 <__subsf3+0x2a8>
    5c42:	8e32                	mv	t3,a2
    5c44:	bd7d                	j	5b02 <__subsf3+0x1da>
    5c46:	8e32                	mv	t3,a2
    5c48:	8942                	mv	s2,a6
    5c4a:	84ae                	mv	s1,a1
    5c4c:	bf31                	j	5b68 <__subsf3+0x240>
    5c4e:	ea0f09e3          	beqz	t5,5b00 <__subsf3+0x1d8>
    5c52:	ea0508e3          	beqz	a0,5b02 <__subsf3+0x1da>
    5c56:	bd45                	j	5b06 <__subsf3+0x1de>
    5c58:	cd0d                	beqz	a0,5c92 <__subsf3+0x36a>
    5c5a:	8eae                	mv	t4,a1
    5c5c:	87b2                	mv	a5,a2
    5c5e:	b3d9                	j	5a24 <__subsf3+0xfc>
    5c60:	0ff00793          	li	a5,255
    5c64:	f2f900e3          	beq	s2,a5,5b84 <__subsf3+0x25c>
    5c68:	00af07b3          	add	a5,t5,a0
    5c6c:	8385                	srli	a5,a5,0x1
    5c6e:	b5fd                	j	5b5c <__subsf3+0x234>
    5c70:	41e50433          	sub	s0,a0,t5
    5c74:	84ae                	mv	s1,a1
    5c76:	bb81                	j	59c6 <__subsf3+0x9e>
    5c78:	fc0f1de3          	bnez	t5,5c52 <__subsf3+0x32a>
    5c7c:	e80505e3          	beqz	a0,5b06 <__subsf3+0x1de>
    5c80:	84ae                	mv	s1,a1
    5c82:	bdbd                	j	5b00 <__subsf3+0x1d8>
    5c84:	4785                	li	a5,1
    5c86:	bd25                	j	5abe <__subsf3+0x196>
    5c88:	4785                	li	a5,1
    5c8a:	bf49                	j	5c1c <__subsf3+0x2f4>
    5c8c:	4901                	li	s2,0
    5c8e:	ec0797e3          	bnez	a5,5b5c <__subsf3+0x234>
    5c92:	4e81                	li	t4,0
    5c94:	4781                	li	a5,0
    5c96:	b379                	j	5a24 <__subsf3+0xfc>
    5c98:	41e507b3          	sub	a5,a0,t5
    5c9c:	8942                	mv	s2,a6
    5c9e:	84ae                	mv	s1,a1
    5ca0:	bb19                	j	59b6 <__subsf3+0x8e>
    5ca2:	87b2                	mv	a5,a2
    5ca4:	b341                	j	5a24 <__subsf3+0xfc>
    5ca6:	8e32                	mv	t3,a2
    5ca8:	8942                	mv	s2,a6
    5caa:	bd7d                	j	5b68 <__subsf3+0x240>
    5cac:	4705                	li	a4,1
    5cae:	bf35                	j	5bea <__subsf3+0x2c2>

00005cb0 <__fixsfsi>:
__fixsfsi():
    5cb0:	00800637          	lui	a2,0x800
    5cb4:	01755713          	srli	a4,a0,0x17
    5cb8:	fff60793          	addi	a5,a2,-1 # 7fffff <_data_lma+0x7f9757>
    5cbc:	0ff77713          	andi	a4,a4,255
    5cc0:	07e00593          	li	a1,126
    5cc4:	00a7f6b3          	and	a3,a5,a0
    5cc8:	01f55793          	srli	a5,a0,0x1f
    5ccc:	00e5fc63          	bgeu	a1,a4,5ce4 <__fixsfsi+0x34>
    5cd0:	09d00593          	li	a1,157
    5cd4:	00e5fa63          	bgeu	a1,a4,5ce8 <__fixsfsi+0x38>
    5cd8:	80000537          	lui	a0,0x80000
    5cdc:	fff54513          	not	a0,a0
    5ce0:	953e                	add	a0,a0,a5
    5ce2:	8082                	ret
    5ce4:	4501                	li	a0,0
    5ce6:	8082                	ret
    5ce8:	09500593          	li	a1,149
    5cec:	8ed1                	or	a3,a3,a2
    5cee:	00e5cd63          	blt	a1,a4,5d08 <__fixsfsi+0x58>
    5cf2:	09600613          	li	a2,150
    5cf6:	40e60733          	sub	a4,a2,a4
    5cfa:	00e6d733          	srl	a4,a3,a4
    5cfe:	40e00533          	neg	a0,a4
    5d02:	f3f5                	bnez	a5,5ce6 <__fixsfsi+0x36>
    5d04:	853a                	mv	a0,a4
    5d06:	8082                	ret
    5d08:	f6a70713          	addi	a4,a4,-150 # fbffff6a <_eusrstack+0xdbff976a>
    5d0c:	00e69733          	sll	a4,a3,a4
    5d10:	b7fd                	j	5cfe <__fixsfsi+0x4e>

00005d12 <__floatsisf>:
__floatsisf():
    5d12:	1141                	addi	sp,sp,-16
    5d14:	c606                	sw	ra,12(sp)
    5d16:	c422                	sw	s0,8(sp)
    5d18:	c226                	sw	s1,4(sp)
    5d1a:	cd0d                	beqz	a0,5d54 <__floatsisf+0x42>
    5d1c:	41f55793          	srai	a5,a0,0x1f
    5d20:	00a7c433          	xor	s0,a5,a0
    5d24:	8c1d                	sub	s0,s0,a5
    5d26:	84aa                	mv	s1,a0
    5d28:	8522                	mv	a0,s0
    5d2a:	24d1                	jal	5fee <__clzsi2>
    5d2c:	09e00793          	li	a5,158
    5d30:	40a78733          	sub	a4,a5,a0
    5d34:	09600793          	li	a5,150
    5d38:	80fd                	srli	s1,s1,0x1f
    5d3a:	02e7cc63          	blt	a5,a4,5d72 <__floatsisf+0x60>
    5d3e:	46a1                	li	a3,8
    5d40:	0ff77793          	andi	a5,a4,255
    5d44:	00a6d563          	bge	a3,a0,5d4e <__floatsisf+0x3c>
    5d48:	1561                	addi	a0,a0,-8
    5d4a:	00a41433          	sll	s0,s0,a0
    5d4e:	0426                	slli	s0,s0,0x9
    5d50:	8025                	srli	s0,s0,0x9
    5d52:	a021                	j	5d5a <__floatsisf+0x48>
    5d54:	4481                	li	s1,0
    5d56:	4781                	li	a5,0
    5d58:	4401                	li	s0,0
    5d5a:	0426                	slli	s0,s0,0x9
    5d5c:	00945513          	srli	a0,s0,0x9
    5d60:	40b2                	lw	ra,12(sp)
    5d62:	4422                	lw	s0,8(sp)
    5d64:	07de                	slli	a5,a5,0x17
    5d66:	04fe                	slli	s1,s1,0x1f
    5d68:	8d5d                	or	a0,a0,a5
    5d6a:	8d45                	or	a0,a0,s1
    5d6c:	4492                	lw	s1,4(sp)
    5d6e:	0141                	addi	sp,sp,16
    5d70:	8082                	ret
    5d72:	09900793          	li	a5,153
    5d76:	00e7dd63          	bge	a5,a4,5d90 <__floatsisf+0x7e>
    5d7a:	01b50793          	addi	a5,a0,27 # 8000001b <_eusrstack+0x5fff981b>
    5d7e:	4695                	li	a3,5
    5d80:	00f417b3          	sll	a5,s0,a5
    5d84:	8e89                	sub	a3,a3,a0
    5d86:	00d45433          	srl	s0,s0,a3
    5d8a:	00f037b3          	snez	a5,a5
    5d8e:	8c5d                	or	s0,s0,a5
    5d90:	4795                	li	a5,5
    5d92:	00a7d663          	bge	a5,a0,5d9e <__floatsisf+0x8c>
    5d96:	ffb50793          	addi	a5,a0,-5
    5d9a:	00f41433          	sll	s0,s0,a5
    5d9e:	fc0006b7          	lui	a3,0xfc000
    5da2:	16fd                	addi	a3,a3,-1
    5da4:	00747793          	andi	a5,s0,7
    5da8:	00d47633          	and	a2,s0,a3
    5dac:	c385                	beqz	a5,5dcc <__floatsisf+0xba>
    5dae:	00f47793          	andi	a5,s0,15
    5db2:	4591                	li	a1,4
    5db4:	00b78c63          	beq	a5,a1,5dcc <__floatsisf+0xba>
    5db8:	0611                	addi	a2,a2,4
    5dba:	00561793          	slli	a5,a2,0x5
    5dbe:	0007d763          	bgez	a5,5dcc <__floatsisf+0xba>
    5dc2:	09f00793          	li	a5,159
    5dc6:	8e75                	and	a2,a2,a3
    5dc8:	40a78733          	sub	a4,a5,a0
    5dcc:	00661413          	slli	s0,a2,0x6
    5dd0:	8025                	srli	s0,s0,0x9
    5dd2:	0ff77793          	andi	a5,a4,255
    5dd6:	b751                	j	5d5a <__floatsisf+0x48>

00005dd8 <__extendsfdf2>:
__extendsfdf2():
    5dd8:	01755713          	srli	a4,a0,0x17
    5ddc:	0ff77713          	andi	a4,a4,255
    5de0:	1141                	addi	sp,sp,-16
    5de2:	00170793          	addi	a5,a4,1
    5de6:	c422                	sw	s0,8(sp)
    5de8:	c226                	sw	s1,4(sp)
    5dea:	00951413          	slli	s0,a0,0x9
    5dee:	c606                	sw	ra,12(sp)
    5df0:	0fe7f793          	andi	a5,a5,254
    5df4:	8025                	srli	s0,s0,0x9
    5df6:	01f55493          	srli	s1,a0,0x1f
    5dfa:	c785                	beqz	a5,5e22 <__extendsfdf2+0x4a>
    5dfc:	00345793          	srli	a5,s0,0x3
    5e00:	38070713          	addi	a4,a4,896
    5e04:	0476                	slli	s0,s0,0x1d
    5e06:	07b2                	slli	a5,a5,0xc
    5e08:	0752                	slli	a4,a4,0x14
    5e0a:	83b1                	srli	a5,a5,0xc
    5e0c:	01f49513          	slli	a0,s1,0x1f
    5e10:	8fd9                	or	a5,a5,a4
    5e12:	8fc9                	or	a5,a5,a0
    5e14:	40b2                	lw	ra,12(sp)
    5e16:	8522                	mv	a0,s0
    5e18:	4422                	lw	s0,8(sp)
    5e1a:	4492                	lw	s1,4(sp)
    5e1c:	85be                	mv	a1,a5
    5e1e:	0141                	addi	sp,sp,16
    5e20:	8082                	ret
    5e22:	eb05                	bnez	a4,5e52 <__extendsfdf2+0x7a>
    5e24:	c439                	beqz	s0,5e72 <__extendsfdf2+0x9a>
    5e26:	8522                	mv	a0,s0
    5e28:	22d9                	jal	5fee <__clzsi2>
    5e2a:	47a9                	li	a5,10
    5e2c:	04a7c663          	blt	a5,a0,5e78 <__extendsfdf2+0xa0>
    5e30:	472d                	li	a4,11
    5e32:	8f09                	sub	a4,a4,a0
    5e34:	01550793          	addi	a5,a0,21
    5e38:	00e45733          	srl	a4,s0,a4
    5e3c:	00f41433          	sll	s0,s0,a5
    5e40:	00c71793          	slli	a5,a4,0xc
    5e44:	38900713          	li	a4,905
    5e48:	8f09                	sub	a4,a4,a0
    5e4a:	83b1                	srli	a5,a5,0xc
    5e4c:	7ff77713          	andi	a4,a4,2047
    5e50:	bf5d                	j	5e06 <__extendsfdf2+0x2e>
    5e52:	cc01                	beqz	s0,5e6a <__extendsfdf2+0x92>
    5e54:	00345713          	srli	a4,s0,0x3
    5e58:	000807b7          	lui	a5,0x80
    5e5c:	8fd9                	or	a5,a5,a4
    5e5e:	07b2                	slli	a5,a5,0xc
    5e60:	0476                	slli	s0,s0,0x1d
    5e62:	83b1                	srli	a5,a5,0xc
    5e64:	7ff00713          	li	a4,2047
    5e68:	bf79                	j	5e06 <__extendsfdf2+0x2e>
    5e6a:	7ff00713          	li	a4,2047
    5e6e:	4781                	li	a5,0
    5e70:	bf59                	j	5e06 <__extendsfdf2+0x2e>
    5e72:	4701                	li	a4,0
    5e74:	4781                	li	a5,0
    5e76:	bf41                	j	5e06 <__extendsfdf2+0x2e>
    5e78:	ff550713          	addi	a4,a0,-11
    5e7c:	00e41733          	sll	a4,s0,a4
    5e80:	4401                	li	s0,0
    5e82:	bf7d                	j	5e40 <__extendsfdf2+0x68>

00005e84 <__truncdfsf2>:
__truncdfsf2():
    5e84:	0145d693          	srli	a3,a1,0x14
    5e88:	00c59793          	slli	a5,a1,0xc
    5e8c:	7ff6f693          	andi	a3,a3,2047
    5e90:	83b1                	srli	a5,a5,0xc
    5e92:	00168613          	addi	a2,a3,1 # fc000001 <_eusrstack+0xdbff9801>
    5e96:	078e                	slli	a5,a5,0x3
    5e98:	01d55713          	srli	a4,a0,0x1d
    5e9c:	7fe67613          	andi	a2,a2,2046
    5ea0:	81fd                	srli	a1,a1,0x1f
    5ea2:	8f5d                	or	a4,a4,a5
    5ea4:	00351893          	slli	a7,a0,0x3
    5ea8:	ce35                	beqz	a2,5f24 <__truncdfsf2+0xa0>
    5eaa:	c8068813          	addi	a6,a3,-896
    5eae:	0fe00793          	li	a5,254
    5eb2:	0107dd63          	bge	a5,a6,5ecc <__truncdfsf2+0x48>
    5eb6:	4781                	li	a5,0
    5eb8:	00979513          	slli	a0,a5,0x9
    5ebc:	0ff00693          	li	a3,255
    5ec0:	06de                	slli	a3,a3,0x17
    5ec2:	8125                	srli	a0,a0,0x9
    5ec4:	05fe                	slli	a1,a1,0x1f
    5ec6:	8d55                	or	a0,a0,a3
    5ec8:	8d4d                	or	a0,a0,a1
    5eca:	8082                	ret
    5ecc:	0b005563          	blez	a6,5f76 <__truncdfsf2+0xf2>
    5ed0:	00651793          	slli	a5,a0,0x6
    5ed4:	070e                	slli	a4,a4,0x3
    5ed6:	00f037b3          	snez	a5,a5
    5eda:	8fd9                	or	a5,a5,a4
    5edc:	01d8d893          	srli	a7,a7,0x1d
    5ee0:	0117e7b3          	or	a5,a5,a7
    5ee4:	0077f713          	andi	a4,a5,7
    5ee8:	10070163          	beqz	a4,5fea <__truncdfsf2+0x166>
    5eec:	00f7f713          	andi	a4,a5,15
    5ef0:	4691                	li	a3,4
    5ef2:	00d70363          	beq	a4,a3,5ef8 <__truncdfsf2+0x74>
    5ef6:	0791                	addi	a5,a5,4
    5ef8:	04000737          	lui	a4,0x4000
    5efc:	8f7d                	and	a4,a4,a5
    5efe:	c775                	beqz	a4,5fea <__truncdfsf2+0x166>
    5f00:	00180713          	addi	a4,a6,1
    5f04:	0ff00613          	li	a2,255
    5f08:	0ff77693          	andi	a3,a4,255
    5f0c:	fac705e3          	beq	a4,a2,5eb6 <__truncdfsf2+0x32>
    5f10:	079a                	slli	a5,a5,0x6
    5f12:	83a5                	srli	a5,a5,0x9
    5f14:	00979513          	slli	a0,a5,0x9
    5f18:	06de                	slli	a3,a3,0x17
    5f1a:	8125                	srli	a0,a0,0x9
    5f1c:	05fe                	slli	a1,a1,0x1f
    5f1e:	8d55                	or	a0,a0,a3
    5f20:	8d4d                	or	a0,a0,a1
    5f22:	8082                	ret
    5f24:	011767b3          	or	a5,a4,a7
    5f28:	ee99                	bnez	a3,5f46 <__truncdfsf2+0xc2>
    5f2a:	cf85                	beqz	a5,5f62 <__truncdfsf2+0xde>
    5f2c:	4795                	li	a5,5
    5f2e:	079a                	slli	a5,a5,0x6
    5f30:	83a5                	srli	a5,a5,0x9
    5f32:	00979513          	slli	a0,a5,0x9
    5f36:	0ff6f693          	andi	a3,a3,255
    5f3a:	06de                	slli	a3,a3,0x17
    5f3c:	8125                	srli	a0,a0,0x9
    5f3e:	05fe                	slli	a1,a1,0x1f
    5f40:	8d55                	or	a0,a0,a3
    5f42:	8d4d                	or	a0,a0,a1
    5f44:	8082                	ret
    5f46:	dba5                	beqz	a5,5eb6 <__truncdfsf2+0x32>
    5f48:	004007b7          	lui	a5,0x400
    5f4c:	00979513          	slli	a0,a5,0x9
    5f50:	0ff00693          	li	a3,255
    5f54:	06de                	slli	a3,a3,0x17
    5f56:	4581                	li	a1,0
    5f58:	8125                	srli	a0,a0,0x9
    5f5a:	05fe                	slli	a1,a1,0x1f
    5f5c:	8d55                	or	a0,a0,a3
    5f5e:	8d4d                	or	a0,a0,a1
    5f60:	8082                	ret
    5f62:	4781                	li	a5,0
    5f64:	00979513          	slli	a0,a5,0x9
    5f68:	4681                	li	a3,0
    5f6a:	06de                	slli	a3,a3,0x17
    5f6c:	8125                	srli	a0,a0,0x9
    5f6e:	05fe                	slli	a1,a1,0x1f
    5f70:	8d55                	or	a0,a0,a3
    5f72:	8d4d                	or	a0,a0,a1
    5f74:	8082                	ret
    5f76:	57a5                	li	a5,-23
    5f78:	04f84863          	blt	a6,a5,5fc8 <__truncdfsf2+0x144>
    5f7c:	47f9                	li	a5,30
    5f7e:	00800637          	lui	a2,0x800
    5f82:	410787b3          	sub	a5,a5,a6
    5f86:	457d                	li	a0,31
    5f88:	8e59                	or	a2,a2,a4
    5f8a:	04f55163          	bge	a0,a5,5fcc <__truncdfsf2+0x148>
    5f8e:	5779                	li	a4,-2
    5f90:	41070733          	sub	a4,a4,a6
    5f94:	02000513          	li	a0,32
    5f98:	00e65733          	srl	a4,a2,a4
    5f9c:	00a78863          	beq	a5,a0,5fac <__truncdfsf2+0x128>
    5fa0:	ca268693          	addi	a3,a3,-862
    5fa4:	00d616b3          	sll	a3,a2,a3
    5fa8:	00d8e8b3          	or	a7,a7,a3
    5fac:	011037b3          	snez	a5,a7
    5fb0:	8fd9                	or	a5,a5,a4
    5fb2:	0077f713          	andi	a4,a5,7
    5fb6:	4801                	li	a6,0
    5fb8:	fb15                	bnez	a4,5eec <__truncdfsf2+0x68>
    5fba:	00579713          	slli	a4,a5,0x5
    5fbe:	4685                	li	a3,1
    5fc0:	f40748e3          	bltz	a4,5f10 <__truncdfsf2+0x8c>
    5fc4:	4681                	li	a3,0
    5fc6:	b7a5                	j	5f2e <__truncdfsf2+0xaa>
    5fc8:	4681                	li	a3,0
    5fca:	b78d                	j	5f2c <__truncdfsf2+0xa8>
    5fcc:	c8268693          	addi	a3,a3,-894
    5fd0:	00d89733          	sll	a4,a7,a3
    5fd4:	00e03733          	snez	a4,a4
    5fd8:	00d616b3          	sll	a3,a2,a3
    5fdc:	00f8d8b3          	srl	a7,a7,a5
    5fe0:	00d767b3          	or	a5,a4,a3
    5fe4:	00f8e7b3          	or	a5,a7,a5
    5fe8:	b7e9                	j	5fb2 <__truncdfsf2+0x12e>
    5fea:	86c2                	mv	a3,a6
    5fec:	b789                	j	5f2e <__truncdfsf2+0xaa>

00005fee <__clzsi2>:
__clzsi2():
    5fee:	67c1                	lui	a5,0x10
    5ff0:	02f57e63          	bgeu	a0,a5,602c <__clzsi2+0x3e>
    5ff4:	0ff00793          	li	a5,255
    5ff8:	02000713          	li	a4,32
    5ffc:	00a7ec63          	bltu	a5,a0,6014 <__clzsi2+0x26>
    6000:	00000797          	auipc	a5,0x0
    6004:	7a878793          	addi	a5,a5,1960 # 67a8 <__clz_tab>
    6008:	97aa                	add	a5,a5,a0
    600a:	0007c503          	lbu	a0,0(a5)
    600e:	40a70533          	sub	a0,a4,a0
    6012:	8082                	ret
    6014:	8121                	srli	a0,a0,0x8
    6016:	00000797          	auipc	a5,0x0
    601a:	79278793          	addi	a5,a5,1938 # 67a8 <__clz_tab>
    601e:	97aa                	add	a5,a5,a0
    6020:	0007c503          	lbu	a0,0(a5)
    6024:	4761                	li	a4,24
    6026:	40a70533          	sub	a0,a4,a0
    602a:	8082                	ret
    602c:	010007b7          	lui	a5,0x1000
    6030:	00f56e63          	bltu	a0,a5,604c <__clzsi2+0x5e>
    6034:	8161                	srli	a0,a0,0x18
    6036:	00000797          	auipc	a5,0x0
    603a:	77278793          	addi	a5,a5,1906 # 67a8 <__clz_tab>
    603e:	97aa                	add	a5,a5,a0
    6040:	0007c503          	lbu	a0,0(a5)
    6044:	4721                	li	a4,8
    6046:	40a70533          	sub	a0,a4,a0
    604a:	8082                	ret
    604c:	8141                	srli	a0,a0,0x10
    604e:	00000797          	auipc	a5,0x0
    6052:	75a78793          	addi	a5,a5,1882 # 67a8 <__clz_tab>
    6056:	97aa                	add	a5,a5,a0
    6058:	0007c503          	lbu	a0,0(a5)
    605c:	4741                	li	a4,16
    605e:	40a70533          	sub	a0,a4,a0
    6062:	8082                	ret

00006064 <malloc>:
malloc():
    6064:	1fffa797          	auipc	a5,0x1fffa
    6068:	7fc78793          	addi	a5,a5,2044 # 20000860 <_impure_ptr>
    606c:	85aa                	mv	a1,a0
    606e:	4388                	lw	a0,0(a5)
    6070:	a009                	j	6072 <_malloc_r>

00006072 <_malloc_r>:
_malloc_r():
    6072:	1101                	addi	sp,sp,-32
    6074:	ca26                	sw	s1,20(sp)
    6076:	00358493          	addi	s1,a1,3
    607a:	98f1                	andi	s1,s1,-4
    607c:	ce06                	sw	ra,28(sp)
    607e:	cc22                	sw	s0,24(sp)
    6080:	c84a                	sw	s2,16(sp)
    6082:	c64e                	sw	s3,12(sp)
    6084:	04a1                	addi	s1,s1,8
    6086:	47b1                	li	a5,12
    6088:	04f4f163          	bgeu	s1,a5,60ca <_malloc_r+0x58>
    608c:	44b1                	li	s1,12
    608e:	04b4e063          	bltu	s1,a1,60ce <_malloc_r+0x5c>
    6092:	892a                	mv	s2,a0
    6094:	2c39                	jal	62b2 <__malloc_lock>
    6096:	80c18793          	addi	a5,gp,-2036 # 2000086c <__malloc_free_list>
    609a:	4398                	lw	a4,0(a5)
    609c:	843a                	mv	s0,a4
    609e:	e031                	bnez	s0,60e2 <_malloc_r+0x70>
    60a0:	81018793          	addi	a5,gp,-2032 # 20000870 <__malloc_sbrk_start>
    60a4:	439c                	lw	a5,0(a5)
    60a6:	e791                	bnez	a5,60b2 <_malloc_r+0x40>
    60a8:	4581                	li	a1,0
    60aa:	854a                	mv	a0,s2
    60ac:	2abd                	jal	622a <_sbrk_r>
    60ae:	80a1a823          	sw	a0,-2032(gp) # 20000870 <__malloc_sbrk_start>
    60b2:	85a6                	mv	a1,s1
    60b4:	854a                	mv	a0,s2
    60b6:	2a95                	jal	622a <_sbrk_r>
    60b8:	59fd                	li	s3,-1
    60ba:	07351763          	bne	a0,s3,6128 <_malloc_r+0xb6>
    60be:	47b1                	li	a5,12
    60c0:	00f92023          	sw	a5,0(s2)
    60c4:	854a                	mv	a0,s2
    60c6:	22fd                	jal	62b4 <__malloc_unlock>
    60c8:	a029                	j	60d2 <_malloc_r+0x60>
    60ca:	fc04d2e3          	bgez	s1,608e <_malloc_r+0x1c>
    60ce:	47b1                	li	a5,12
    60d0:	c11c                	sw	a5,0(a0)
    60d2:	4501                	li	a0,0
    60d4:	40f2                	lw	ra,28(sp)
    60d6:	4462                	lw	s0,24(sp)
    60d8:	44d2                	lw	s1,20(sp)
    60da:	4942                	lw	s2,16(sp)
    60dc:	49b2                	lw	s3,12(sp)
    60de:	6105                	addi	sp,sp,32
    60e0:	8082                	ret
    60e2:	401c                	lw	a5,0(s0)
    60e4:	8f85                	sub	a5,a5,s1
    60e6:	0207ce63          	bltz	a5,6122 <_malloc_r+0xb0>
    60ea:	46ad                	li	a3,11
    60ec:	00f6f663          	bgeu	a3,a5,60f8 <_malloc_r+0x86>
    60f0:	c01c                	sw	a5,0(s0)
    60f2:	943e                	add	s0,s0,a5
    60f4:	c004                	sw	s1,0(s0)
    60f6:	a031                	j	6102 <_malloc_r+0x90>
    60f8:	405c                	lw	a5,4(s0)
    60fa:	02871263          	bne	a4,s0,611e <_malloc_r+0xac>
    60fe:	80f1a623          	sw	a5,-2036(gp) # 2000086c <__malloc_free_list>
    6102:	854a                	mv	a0,s2
    6104:	2a45                	jal	62b4 <__malloc_unlock>
    6106:	00b40513          	addi	a0,s0,11 # 400000b <_data_lma+0x3ff9763>
    610a:	00440793          	addi	a5,s0,4
    610e:	9961                	andi	a0,a0,-8
    6110:	40f50733          	sub	a4,a0,a5
    6114:	d361                	beqz	a4,60d4 <_malloc_r+0x62>
    6116:	943a                	add	s0,s0,a4
    6118:	8f89                	sub	a5,a5,a0
    611a:	c01c                	sw	a5,0(s0)
    611c:	bf65                	j	60d4 <_malloc_r+0x62>
    611e:	c35c                	sw	a5,4(a4)
    6120:	b7cd                	j	6102 <_malloc_r+0x90>
    6122:	8722                	mv	a4,s0
    6124:	4040                	lw	s0,4(s0)
    6126:	bfa5                	j	609e <_malloc_r+0x2c>
    6128:	00350413          	addi	s0,a0,3
    612c:	9871                	andi	s0,s0,-4
    612e:	fc8503e3          	beq	a0,s0,60f4 <_malloc_r+0x82>
    6132:	40a405b3          	sub	a1,s0,a0
    6136:	854a                	mv	a0,s2
    6138:	28cd                	jal	622a <_sbrk_r>
    613a:	fb351de3          	bne	a0,s3,60f4 <_malloc_r+0x82>
    613e:	b741                	j	60be <_malloc_r+0x4c>

00006140 <srand>:
srand():
    6140:	1141                	addi	sp,sp,-16
    6142:	1fffa797          	auipc	a5,0x1fffa
    6146:	71e78793          	addi	a5,a5,1822 # 20000860 <_impure_ptr>
    614a:	c422                	sw	s0,8(sp)
    614c:	4380                	lw	s0,0(a5)
    614e:	c226                	sw	s1,4(sp)
    6150:	c606                	sw	ra,12(sp)
    6152:	5c1c                	lw	a5,56(s0)
    6154:	84aa                	mv	s1,a0
    6156:	eb9d                	bnez	a5,618c <srand+0x4c>
    6158:	4561                	li	a0,24
    615a:	f0bff0ef          	jal	ra,6064 <malloc>
    615e:	abcd37b7          	lui	a5,0xabcd3
    6162:	dc08                	sw	a0,56(s0)
    6164:	30e78793          	addi	a5,a5,782 # abcd330e <_eusrstack+0x8bcccb0e>
    6168:	c11c                	sw	a5,0(a0)
    616a:	e66d17b7          	lui	a5,0xe66d1
    616e:	23478793          	addi	a5,a5,564 # e66d1234 <_eusrstack+0xc66caa34>
    6172:	c15c                	sw	a5,4(a0)
    6174:	0005e7b7          	lui	a5,0x5e
    6178:	eec78793          	addi	a5,a5,-276 # 5deec <_data_lma+0x57644>
    617c:	c51c                	sw	a5,8(a0)
    617e:	47ad                	li	a5,11
    6180:	00f51623          	sh	a5,12(a0)
    6184:	4705                	li	a4,1
    6186:	4781                	li	a5,0
    6188:	c918                	sw	a4,16(a0)
    618a:	c95c                	sw	a5,20(a0)
    618c:	5c1c                	lw	a5,56(s0)
    618e:	40b2                	lw	ra,12(sp)
    6190:	4422                	lw	s0,8(sp)
    6192:	cb84                	sw	s1,16(a5)
    6194:	0007aa23          	sw	zero,20(a5)
    6198:	4492                	lw	s1,4(sp)
    619a:	0141                	addi	sp,sp,16
    619c:	8082                	ret

0000619e <rand>:
rand():
    619e:	1141                	addi	sp,sp,-16
    61a0:	1fffa797          	auipc	a5,0x1fffa
    61a4:	6c078793          	addi	a5,a5,1728 # 20000860 <_impure_ptr>
    61a8:	c422                	sw	s0,8(sp)
    61aa:	4380                	lw	s0,0(a5)
    61ac:	c606                	sw	ra,12(sp)
    61ae:	5c1c                	lw	a5,56(s0)
    61b0:	eb9d                	bnez	a5,61e6 <rand+0x48>
    61b2:	4561                	li	a0,24
    61b4:	eb1ff0ef          	jal	ra,6064 <malloc>
    61b8:	abcd37b7          	lui	a5,0xabcd3
    61bc:	dc08                	sw	a0,56(s0)
    61be:	30e78793          	addi	a5,a5,782 # abcd330e <_eusrstack+0x8bcccb0e>
    61c2:	c11c                	sw	a5,0(a0)
    61c4:	e66d17b7          	lui	a5,0xe66d1
    61c8:	23478793          	addi	a5,a5,564 # e66d1234 <_eusrstack+0xc66caa34>
    61cc:	c15c                	sw	a5,4(a0)
    61ce:	0005e7b7          	lui	a5,0x5e
    61d2:	eec78793          	addi	a5,a5,-276 # 5deec <_data_lma+0x57644>
    61d6:	c51c                	sw	a5,8(a0)
    61d8:	47ad                	li	a5,11
    61da:	00f51623          	sh	a5,12(a0)
    61de:	4705                	li	a4,1
    61e0:	4781                	li	a5,0
    61e2:	c918                	sw	a4,16(a0)
    61e4:	c95c                	sw	a5,20(a0)
    61e6:	5c10                	lw	a2,56(s0)
    61e8:	4c958737          	lui	a4,0x4c958
    61ec:	5851f7b7          	lui	a5,0x5851f
    61f0:	4a14                	lw	a3,16(a2)
    61f2:	4a48                	lw	a0,20(a2)
    61f4:	f2d70713          	addi	a4,a4,-211 # 4c957f2d <_eusrstack+0x2c95172d>
    61f8:	42d78793          	addi	a5,a5,1069 # 5851f42d <_eusrstack+0x38518c2d>
    61fc:	02f687b3          	mul	a5,a3,a5
    6200:	40b2                	lw	ra,12(sp)
    6202:	4422                	lw	s0,8(sp)
    6204:	02e50533          	mul	a0,a0,a4
    6208:	953e                	add	a0,a0,a5
    620a:	02e687b3          	mul	a5,a3,a4
    620e:	02e6b733          	mulhu	a4,a3,a4
    6212:	00178693          	addi	a3,a5,1
    6216:	ca14                	sw	a3,16(a2)
    6218:	972a                	add	a4,a4,a0
    621a:	00f6b533          	sltu	a0,a3,a5
    621e:	953a                	add	a0,a0,a4
    6220:	ca48                	sw	a0,20(a2)
    6222:	0506                	slli	a0,a0,0x1
    6224:	8105                	srli	a0,a0,0x1
    6226:	0141                	addi	sp,sp,16
    6228:	8082                	ret

0000622a <_sbrk_r>:
_sbrk_r():
    622a:	1141                	addi	sp,sp,-16
    622c:	c422                	sw	s0,8(sp)
    622e:	842a                	mv	s0,a0
    6230:	852e                	mv	a0,a1
    6232:	8a01ac23          	sw	zero,-1864(gp) # 20000918 <errno>
    6236:	c606                	sw	ra,12(sp)
    6238:	2069                	jal	62c2 <_sbrk>
    623a:	57fd                	li	a5,-1
    623c:	00f51763          	bne	a0,a5,624a <_sbrk_r+0x20>
    6240:	8b818793          	addi	a5,gp,-1864 # 20000918 <errno>
    6244:	439c                	lw	a5,0(a5)
    6246:	c391                	beqz	a5,624a <_sbrk_r+0x20>
    6248:	c01c                	sw	a5,0(s0)
    624a:	40b2                	lw	ra,12(sp)
    624c:	4422                	lw	s0,8(sp)
    624e:	0141                	addi	sp,sp,16
    6250:	8082                	ret

00006252 <time>:
time():
    6252:	1101                	addi	sp,sp,-32
    6254:	1fffa797          	auipc	a5,0x1fffa
    6258:	60c78793          	addi	a5,a5,1548 # 20000860 <_impure_ptr>
    625c:	cc22                	sw	s0,24(sp)
    625e:	842a                	mv	s0,a0
    6260:	4388                	lw	a0,0(a5)
    6262:	4601                	li	a2,0
    6264:	858a                	mv	a1,sp
    6266:	ce06                	sw	ra,28(sp)
    6268:	2005                	jal	6288 <_gettimeofday_r>
    626a:	00055663          	bgez	a0,6276 <time+0x24>
    626e:	577d                	li	a4,-1
    6270:	57fd                	li	a5,-1
    6272:	c03a                	sw	a4,0(sp)
    6274:	c23e                	sw	a5,4(sp)
    6276:	4502                	lw	a0,0(sp)
    6278:	4592                	lw	a1,4(sp)
    627a:	c019                	beqz	s0,6280 <time+0x2e>
    627c:	c008                	sw	a0,0(s0)
    627e:	c04c                	sw	a1,4(s0)
    6280:	40f2                	lw	ra,28(sp)
    6282:	4462                	lw	s0,24(sp)
    6284:	6105                	addi	sp,sp,32
    6286:	8082                	ret

00006288 <_gettimeofday_r>:
_gettimeofday_r():
    6288:	1141                	addi	sp,sp,-16
    628a:	c422                	sw	s0,8(sp)
    628c:	842a                	mv	s0,a0
    628e:	852e                	mv	a0,a1
    6290:	85b2                	mv	a1,a2
    6292:	8a01ac23          	sw	zero,-1864(gp) # 20000918 <errno>
    6296:	c606                	sw	ra,12(sp)
    6298:	2839                	jal	62b6 <_gettimeofday>
    629a:	57fd                	li	a5,-1
    629c:	00f51763          	bne	a0,a5,62aa <_gettimeofday_r+0x22>
    62a0:	8b818793          	addi	a5,gp,-1864 # 20000918 <errno>
    62a4:	439c                	lw	a5,0(a5)
    62a6:	c391                	beqz	a5,62aa <_gettimeofday_r+0x22>
    62a8:	c01c                	sw	a5,0(s0)
    62aa:	40b2                	lw	ra,12(sp)
    62ac:	4422                	lw	s0,8(sp)
    62ae:	0141                	addi	sp,sp,16
    62b0:	8082                	ret

000062b2 <__malloc_lock>:
__malloc_lock():
    62b2:	8082                	ret

000062b4 <__malloc_unlock>:
__malloc_unlock():
    62b4:	8082                	ret

000062b6 <_gettimeofday>:
_gettimeofday():
    62b6:	05800793          	li	a5,88
    62ba:	8af1ac23          	sw	a5,-1864(gp) # 20000918 <errno>
    62be:	557d                	li	a0,-1
    62c0:	8082                	ret

000062c2 <_sbrk>:
_sbrk():
    62c2:	81418793          	addi	a5,gp,-2028 # 20000874 <heap_end.1518>
    62c6:	439c                	lw	a5,0(a5)
    62c8:	c791                	beqz	a5,62d4 <_sbrk+0x12>
    62ca:	953e                	add	a0,a0,a5
    62cc:	80a1aa23          	sw	a0,-2028(gp) # 20000874 <heap_end.1518>
    62d0:	853e                	mv	a0,a5
    62d2:	8082                	ret
    62d4:	8bc18793          	addi	a5,gp,-1860 # 2000091c <_ebss>
    62d8:	953e                	add	a0,a0,a5
    62da:	80a1aa23          	sw	a0,-2028(gp) # 20000874 <heap_end.1518>
    62de:	853e                	mv	a0,a5
    62e0:	8082                	ret
	...
    62ee:	4010                	lw	a2,0(s0)
    62f0:	0000                	unimp
    62f2:	0000                	unimp
    62f4:	0000                	unimp
    62f6:	3ff0                	fld	fa2,248(a5)
    62f8:	0000                	unimp
    62fa:	0000                	unimp
    62fc:	0000                	unimp
    62fe:	4034                	lw	a3,64(s0)

00006300 <edges>:
    6300:	0000 0000 0001 0000 0001 0000 0002 0000     ................
    6310:	0002 0000 0003 0000 0003 0000 0000 0000     ................
    6320:	0004 0000 0005 0000 0005 0000 0006 0000     ................
    6330:	0006 0000 0007 0000 0007 0000 0004 0000     ................
    6340:	0000 0000 0004 0000 0001 0000 0005 0000     ................
    6350:	0002 0000 0006 0000 0003 0000 0007 0000     ................

00006360 <original_vertices>:
    6360:	0000 bf80 0000 bf80 0000 bf80 0000 3f80     ...............?
    6370:	0000 bf80 0000 bf80 0000 3f80 0000 3f80     ...........?...?
    6380:	0000 bf80 0000 bf80 0000 3f80 0000 bf80     ...........?....
    6390:	0000 bf80 0000 bf80 0000 3f80 0000 3f80     ...........?...?
    63a0:	0000 bf80 0000 3f80 0000 3f80 0000 3f80     .......?...?...?
    63b0:	0000 3f80 0000 bf80 0000 3f80 0000 3f80     ...?.......?...?
    63c0:	0000 4100 0000 c100 0000 c260 0000 4260     ...A......`...`B
    63d0:	3333 bf93 5555 4055 0000 40a0 5555 c055     33..UUU@...@UUU.
    63e0:	dca8 40c5 cccd 3dcc 999a 3f99 b882 ffff     ...@...=...?....
    63f0:	b8aa ffff b8d2 ffff b864 ffff b84a ffff     ........d...J...
    6400:	b936 ffff b95e ffff b986 ffff b918 ffff     6...^...........
    6410:	b8fe ffff 0000 0000 0000 5440 21fb 3ff9     ..........@T.!.?
    6420:	6331 1a62 b461 3dd0 0000 1a60 b461 3dd0     1cb.a..=..`.a..=
    6430:	7073 2e03 198a 3ba3 c883 6dc9 5f30 3fe4     sp.....;...m0_.?
    6440:	0000 0000 0000 3fe0 0000 2e00 198a 3ba3     .......?.......;
    6450:	49c1 2520 839a 397b 0000 0000 0000 4170     .I %..{9......pA

00006460 <npio2_hw>:
    6460:	21fb 3ff9 21fb 4009 d97c 4012 21fb 4019     .!.?.!.@|..@.!.@
    6470:	6a7a 401f d97c 4022 fdbb 4025 21fb 4029     zj.@|."@..%@.!)@
    6480:	463a 402c 6a7a 402f 475c 4031 d97c 4032     :F,@zj/@\G1@|.2@
    6490:	6b9c 4034 fdbb 4035 8fdb 4037 21fb 4039     .k4@..5@..7@.!9@
    64a0:	b41b 403a 463a 403c d85a 403d 6a7a 403f     ..:@:F<@Z.=@zj?@
    64b0:	7e4c 4040 475c 4041 106c 4042 d97c 4042     L~@@\GA@l.B@|.B@
    64c0:	a28c 4043 6b9c 4044 34ac 4045 fdbb 4045     ..C@.kD@.4E@..E@
    64d0:	c6cb 4046 8fdb 4047 58eb 4048 21fb 4049     ..F@..G@.XH@.!I@

000064e0 <two_over_pi>:
    64e0:	f983 00a2 4e44 006e 29fc 0015 57d1 0027     ....DNn..)...W'.
    64f0:	34dd 00f5 db62 00c0 993c 0095 9041 0043     .4..b...<...A.C.
    6500:	5163 00fe debb 00ab 61b7 00c5 6e3a 0024     cQ.......a..:n$.
    6510:	4dd2 0042 0649 00e0 ea09 002e 921c 00d1     .MB.I...........
    6520:	1deb 00fe b129 001c 3ee8 00a7 35f5 0082     ....)....>...5..
    6530:	bb44 002e e99c 0084 26b4 0070 7e41 005f     D........&p.A~_.
    6540:	91d6 0039 8353 0039 f49c 0039 5f8b 0084     ..9.S.9...9.._..
    6550:	f928 00bd 1ff8 003b ffde 0097 980f 0005     (.....;.........
    6560:	2f11 00ef 5a0a 008b 1f6d 006d 7ecf 0036     ./...Z..m.m..~6.
    6570:	cb09 0027 4f46 00b7 669e 003f ea2d 005f     ..'.FO...f?.-._.
    6580:	27ba 0075 ebe5 00c7 7b3d 00f1 39f7 0007     .'u.....={...9..
    6590:	5292 008a 6bfb 00ea b11f 005f 5d08 008d     .R...k...._..]..
    65a0:	0330 0056 fc7b 0046 abf0 006b bc20 00cf     0.V.{.F...k. ...
    65b0:	f436 009a a9e3 001d 615e 0091 1b08 00e6     6.......^a......
    65c0:	9985 0065 14a0 005f 408d 0068 d880 00ff     ..e..._..@h.....
    65d0:	7327 004d 0606 0031 56ca 0015 a8c9 0073     'sM...1..V....s.
    65e0:	e27b 0060 8c6b 00c0 0000 0000 0000 3fe7     {.`.k..........?
    65f0:	0000 0000 0000 3fd2 38d4 be88 fae9 bda8     .......?.8......
    6600:	b1c4 bdb4 ee9e 3e21 52ad 809c 7e4f 3e92     ......!>.R..O~.>
    6610:	1590 19cb 01a0 3efa 5177 16c1 c16c 3f56     .......>wQ..l.V?
    6620:	554c 5555 5555 3fa5                         LUUUUU.?

00006628 <PIo2>:
    6628:	0000 4000 21fb 3ff9 0000 0000 442d 3e74     ...@.!.?....-Dt>
    6638:	0000 8000 4698 3cf8 0000 6000 cc51 3b78     .....F.<...`Q.x;
    6648:	0000 8000 1b83 39f0 0000 4000 2520 387a     .......9...@ %z8
    6658:	0000 8000 8222 36e3 0000 0000 f31d 3569     ...."..6......i5
    6668:	0000 4000 21fb 3ff9 0000 0000 0000 3e70     ...@.!.?......p>
    6678:	0000 0000 0000 3fc0 0000 0000 0000 4020     .......?...... @

00006688 <init_jk>:
    6688:	0002 0000 0003 0000 0004 0000 0006 0000     ................
    6698:	d57c 5acf d93a 3de5 9ceb 8a2b e5e6 3e5a     |..Z:..=..+...Z>
    66a8:	fe7d 57b1 1de3 3ec7 61d5 19c1 01a0 3f2a     }..W...>.a....*?
    66b8:	f8a6 1110 1111 3f81 5549 5555 5555 3fc5     .......?IUUUUU.?
    66c8:	759c 8800 e43c 7e37 0000 0000 0000 4350     .u..<.7~......PC
    66d8:	f359 c2f8 6e1f 01a5 0000 0000 0000 3c90     Y....n.........<
    66e8:	d9d6 ffff d85a ffff d96a ffff d972 ffff     ....Z...j...r...
    66f8:	d96a ffff d88a ffff d96a ffff d972 ffff     j.......j...r...
    6708:	d85a ffff d85a ffff d88a ffff d972 ffff     Z...Z.......r...
    6718:	d9cc ffff d9cc ffff d9cc ffff d88a ffff     ................
    6728:	e030 ffff df22 ffff df22 ffff df20 ffff     0..."..."... ...
    6738:	df28 ffff df28 ffff deee ffff df20 ffff     (...(....... ...
    6748:	df28 ffff deee ffff df28 ffff df20 ffff     (.......(... ...
    6758:	e01c ffff e01c ffff e01c ffff deee ffff     ................
    6768:	f0b0 ffff effe ffff effe ffff effc ffff     ................
    6778:	f002 ffff f002 ffff efd2 ffff effc ffff     ................
    6788:	f002 ffff efd2 ffff f002 ffff effc ffff     ................
    6798:	f09e ffff f09e ffff f09e ffff efd2 ffff     ................

000067a8 <__clz_tab>:
    67a8:	0100 0202 0303 0303 0404 0404 0404 0404     ................
    67b8:	0505 0505 0505 0505 0505 0505 0505 0505     ................
    67c8:	0606 0606 0606 0606 0606 0606 0606 0606     ................
    67d8:	0606 0606 0606 0606 0606 0606 0606 0606     ................
    67e8:	0707 0707 0707 0707 0707 0707 0707 0707     ................
    67f8:	0707 0707 0707 0707 0707 0707 0707 0707     ................
    6808:	0707 0707 0707 0707 0707 0707 0707 0707     ................
    6818:	0707 0707 0707 0707 0707 0707 0707 0707     ................
    6828:	0808 0808 0808 0808 0808 0808 0808 0808     ................
    6838:	0808 0808 0808 0808 0808 0808 0808 0808     ................
    6848:	0808 0808 0808 0808 0808 0808 0808 0808     ................
    6858:	0808 0808 0808 0808 0808 0808 0808 0808     ................
    6868:	0808 0808 0808 0808 0808 0808 0808 0808     ................
    6878:	0808 0808 0808 0808 0808 0808 0808 0808     ................
    6888:	0808 0808 0808 0808 0808 0808 0808 0808     ................
    6898:	0808 0808 0808 0808 0808 0808 0808 0808     ................
